---
triple:          'arm64-apple-darwin'
binary-path:     test
relocations:
  - { offsetInCU: 0x44, offset: 0x44, size: 0x8, addend: 0x0, symName: __ZN5EigenL4lastE, symObjAddr: 0x46A306, symBinAddr: 0x100060018, symSize: 0x0 }
  - { offsetInCU: 0x99F0, offset: 0x99F0, size: 0x8, addend: 0x0, symName: __ZN5Eigen8internal31conditional_aligned_delete_autoIdLb1EEEvPT_m, symObjAddr: 0x2D04, symBinAddr: 0x100003710, symSize: 0x28 }
  - { offsetInCU: 0x9A3C, offset: 0x9A3C, size: 0x8, addend: 0x0, symName: __ZN5Eigen8internal24conditional_aligned_freeILb1EEEvPv, symObjAddr: 0x2D38, symBinAddr: 0x100003744, symSize: 0x24 }
  - { offsetInCU: 0x9A70, offset: 0x9A70, size: 0x8, addend: 0x0, symName: __ZN5Eigen8internal12aligned_freeEPv, symObjAddr: 0x2D5C, symBinAddr: 0x100003768, symSize: 0x24 }
  - { offsetInCU: 0x9AC9, offset: 0x9AC9, size: 0x8, addend: 0x0, symName: __ZN5Eigen8internal13convert_indexIilEET_RKT0_, symObjAddr: 0x4F3C, symBinAddr: 0x100005948, symSize: 0x1C }
  - { offsetInCU: 0x9B3A, offset: 0x9B3A, size: 0x8, addend: 0x0, symName: __ZN5Eigen8internal19throw_std_bad_allocEv, symObjAddr: 0x554C, symBinAddr: 0x100005F58, symSize: 0x34 }
  - { offsetInCU: 0x9B53, offset: 0x9B53, size: 0x8, addend: 0x0, symName: __ZN5Eigen8internal31conditional_aligned_delete_autoIiLb1EEEvPT_m, symObjAddr: 0x5644, symBinAddr: 0x100006050, symSize: 0x28 }
  - { offsetInCU: 0x9BC2, offset: 0x9BC2, size: 0x8, addend: 0x0, symName: __ZN5Eigen8internal28conditional_aligned_new_autoIiLb1EEEPT_m, symObjAddr: 0x566C, symBinAddr: 0x100006078, symSize: 0x84 }
  - { offsetInCU: 0x9C30, offset: 0x9C30, size: 0x8, addend: 0x0, symName: __ZN5Eigen8internal26conditional_aligned_mallocILb1EEEPvm, symObjAddr: 0x56F0, symBinAddr: 0x1000060FC, symSize: 0x24 }
  - { offsetInCU: 0x9C66, offset: 0x9C66, size: 0x8, addend: 0x0, symName: __ZN5Eigen8internal14aligned_mallocEm, symObjAddr: 0x5714, symBinAddr: 0x100006120, symSize: 0xDC }
  - { offsetInCU: 0x9CA7, offset: 0x9CA7, size: 0x8, addend: 0x0, symName: __ZN5Eigen8internal28check_that_malloc_is_allowedEv, symObjAddr: 0x57F0, symBinAddr: 0x1000061FC, symSize: 0x4 }
  - { offsetInCU: 0x9CC0, offset: 0x9CC0, size: 0x8, addend: 0x0, symName: __ZN5Eigen8internal24call_assignment_no_aliasINS_6MatrixIiLin1ELi1ELi0ELin1ELi1EEENS_14CwiseNullaryOpINS0_12linspaced_opIiEES3_EENS0_9assign_opIiiEEEEvRT_RKT0_RKT1_, symObjAddr: 0x57F4, symBinAddr: 0x100006200, symSize: 0x3C }
  - { offsetInCU: 0x9DEE, offset: 0x9DEE, size: 0x8, addend: 0x0, symName: __ZN5Eigen8internal18check_for_aliasingINS_6MatrixIiLin1ELi1ELi0ELin1ELi1EEENS_14CwiseNullaryOpINS0_12linspaced_opIiEES3_EEEEvRKT_RKT0_, symObjAddr: 0x58B0, symBinAddr: 0x1000062BC, symSize: 0x14 }
  - { offsetInCU: 0x9E39, offset: 0x9E39, size: 0x8, addend: 0x0, symName: __ZN5Eigen8internal26call_dense_assignment_loopINS_6MatrixIiLin1ELi1ELi0ELin1ELi1EEENS_14CwiseNullaryOpINS0_12linspaced_opIiEES3_EENS0_9assign_opIiiEEEEvRT_RKT0_RKT1_, symObjAddr: 0x58C4, symBinAddr: 0x1000062D0, symSize: 0xE0 }
  - { offsetInCU: 0xA03C, offset: 0xA03C, size: 0x8, addend: 0x0, symName: __ZN5Eigen8internal17resize_if_allowedINS_6MatrixIiLin1ELi1ELi0ELin1ELi1EEENS_14CwiseNullaryOpINS0_12linspaced_opIiEES3_EEiiEEvRT_RKT0_RKNS0_9assign_opIT1_T2_EE, symObjAddr: 0x59D8, symBinAddr: 0x1000063E4, symSize: 0xF8 }
  - { offsetInCU: 0xA314, offset: 0xA314, size: 0x8, addend: 0x0, symName: __ZN5Eigen8internal22ignore_unused_variableIlEEvRKT_, symObjAddr: 0x5ED4, symBinAddr: 0x1000068E0, symSize: 0x10 }
  - { offsetInCU: 0xA366, offset: 0xA366, size: 0x8, addend: 0x0, symName: __ZN5Eigen8internal28conditional_aligned_new_autoIdLb1EEEPT_m, symObjAddr: 0x9480, symBinAddr: 0x100009E8C, symSize: 0x84 }
  - { offsetInCU: 0xA3D4, offset: 0xA3D4, size: 0x8, addend: 0x0, symName: __ZN5Eigen8internal24call_assignment_no_aliasINS_6MatrixIdLin1ELi1ELi0ELin1ELi1EEENS_13CwiseBinaryOpINS0_13scalar_sum_opIddEEKNS4_INS0_18scalar_quotient_opIddEEKNS_12ArrayWrapperIKNS_14CwiseNullaryOpINS0_16scalar_random_opIdEES3_EEEEKNSA_INS0_18scalar_constant_opIdEEKNS_5ArrayIdLin1ELi1ELi0ELin1ELi1EEEEEEESN_EENS0_9assign_opIddEEEEvRT_RKT0_RKT1_, symObjAddr: 0x9504, symBinAddr: 0x100009F10, symSize: 0x3C }
  - { offsetInCU: 0xA4A2, offset: 0xA4A2, size: 0x8, addend: 0x0, symName: __ZN5Eigen8internal18check_for_aliasingINS_6MatrixIdLin1ELi1ELi0ELin1ELi1EEENS_13CwiseBinaryOpINS0_13scalar_sum_opIddEEKNS4_INS0_18scalar_quotient_opIddEEKNS_12ArrayWrapperIKNS_14CwiseNullaryOpINS0_16scalar_random_opIdEES3_EEEEKNSA_INS0_18scalar_constant_opIdEEKNS_5ArrayIdLin1ELi1ELi0ELin1ELi1EEEEEEESN_EEEEvRKT_RKT0_, symObjAddr: 0x95C0, symBinAddr: 0x100009FCC, symSize: 0x14 }
  - { offsetInCU: 0xA4ED, offset: 0xA4ED, size: 0x8, addend: 0x0, symName: __ZN5Eigen8internal26call_dense_assignment_loopINS_6MatrixIdLin1ELi1ELi0ELin1ELi1EEENS_13CwiseBinaryOpINS0_13scalar_sum_opIddEEKNS4_INS0_18scalar_quotient_opIddEEKNS_12ArrayWrapperIKNS_14CwiseNullaryOpINS0_16scalar_random_opIdEES3_EEEEKNSA_INS0_18scalar_constant_opIdEEKNS_5ArrayIdLin1ELi1ELi0ELin1ELi1EEEEEEESN_EENS0_9assign_opIddEEEEvRT_RKT0_RKT1_, symObjAddr: 0x95D4, symBinAddr: 0x100009FE0, symSize: 0xE0 }
  - { offsetInCU: 0xADD0, offset: 0xADD0, size: 0x8, addend: 0x0, symName: __ZN5Eigen8internal17resize_if_allowedINS_6MatrixIdLin1ELi1ELi0ELin1ELi1EEENS_13CwiseBinaryOpINS0_13scalar_sum_opIddEEKNS4_INS0_18scalar_quotient_opIddEEKNS_12ArrayWrapperIKNS_14CwiseNullaryOpINS0_16scalar_random_opIdEES3_EEEEKNSA_INS0_18scalar_constant_opIdEEKNS_5ArrayIdLin1ELi1ELi0ELin1ELi1EEEEEEESN_EEddEEvRT_RKT0_RKNS0_9assign_opIT1_T2_EE, symObjAddr: 0x96E8, symBinAddr: 0x10000A0F4, symSize: 0xF8 }
  - { offsetInCU: 0xB0A8, offset: 0xB0A8, size: 0x8, addend: 0x0, symName: __ZN5Eigen8internal6randomIdEENS0_13random_retvalINS0_36global_math_functions_filtering_baseIT_vE4typeEE4typeEv, symObjAddr: 0xA6CC, symBinAddr: 0x10000B0D8, symSize: 0x14 }
  - { offsetInCU: 0xB123, offset: 0xB123, size: 0x8, addend: 0x0, symName: __ZN5Eigen8internal15call_assignmentINS_5BlockINS_6MatrixIdLin1ELin1ELi0ELin1ELin1EEELi1ELin1ELb0EEENS_13CwiseBinaryOpINS0_13scalar_sum_opIddEEKNS6_IS8_KNS6_INS0_17scalar_product_opIddEEKNS_9TransposeINS3_IdLin1ELi1ELi0ELin1ELi1EEEEEKS5_EEKNS6_ISA_SE_KNS6_INS0_20scalar_difference_opIddEESF_SF_EEEEEEKNS6_ISA_SN_KNS_14CwiseNullaryOpINS0_18scalar_constant_opIdEEKNS3_IdLi1ELin1ELi1ELi1ELin1EEEEEEEEEEEvRT_RKT0_, symObjAddr: 0xBD98, symBinAddr: 0x10000C7A4, symSize: 0x50 }
  - { offsetInCU: 0xB16E, offset: 0xB16E, size: 0x8, addend: 0x0, symName: __ZN5Eigen8internal15call_assignmentINS_5BlockINS_6MatrixIdLin1ELin1ELi0ELin1ELin1EEELi1ELin1ELb0EEENS_13CwiseBinaryOpINS0_13scalar_sum_opIddEEKNS6_IS8_KNS6_INS0_17scalar_product_opIddEEKNS_9TransposeINS3_IdLin1ELi1ELi0ELin1ELi1EEEEEKS5_EEKNS6_ISA_SE_KNS6_INS0_20scalar_difference_opIddEESF_SF_EEEEEEKNS6_ISA_SN_KNS_14CwiseNullaryOpINS0_18scalar_constant_opIdEEKNS3_IdLi1ELin1ELi1ELi1ELin1EEEEEEEEENS0_9assign_opIddEEEEvRT_RKT0_RKT1_NS0_9enable_ifIXntsr25evaluator_assume_aliasingIS14_EE5valueEPvE4typeE, symObjAddr: 0xBDFC, symBinAddr: 0x10000C808, symSize: 0x38 }
  - { offsetInCU: 0xB1DC, offset: 0xB1DC, size: 0x8, addend: 0x0, symName: __ZN5Eigen8internal24call_assignment_no_aliasINS_5BlockINS_6MatrixIdLin1ELin1ELi0ELin1ELin1EEELi1ELin1ELb0EEENS_13CwiseBinaryOpINS0_13scalar_sum_opIddEEKNS6_IS8_KNS6_INS0_17scalar_product_opIddEEKNS_9TransposeINS3_IdLin1ELi1ELi0ELin1ELi1EEEEEKS5_EEKNS6_ISA_SE_KNS6_INS0_20scalar_difference_opIddEESF_SF_EEEEEEKNS6_ISA_SN_KNS_14CwiseNullaryOpINS0_18scalar_constant_opIdEEKNS3_IdLi1ELin1ELi1ELi1ELin1EEEEEEEEENS0_9assign_opIddEEEEvRT_RKT0_RKT1_, symObjAddr: 0xBE34, symBinAddr: 0x10000C840, symSize: 0x3C }
  - { offsetInCU: 0xB2AA, offset: 0xB2AA, size: 0x8, addend: 0x0, symName: __ZN5Eigen8internal18check_for_aliasingINS_5BlockINS_6MatrixIdLin1ELin1ELi0ELin1ELin1EEELi1ELin1ELb0EEENS_13CwiseBinaryOpINS0_13scalar_sum_opIddEEKNS6_IS8_KNS6_INS0_17scalar_product_opIddEEKNS_9TransposeINS3_IdLin1ELi1ELi0ELin1ELi1EEEEEKS5_EEKNS6_ISA_SE_KNS6_INS0_20scalar_difference_opIddEESF_SF_EEEEEEKNS6_ISA_SN_KNS_14CwiseNullaryOpINS0_18scalar_constant_opIdEEKNS3_IdLi1ELin1ELi1ELi1ELin1EEEEEEEEEEEvRKT_RKT0_, symObjAddr: 0xBEB0, symBinAddr: 0x10000C8BC, symSize: 0x14 }
  - { offsetInCU: 0xB2F5, offset: 0xB2F5, size: 0x8, addend: 0x0, symName: __ZN5Eigen8internal26call_dense_assignment_loopINS_5BlockINS_6MatrixIdLin1ELin1ELi0ELin1ELin1EEELi1ELin1ELb0EEENS_13CwiseBinaryOpINS0_13scalar_sum_opIddEEKNS6_IS8_KNS6_INS0_17scalar_product_opIddEEKNS_9TransposeINS3_IdLin1ELi1ELi0ELin1ELi1EEEEEKS5_EEKNS6_ISA_SE_KNS6_INS0_20scalar_difference_opIddEESF_SF_EEEEEEKNS6_ISA_SN_KNS_14CwiseNullaryOpINS0_18scalar_constant_opIdEEKNS3_IdLi1ELin1ELi1ELi1ELin1EEEEEEEEENS0_9assign_opIddEEEEvRT_RKT0_RKT1_, symObjAddr: 0xBEC4, symBinAddr: 0x10000C8D0, symSize: 0xE8 }
  - { offsetInCU: 0xC316, offset: 0xC316, size: 0x8, addend: 0x0, symName: __ZN5Eigen8internal17resize_if_allowedINS_5BlockINS_6MatrixIdLin1ELin1ELi0ELin1ELin1EEELi1ELin1ELb0EEENS_13CwiseBinaryOpINS0_13scalar_sum_opIddEEKNS6_IS8_KNS6_INS0_17scalar_product_opIddEEKNS_9TransposeINS3_IdLin1ELi1ELi0ELin1ELi1EEEEEKS5_EEKNS6_ISA_SE_KNS6_INS0_20scalar_difference_opIddEESF_SF_EEEEEEKNS6_ISA_SN_KNS_14CwiseNullaryOpINS0_18scalar_constant_opIdEEKNS3_IdLi1ELin1ELi1ELi1ELin1EEEEEEEEEddEEvRT_RKT0_RKNS0_9assign_opIT1_T2_EE, symObjAddr: 0xBFE0, symBinAddr: 0x10000C9EC, symSize: 0xF8 }
  - { offsetInCU: 0xC5EE, offset: 0xC5EE, size: 0x8, addend: 0x0, symName: __ZN5Eigen8internal15call_assignmentINS_5BlockINS_6MatrixIdLin1ELin1ELi0ELin1ELin1EEELi1ELin1ELb0EEES5_NS0_13add_assign_opIddEEEEvRT_RKT0_RKT1_NS0_9enable_ifIXntsr25evaluator_assume_aliasingISA_EE5valueEPvE4typeE, symObjAddr: 0xE498, symBinAddr: 0x10000EEA4, symSize: 0x38 }
  - { offsetInCU: 0xC65C, offset: 0xC65C, size: 0x8, addend: 0x0, symName: __ZN5Eigen8internal24call_assignment_no_aliasINS_5BlockINS_6MatrixIdLin1ELin1ELi0ELin1ELin1EEELi1ELin1ELb0EEES5_NS0_13add_assign_opIddEEEEvRT_RKT0_RKT1_, symObjAddr: 0xE4FC, symBinAddr: 0x10000EF08, symSize: 0x3C }
  - { offsetInCU: 0xC72A, offset: 0xC72A, size: 0x8, addend: 0x0, symName: __ZN5Eigen8internal18check_for_aliasingINS_5BlockINS_6MatrixIdLin1ELin1ELi0ELin1ELin1EEELi1ELin1ELb0EEES5_EEvRKT_RKT0_, symObjAddr: 0xE578, symBinAddr: 0x10000EF84, symSize: 0x14 }
  - { offsetInCU: 0xC775, offset: 0xC775, size: 0x8, addend: 0x0, symName: __ZN5Eigen8internal26call_dense_assignment_loopINS_5BlockINS_6MatrixIdLin1ELin1ELi0ELin1ELin1EEELi1ELin1ELb0EEES5_NS0_13add_assign_opIddEEEEvRT_RKT0_RKT1_, symObjAddr: 0xE58C, symBinAddr: 0x10000EF98, symSize: 0xD8 }
  - { offsetInCU: 0xC829, offset: 0xC829, size: 0x8, addend: 0x0, symName: __ZN5Eigen8internal17resize_if_allowedINS_5BlockINS_6MatrixIdLin1ELin1ELi0ELin1ELin1EEELi1ELin1ELb0EEES5_NS0_13add_assign_opIddEEEEvRT_RKT0_RKT1_, symObjAddr: 0xE664, symBinAddr: 0x10000F070, symSize: 0xB4 }
  - { offsetInCU: 0xCBCB, offset: 0xCBCB, size: 0x8, addend: 0x0, symName: __ZN5Eigen8internalL21first_default_alignedINS_6MatrixIdLin1ELi1ELi0ELin1ELi1EEEEElRKNS_9DenseBaseIT_EE, symObjAddr: 0xF094, symBinAddr: 0x10000FAA0, symSize: 0x24 }
  - { offsetInCU: 0xCC53, offset: 0xCC53, size: 0x8, addend: 0x0, symName: __ZN5Eigen8internalL13first_alignedILi16ENS_6MatrixIdLin1ELi1ELi0ELin1ELi1EEEEElRKNS_9DenseBaseIT0_EE, symObjAddr: 0xF17C, symBinAddr: 0x10000FB88, symSize: 0x28 }
  - { offsetInCU: 0xCCD2, offset: 0xCCD2, size: 0x8, addend: 0x0, symName: __ZN5Eigen8internal5ploadI19__simd128_float64_tEET_PKNS0_15unpacket_traitsIS3_E4typeE, symObjAddr: 0xF1B8, symBinAddr: 0x10000FBC4, symSize: 0x28 }
  - { offsetInCU: 0xCD26, offset: 0xCD26, size: 0x8, addend: 0x0, symName: __ZN5Eigen8internal4pminILi0E19__simd128_float64_tEET0_RKS3_S5_, symObjAddr: 0xF1E0, symBinAddr: 0x10000FBEC, symSize: 0x34 }
  - { offsetInCU: 0xCDEF, offset: 0xCDEF, size: 0x8, addend: 0x0, symName: __ZN5Eigen8internal4pminI19__simd128_float64_tEET_RKS3_S5_, symObjAddr: 0xF248, symBinAddr: 0x10000FC54, symSize: 0x40 }
  - { offsetInCU: 0xCE35, offset: 0xCE35, size: 0x8, addend: 0x0, symName: __ZN5Eigen8internal10predux_minILi0E19__simd128_float64_tEENS0_15unpacket_traitsIT0_E4typeERKS4_, symObjAddr: 0xF288, symBinAddr: 0x10000FC94, symSize: 0x2C }
  - { offsetInCU: 0xCE76, offset: 0xCE76, size: 0x8, addend: 0x0, symName: __ZN5Eigen8internal13predux_helperI19__simd128_float64_tPFdRKdS4_EEENS0_15unpacket_traitsIT_E4typeERKS8_T0_, symObjAddr: 0xF2B4, symBinAddr: 0x10000FCC0, symSize: 0x118 }
  - { offsetInCU: 0xCF2A, offset: 0xCF2A, size: 0x8, addend: 0x0, symName: __ZN5Eigen8internal4pminILi0EdEET0_RKS2_S4_, symObjAddr: 0xF3CC, symBinAddr: 0x10000FDD8, symSize: 0x34 }
  - { offsetInCU: 0xCF7A, offset: 0xCF7A, size: 0x8, addend: 0x0, symName: __ZN5Eigen8internal7pstoreuId19__simd128_float64_tEEvPT_RKT0_, symObjAddr: 0xF400, symBinAddr: 0x10000FE0C, symSize: 0x2C }
  - { offsetInCU: 0xCFE2, offset: 0xCFE2, size: 0x8, addend: 0x0, symName: __ZN5Eigen8internal4pminIdEET_RKS2_S4_, symObjAddr: 0xF460, symBinAddr: 0x10000FE6C, symSize: 0x40 }
  - { offsetInCU: 0xD04E, offset: 0xD04E, size: 0x8, addend: 0x0, symName: __ZN5Eigen8internal10smart_copyIdEEvPKT_S4_PS2_, symObjAddr: 0xF67C, symBinAddr: 0x100010088, symSize: 0x34 }
  - { offsetInCU: 0xD103, offset: 0xD103, size: 0x8, addend: 0x0, symName: __ZN5Eigen8internal24call_assignment_no_aliasINS_6MatrixIdLin1ELin1ELi0ELin1ELin1EEENS_13CwiseBinaryOpINS0_13scalar_sum_opIddEEKNS4_INS0_17scalar_product_opIddEEKNS4_IS6_KNS4_INS0_18scalar_quotient_opIddEEKNS_12ArrayWrapperIKNS_14CwiseNullaryOpINS0_16scalar_random_opIdEES3_EEEEKNSC_INS0_18scalar_constant_opIdEEKNS_5ArrayIdLin1ELin1ELi0ELin1ELin1EEEEEEESP_EESP_EESP_EENS0_9assign_opIddEEEEvRT_RKT0_RKT1_, symObjAddr: 0x12588, symBinAddr: 0x100012F94, symSize: 0x3C }
  - { offsetInCU: 0xD1D1, offset: 0xD1D1, size: 0x8, addend: 0x0, symName: __ZN5Eigen8internal18check_for_aliasingINS_6MatrixIdLin1ELin1ELi0ELin1ELin1EEENS_13CwiseBinaryOpINS0_13scalar_sum_opIddEEKNS4_INS0_17scalar_product_opIddEEKNS4_IS6_KNS4_INS0_18scalar_quotient_opIddEEKNS_12ArrayWrapperIKNS_14CwiseNullaryOpINS0_16scalar_random_opIdEES3_EEEEKNSC_INS0_18scalar_constant_opIdEEKNS_5ArrayIdLin1ELin1ELi0ELin1ELin1EEEEEEESP_EESP_EESP_EEEEvRKT_RKT0_, symObjAddr: 0x12604, symBinAddr: 0x100013010, symSize: 0x60 }
  - { offsetInCU: 0xD21C, offset: 0xD21C, size: 0x8, addend: 0x0, symName: __ZN5Eigen8internal26call_dense_assignment_loopINS_6MatrixIdLin1ELin1ELi0ELin1ELin1EEENS_13CwiseBinaryOpINS0_13scalar_sum_opIddEEKNS4_INS0_17scalar_product_opIddEEKNS4_IS6_KNS4_INS0_18scalar_quotient_opIddEEKNS_12ArrayWrapperIKNS_14CwiseNullaryOpINS0_16scalar_random_opIdEES3_EEEEKNSC_INS0_18scalar_constant_opIdEEKNS_5ArrayIdLin1ELin1ELi0ELin1ELin1EEEEEEESP_EESP_EESP_EENS0_9assign_opIddEEEEvRT_RKT0_RKT1_, symObjAddr: 0x12664, symBinAddr: 0x100013070, symSize: 0xE0 }
  - { offsetInCU: 0xDEC6, offset: 0xDEC6, size: 0x8, addend: 0x0, symName: __ZN5Eigen8internal17resize_if_allowedINS_6MatrixIdLin1ELin1ELi0ELin1ELin1EEENS_13CwiseBinaryOpINS0_13scalar_sum_opIddEEKNS4_INS0_17scalar_product_opIddEEKNS4_IS6_KNS4_INS0_18scalar_quotient_opIddEEKNS_12ArrayWrapperIKNS_14CwiseNullaryOpINS0_16scalar_random_opIdEES3_EEEEKNSC_INS0_18scalar_constant_opIdEEKNS_5ArrayIdLin1ELin1ELi0ELin1ELin1EEEEEEESP_EESP_EESP_EEddEEvRT_RKT0_RKNS0_9assign_opIT1_T2_EE, symObjAddr: 0x1278C, symBinAddr: 0x100013198, symSize: 0xF8 }
  - { offsetInCU: 0xE19E, offset: 0xE19E, size: 0x8, addend: 0x0, symName: __ZN5Eigen8internal24call_assignment_no_aliasINS_6MatrixIdLin1ELin1ELi0ELin1ELin1EEENS_14CwiseNullaryOpINS0_18scalar_constant_opIdEES3_EENS0_9assign_opIddEEEEvRT_RKT0_RKT1_, symObjAddr: 0x146B8, symBinAddr: 0x1000150C4, symSize: 0x3C }
  - { offsetInCU: 0xE26C, offset: 0xE26C, size: 0x8, addend: 0x0, symName: __ZN5Eigen8internal18check_for_aliasingINS_6MatrixIdLin1ELin1ELi0ELin1ELin1EEENS_14CwiseNullaryOpINS0_18scalar_constant_opIdEES3_EEEEvRKT_RKT0_, symObjAddr: 0x14734, symBinAddr: 0x100015140, symSize: 0x60 }
  - { offsetInCU: 0xE2B7, offset: 0xE2B7, size: 0x8, addend: 0x0, symName: __ZN5Eigen8internal26call_dense_assignment_loopINS_6MatrixIdLin1ELin1ELi0ELin1ELin1EEEEEvRT_RKNS_14CwiseNullaryOpINS0_18scalar_constant_opINS4_6ScalarEEES4_EERKNS0_9assign_opIS8_S8_EE, symObjAddr: 0x14794, symBinAddr: 0x1000151A0, symSize: 0x6C }
  - { offsetInCU: 0xE346, offset: 0xE346, size: 0x8, addend: 0x0, symName: __ZN5Eigen8internal17resize_if_allowedINS_6MatrixIdLin1ELin1ELi0ELin1ELin1EEENS_14CwiseNullaryOpINS0_18scalar_constant_opIdEES3_EEddEEvRT_RKT0_RKNS0_9assign_opIT1_T2_EE, symObjAddr: 0x14814, symBinAddr: 0x100015220, symSize: 0xF8 }
  - { offsetInCU: 0xE3CC, offset: 0xE3CC, size: 0x8, addend: 0x0, symName: __ZN5Eigen8internal24call_assignment_no_aliasINS_6MatrixIdLin1ELi1ELi0ELin1ELi1EEENS_14CwiseNullaryOpINS0_18scalar_constant_opIdEES3_EENS0_9assign_opIddEEEEvRT_RKT0_RKT1_, symObjAddr: 0x14EC8, symBinAddr: 0x1000158D4, symSize: 0x3C }
  - { offsetInCU: 0xE49A, offset: 0xE49A, size: 0x8, addend: 0x0, symName: __ZN5Eigen8internal18check_for_aliasingINS_6MatrixIdLin1ELi1ELi0ELin1ELi1EEENS_14CwiseNullaryOpINS0_18scalar_constant_opIdEES3_EEEEvRKT_RKT0_, symObjAddr: 0x14F44, symBinAddr: 0x100015950, symSize: 0x14 }
  - { offsetInCU: 0xE4E5, offset: 0xE4E5, size: 0x8, addend: 0x0, symName: __ZN5Eigen8internal26call_dense_assignment_loopINS_6MatrixIdLin1ELi1ELi0ELin1ELi1EEEEEvRT_RKNS_14CwiseNullaryOpINS0_18scalar_constant_opINS4_6ScalarEEES4_EERKNS0_9assign_opIS8_S8_EE, symObjAddr: 0x14F58, symBinAddr: 0x100015964, symSize: 0x6C }
  - { offsetInCU: 0xE536, offset: 0xE536, size: 0x8, addend: 0x0, symName: __ZN5Eigen8internal17resize_if_allowedINS_6MatrixIdLin1ELi1ELi0ELin1ELi1EEENS_14CwiseNullaryOpINS0_18scalar_constant_opIdEES3_EEddEEvRT_RKT0_RKNS0_9assign_opIT1_T2_EE, symObjAddr: 0x14FC4, symBinAddr: 0x1000159D0, symSize: 0xF8 }
  - { offsetInCU: 0xE5BC, offset: 0xE5BC, size: 0x8, addend: 0x0, symName: __ZN5Eigen8internal24call_assignment_no_aliasINS_6MatrixIdLin1ELi1ELi0ELin1ELi1EEENS_5BlockINS2_IdLin1ELin1ELi0ELin1ELin1EEELi1ELin1ELb0EEENS0_9assign_opIddEEEEvRT_RKT0_RKT1_, symObjAddr: 0x15364, symBinAddr: 0x100015D70, symSize: 0x44 }
  - { offsetInCU: 0xE68A, offset: 0xE68A, size: 0x8, addend: 0x0, symName: __ZN5Eigen8internal18check_for_aliasingINS_9TransposeINS_6MatrixIdLin1ELi1ELi0ELin1ELi1EEEEENS_5BlockINS3_IdLin1ELin1ELi0ELin1ELin1EEELi1ELin1ELb0EEEEEvRKT_RKT0_, symObjAddr: 0x153E8, symBinAddr: 0x100015DF4, symSize: 0x14 }
  - { offsetInCU: 0xE6D5, offset: 0xE6D5, size: 0x8, addend: 0x0, symName: __ZN5Eigen8internal26call_dense_assignment_loopINS_9TransposeINS_6MatrixIdLin1ELi1ELi0ELin1ELi1EEEEENS_5BlockINS3_IdLin1ELin1ELi0ELin1ELin1EEELi1ELin1ELb0EEENS0_9assign_opIddEEEEvRT_RKT0_RKT1_, symObjAddr: 0x153FC, symBinAddr: 0x100015E08, symSize: 0xE0 }
  - { offsetInCU: 0xE789, offset: 0xE789, size: 0x8, addend: 0x0, symName: __ZN5Eigen8internal17resize_if_allowedINS_9TransposeINS_6MatrixIdLin1ELi1ELi0ELin1ELi1EEEEENS_5BlockINS3_IdLin1ELin1ELi0ELin1ELin1EEELi1ELin1ELb0EEEddEEvRT_RKT0_RKNS0_9assign_opIT1_T2_EE, symObjAddr: 0x154DC, symBinAddr: 0x100015EE8, symSize: 0xF8 }
  - { offsetInCU: 0xEA61, offset: 0xEA61, size: 0x8, addend: 0x0, symName: __ZN5Eigen8internal24call_assignment_no_aliasINS_6MatrixIdLin1ELin1ELi0ELin1ELin1EEENS_12ArrayWrapperIS3_EENS0_9assign_opIddEEEEvRT_RKT0_RKT1_, symObjAddr: 0x17B48, symBinAddr: 0x100018554, symSize: 0x3C }
  - { offsetInCU: 0xEB2F, offset: 0xEB2F, size: 0x8, addend: 0x0, symName: __ZN5Eigen8internal18check_for_aliasingINS_6MatrixIdLin1ELin1ELi0ELin1ELin1EEENS_12ArrayWrapperIS3_EEEEvRKT_RKT0_, symObjAddr: 0x17BC4, symBinAddr: 0x1000185D0, symSize: 0x60 }
  - { offsetInCU: 0xEB7A, offset: 0xEB7A, size: 0x8, addend: 0x0, symName: __ZN5Eigen8internal26call_dense_assignment_loopINS_6MatrixIdLin1ELin1ELi0ELin1ELin1EEENS_12ArrayWrapperIS3_EENS0_9assign_opIddEEEEvRT_RKT0_RKT1_, symObjAddr: 0x17C24, symBinAddr: 0x100018630, symSize: 0xD8 }
  - { offsetInCU: 0xEC6C, offset: 0xEC6C, size: 0x8, addend: 0x0, symName: __ZN5Eigen8internal17resize_if_allowedINS_6MatrixIdLin1ELin1ELi0ELin1ELin1EEENS_12ArrayWrapperIS3_EEddEEvRT_RKT0_RKNS0_9assign_opIT1_T2_EE, symObjAddr: 0x17D44, symBinAddr: 0x100018750, symSize: 0xF8 }
  - { offsetInCU: 0xEF1A, offset: 0xEF1A, size: 0x8, addend: 0x0, symName: __ZN5Eigen8internal6pstoreId19__simd128_float64_tEEvPT_RKT0_, symObjAddr: 0x18230, symBinAddr: 0x100018C3C, symSize: 0x2C }
  - { offsetInCU: 0xEF82, offset: 0xEF82, size: 0x8, addend: 0x0, symName: __ZN5Eigen8internal15call_assignmentINS_6MatrixIdLin1ELin1ELi0ELin1ELin1EEENS_13CwiseBinaryOpINS0_13scalar_min_opIddLi0EEEKS3_KNS_14CwiseNullaryOpINS0_18scalar_constant_opIdEES3_EEEEEEvRT_RKT0_, symObjAddr: 0x186F0, symBinAddr: 0x1000190FC, symSize: 0x50 }
  - { offsetInCU: 0xEFCD, offset: 0xEFCD, size: 0x8, addend: 0x0, symName: __ZN5Eigen8internal15call_assignmentINS_6MatrixIdLin1ELin1ELi0ELin1ELin1EEENS_13CwiseBinaryOpINS0_13scalar_min_opIddLi0EEEKS3_KNS_14CwiseNullaryOpINS0_18scalar_constant_opIdEES3_EEEENS0_9assign_opIddEEEEvRT_RKT0_RKT1_NS0_9enable_ifIXntsr25evaluator_assume_aliasingISI_EE5valueEPvE4typeE, symObjAddr: 0x18754, symBinAddr: 0x100019160, symSize: 0x38 }
  - { offsetInCU: 0xF03B, offset: 0xF03B, size: 0x8, addend: 0x0, symName: __ZN5Eigen8internal24call_assignment_no_aliasINS_6MatrixIdLin1ELin1ELi0ELin1ELin1EEENS_13CwiseBinaryOpINS0_13scalar_min_opIddLi0EEEKS3_KNS_14CwiseNullaryOpINS0_18scalar_constant_opIdEES3_EEEENS0_9assign_opIddEEEEvRT_RKT0_RKT1_, symObjAddr: 0x1878C, symBinAddr: 0x100019198, symSize: 0x3C }
  - { offsetInCU: 0xF109, offset: 0xF109, size: 0x8, addend: 0x0, symName: __ZN5Eigen8internal18check_for_aliasingINS_6MatrixIdLin1ELin1ELi0ELin1ELin1EEENS_13CwiseBinaryOpINS0_13scalar_min_opIddLi0EEEKS3_KNS_14CwiseNullaryOpINS0_18scalar_constant_opIdEES3_EEEEEEvRKT_RKT0_, symObjAddr: 0x18808, symBinAddr: 0x100019214, symSize: 0x60 }
  - { offsetInCU: 0xF154, offset: 0xF154, size: 0x8, addend: 0x0, symName: __ZN5Eigen8internal26call_dense_assignment_loopINS_6MatrixIdLin1ELin1ELi0ELin1ELin1EEENS_13CwiseBinaryOpINS0_13scalar_min_opIddLi0EEEKS3_KNS_14CwiseNullaryOpINS0_18scalar_constant_opIdEES3_EEEENS0_9assign_opIddEEEEvRT_RKT0_RKT1_, symObjAddr: 0x18868, symBinAddr: 0x100019274, symSize: 0xD8 }
  - { offsetInCU: 0xF246, offset: 0xF246, size: 0x8, addend: 0x0, symName: __ZN5Eigen8internal17resize_if_allowedINS_6MatrixIdLin1ELin1ELi0ELin1ELin1EEENS_13CwiseBinaryOpINS0_13scalar_min_opIddLi0EEEKS3_KNS_14CwiseNullaryOpINS0_18scalar_constant_opIdEES3_EEEEddEEvRT_RKT0_RKNS0_9assign_opIT1_T2_EE, symObjAddr: 0x18988, symBinAddr: 0x100019394, symSize: 0xF8 }
  - { offsetInCU: 0xF2CC, offset: 0xF2CC, size: 0x8, addend: 0x0, symName: __ZN5Eigen8internal5pset1I19__simd128_float64_tEET_RKNS0_15unpacket_traitsIS3_E4typeE, symObjAddr: 0x191F0, symBinAddr: 0x100019BFC, symSize: 0x44 }
  - { offsetInCU: 0xF303, offset: 0xF303, size: 0x8, addend: 0x0, symName: __ZN5Eigen8internal15call_assignmentINS_6MatrixIdLin1ELin1ELi0ELin1ELin1EEENS_13CwiseBinaryOpINS0_13scalar_max_opIddLi0EEEKS3_KNS_14CwiseNullaryOpINS0_18scalar_constant_opIdEES3_EEEEEEvRT_RKT0_, symObjAddr: 0x19764, symBinAddr: 0x10001A170, symSize: 0x50 }
  - { offsetInCU: 0xF34E, offset: 0xF34E, size: 0x8, addend: 0x0, symName: __ZN5Eigen8internal15call_assignmentINS_6MatrixIdLin1ELin1ELi0ELin1ELin1EEENS_13CwiseBinaryOpINS0_13scalar_max_opIddLi0EEEKS3_KNS_14CwiseNullaryOpINS0_18scalar_constant_opIdEES3_EEEENS0_9assign_opIddEEEEvRT_RKT0_RKT1_NS0_9enable_ifIXntsr25evaluator_assume_aliasingISI_EE5valueEPvE4typeE, symObjAddr: 0x197C8, symBinAddr: 0x10001A1D4, symSize: 0x38 }
  - { offsetInCU: 0xF3BC, offset: 0xF3BC, size: 0x8, addend: 0x0, symName: __ZN5Eigen8internal24call_assignment_no_aliasINS_6MatrixIdLin1ELin1ELi0ELin1ELin1EEENS_13CwiseBinaryOpINS0_13scalar_max_opIddLi0EEEKS3_KNS_14CwiseNullaryOpINS0_18scalar_constant_opIdEES3_EEEENS0_9assign_opIddEEEEvRT_RKT0_RKT1_, symObjAddr: 0x19800, symBinAddr: 0x10001A20C, symSize: 0x3C }
  - { offsetInCU: 0xF48A, offset: 0xF48A, size: 0x8, addend: 0x0, symName: __ZN5Eigen8internal18check_for_aliasingINS_6MatrixIdLin1ELin1ELi0ELin1ELin1EEENS_13CwiseBinaryOpINS0_13scalar_max_opIddLi0EEEKS3_KNS_14CwiseNullaryOpINS0_18scalar_constant_opIdEES3_EEEEEEvRKT_RKT0_, symObjAddr: 0x1987C, symBinAddr: 0x10001A288, symSize: 0x60 }
  - { offsetInCU: 0xF4D5, offset: 0xF4D5, size: 0x8, addend: 0x0, symName: __ZN5Eigen8internal26call_dense_assignment_loopINS_6MatrixIdLin1ELin1ELi0ELin1ELin1EEENS_13CwiseBinaryOpINS0_13scalar_max_opIddLi0EEEKS3_KNS_14CwiseNullaryOpINS0_18scalar_constant_opIdEES3_EEEENS0_9assign_opIddEEEEvRT_RKT0_RKT1_, symObjAddr: 0x198DC, symBinAddr: 0x10001A2E8, symSize: 0xD8 }
  - { offsetInCU: 0xF5C7, offset: 0xF5C7, size: 0x8, addend: 0x0, symName: __ZN5Eigen8internal17resize_if_allowedINS_6MatrixIdLin1ELin1ELi0ELin1ELin1EEENS_13CwiseBinaryOpINS0_13scalar_max_opIddLi0EEEKS3_KNS_14CwiseNullaryOpINS0_18scalar_constant_opIdEES3_EEEEddEEvRT_RKT0_RKNS0_9assign_opIT1_T2_EE, symObjAddr: 0x199FC, symBinAddr: 0x10001A408, symSize: 0xF8 }
  - { offsetInCU: 0xF64D, offset: 0xF64D, size: 0x8, addend: 0x0, symName: __ZN5Eigen8internal4pmaxILi0E19__simd128_float64_tEET0_RKS3_S5_, symObjAddr: 0x1A04C, symBinAddr: 0x10001AA58, symSize: 0x34 }
  - { offsetInCU: 0xF69D, offset: 0xF69D, size: 0x8, addend: 0x0, symName: __ZN5Eigen8internal4pmaxI19__simd128_float64_tEET_RKS3_S5_, symObjAddr: 0x1A080, symBinAddr: 0x10001AA8C, symSize: 0x40 }
  - { offsetInCU: 0xF6E3, offset: 0xF6E3, size: 0x8, addend: 0x0, symName: __ZN5Eigen8internal4pmaxILi0EdEET0_RKS2_S4_, symObjAddr: 0x1A1BC, symBinAddr: 0x10001ABC8, symSize: 0x34 }
  - { offsetInCU: 0xF733, offset: 0xF733, size: 0x8, addend: 0x0, symName: __ZN5Eigen8internal4pmaxIdEET_RKS2_S4_, symObjAddr: 0x1A1F0, symBinAddr: 0x10001ABFC, symSize: 0x40 }
  - { offsetInCU: 0xF79F, offset: 0xF79F, size: 0x8, addend: 0x0, symName: __ZN5Eigen8internal24call_assignment_no_aliasINS_6MatrixIdLin1ELin1ELi0ELin1ELin1EEENS_9ReplicateINS_13CwiseBinaryOpINS0_13scalar_sum_opIddEEKNS5_INS0_18scalar_quotient_opIddEEKNS_12ArrayWrapperIKNS_14CwiseNullaryOpINS0_16scalar_random_opIdEES3_EEEEKNSB_INS0_18scalar_constant_opIdEEKNS_5ArrayIdLin1ELin1ELi0ELin1ELin1EEEEEEESO_EELin1ELin1EEENS0_9assign_opIddEEEEvRT_RKT0_RKT1_, symObjAddr: 0x1C49C, symBinAddr: 0x10001CEA8, symSize: 0x3C }
  - { offsetInCU: 0xF86D, offset: 0xF86D, size: 0x8, addend: 0x0, symName: __ZN5Eigen8internal18check_for_aliasingINS_6MatrixIdLin1ELin1ELi0ELin1ELin1EEENS_9ReplicateINS_13CwiseBinaryOpINS0_13scalar_sum_opIddEEKNS5_INS0_18scalar_quotient_opIddEEKNS_12ArrayWrapperIKNS_14CwiseNullaryOpINS0_16scalar_random_opIdEES3_EEEEKNSB_INS0_18scalar_constant_opIdEEKNS_5ArrayIdLin1ELin1ELi0ELin1ELin1EEEEEEESO_EELin1ELin1EEEEEvRKT_RKT0_, symObjAddr: 0x1C518, symBinAddr: 0x10001CF24, symSize: 0x60 }
  - { offsetInCU: 0xF8B8, offset: 0xF8B8, size: 0x8, addend: 0x0, symName: __ZN5Eigen8internal26call_dense_assignment_loopINS_6MatrixIdLin1ELin1ELi0ELin1ELin1EEENS_9ReplicateINS_13CwiseBinaryOpINS0_13scalar_sum_opIddEEKNS5_INS0_18scalar_quotient_opIddEEKNS_12ArrayWrapperIKNS_14CwiseNullaryOpINS0_16scalar_random_opIdEES3_EEEEKNSB_INS0_18scalar_constant_opIdEEKNS_5ArrayIdLin1ELin1ELi0ELin1ELin1EEEEEEESO_EELin1ELin1EEENS0_9assign_opIddEEEEvRT_RKT0_RKT1_, symObjAddr: 0x1C578, symBinAddr: 0x10001CF84, symSize: 0xD8 }
  - { offsetInCU: 0xFBD3, offset: 0xFBD3, size: 0x8, addend: 0x0, symName: __ZN5Eigen8internal17resize_if_allowedINS_6MatrixIdLin1ELin1ELi0ELin1ELin1EEENS_9ReplicateINS_13CwiseBinaryOpINS0_13scalar_sum_opIddEEKNS5_INS0_18scalar_quotient_opIddEEKNS_12ArrayWrapperIKNS_14CwiseNullaryOpINS0_16scalar_random_opIdEES3_EEEEKNSB_INS0_18scalar_constant_opIdEEKNS_5ArrayIdLin1ELin1ELi0ELin1ELin1EEEEEEESO_EELin1ELin1EEEddEEvRT_RKT0_RKNS0_9assign_opIT1_T2_EE, symObjAddr: 0x1C698, symBinAddr: 0x10001D0A4, symSize: 0xF8 }
  - { offsetInCU: 0xFEAB, offset: 0xFEAB, size: 0x8, addend: 0x0, symName: __ZN5Eigen8internal24call_assignment_no_aliasINS_5ArrayIdLin1ELin1ELi0ELin1ELin1EEENS_13CwiseBinaryOpINS0_13scalar_sum_opIddEEKNS4_INS0_18scalar_quotient_opIddEEKNS_12ArrayWrapperIKNS_14CwiseNullaryOpINS0_16scalar_random_opIdEENS_6MatrixIdLin1ELin1ELi0ELin1ELin1EEEEEEEKNSA_INS0_18scalar_constant_opIdEEKS3_EEEESN_EENS0_9assign_opIddEEEEvRT_RKT0_RKT1_, symObjAddr: 0x1CCA4, symBinAddr: 0x10001D6B0, symSize: 0x3C }
  - { offsetInCU: 0xFF79, offset: 0xFF79, size: 0x8, addend: 0x0, symName: __ZN5Eigen8internal18check_for_aliasingINS_5ArrayIdLin1ELin1ELi0ELin1ELin1EEENS_13CwiseBinaryOpINS0_13scalar_sum_opIddEEKNS4_INS0_18scalar_quotient_opIddEEKNS_12ArrayWrapperIKNS_14CwiseNullaryOpINS0_16scalar_random_opIdEENS_6MatrixIdLin1ELin1ELi0ELin1ELin1EEEEEEEKNSA_INS0_18scalar_constant_opIdEEKS3_EEEESN_EEEEvRKT_RKT0_, symObjAddr: 0x1CD34, symBinAddr: 0x10001D740, symSize: 0x60 }
  - { offsetInCU: 0xFFC4, offset: 0xFFC4, size: 0x8, addend: 0x0, symName: __ZN5Eigen8internal26call_dense_assignment_loopINS_5ArrayIdLin1ELin1ELi0ELin1ELin1EEENS_13CwiseBinaryOpINS0_13scalar_sum_opIddEEKNS4_INS0_18scalar_quotient_opIddEEKNS_12ArrayWrapperIKNS_14CwiseNullaryOpINS0_16scalar_random_opIdEENS_6MatrixIdLin1ELin1ELi0ELin1ELin1EEEEEEEKNSA_INS0_18scalar_constant_opIdEEKS3_EEEESN_EENS0_9assign_opIddEEEEvRT_RKT0_RKT1_, symObjAddr: 0x1CD94, symBinAddr: 0x10001D7A0, symSize: 0xE0 }
  - { offsetInCU: 0x100B7, offset: 0x100B7, size: 0x8, addend: 0x0, symName: __ZN5Eigen8internal17resize_if_allowedINS_5ArrayIdLin1ELin1ELi0ELin1ELin1EEENS_13CwiseBinaryOpINS0_13scalar_sum_opIddEEKNS4_INS0_18scalar_quotient_opIddEEKNS_12ArrayWrapperIKNS_14CwiseNullaryOpINS0_16scalar_random_opIdEENS_6MatrixIdLin1ELin1ELi0ELin1ELin1EEEEEEEKNSA_INS0_18scalar_constant_opIdEEKS3_EEEESN_EEddEEvRT_RKT0_RKNS0_9assign_opIT1_T2_EE, symObjAddr: 0x1CF04, symBinAddr: 0x10001D910, symSize: 0xF8 }
  - { offsetInCU: 0x1038F, offset: 0x1038F, size: 0x8, addend: 0x0, symName: __ZN5Eigen8internal15call_assignmentINS_6MatrixIdLin1ELin1ELi0ELin1ELin1EEENS_13CwiseBinaryOpINS0_17scalar_product_opIddEEKS3_S7_EEEEvRT_RKT0_, symObjAddr: 0x1DB6C, symBinAddr: 0x10001E578, symSize: 0x50 }
  - { offsetInCU: 0x103DA, offset: 0x103DA, size: 0x8, addend: 0x0, symName: __ZN5Eigen8internal15call_assignmentINS_6MatrixIdLin1ELin1ELi0ELin1ELin1EEENS_13CwiseBinaryOpINS0_17scalar_product_opIddEEKS3_S7_EENS0_9assign_opIddEEEEvRT_RKT0_RKT1_NS0_9enable_ifIXntsr25evaluator_assume_aliasingISD_EE5valueEPvE4typeE, symObjAddr: 0x1DBD0, symBinAddr: 0x10001E5DC, symSize: 0x38 }
  - { offsetInCU: 0x10448, offset: 0x10448, size: 0x8, addend: 0x0, symName: __ZN5Eigen8internal24call_assignment_no_aliasINS_6MatrixIdLin1ELin1ELi0ELin1ELin1EEENS_13CwiseBinaryOpINS0_17scalar_product_opIddEEKS3_S7_EENS0_9assign_opIddEEEEvRT_RKT0_RKT1_, symObjAddr: 0x1DC08, symBinAddr: 0x10001E614, symSize: 0x3C }
  - { offsetInCU: 0x10516, offset: 0x10516, size: 0x8, addend: 0x0, symName: __ZN5Eigen8internal18check_for_aliasingINS_6MatrixIdLin1ELin1ELi0ELin1ELin1EEENS_13CwiseBinaryOpINS0_17scalar_product_opIddEEKS3_S7_EEEEvRKT_RKT0_, symObjAddr: 0x1DC84, symBinAddr: 0x10001E690, symSize: 0x60 }
  - { offsetInCU: 0x10561, offset: 0x10561, size: 0x8, addend: 0x0, symName: __ZN5Eigen8internal26call_dense_assignment_loopINS_6MatrixIdLin1ELin1ELi0ELin1ELin1EEENS_13CwiseBinaryOpINS0_17scalar_product_opIddEEKS3_S7_EENS0_9assign_opIddEEEEvRT_RKT0_RKT1_, symObjAddr: 0x1DCE4, symBinAddr: 0x10001E6F0, symSize: 0xD8 }
  - { offsetInCU: 0x10653, offset: 0x10653, size: 0x8, addend: 0x0, symName: __ZN5Eigen8internal17resize_if_allowedINS_6MatrixIdLin1ELin1ELi0ELin1ELin1EEENS_13CwiseBinaryOpINS0_17scalar_product_opIddEEKS3_S7_EEddEEvRT_RKT0_RKNS0_9assign_opIT1_T2_EE, symObjAddr: 0x1DE04, symBinAddr: 0x10001E810, symSize: 0xF8 }
  - { offsetInCU: 0x106D9, offset: 0x106D9, size: 0x8, addend: 0x0, symName: __ZN5Eigen8internal4pmulI19__simd128_float64_tEET_RKS3_S5_, symObjAddr: 0x1E454, symBinAddr: 0x10001EE60, symSize: 0x40 }
  - { offsetInCU: 0x1071F, offset: 0x1071F, size: 0x8, addend: 0x0, symName: __ZN5Eigen8internal15call_assignmentINS_6MatrixIdLin1ELin1ELi0ELin1ELin1EEENS_13CwiseBinaryOpINS0_17scalar_product_opIddEEKNS4_INS0_20scalar_difference_opIddEEKS3_S9_EEKNS_14CwiseNullaryOpINS0_18scalar_constant_opIdEES9_EEEENS0_13add_assign_opIddEEEEvRT_RKT0_RKT1_NS0_9enable_ifIXntsr25evaluator_assume_aliasingISM_EE5valueEPvE4typeE, symObjAddr: 0x1EC78, symBinAddr: 0x10001F684, symSize: 0x38 }
  - { offsetInCU: 0x1078D, offset: 0x1078D, size: 0x8, addend: 0x0, symName: __ZN5Eigen8internal24call_assignment_no_aliasINS_6MatrixIdLin1ELin1ELi0ELin1ELin1EEENS_13CwiseBinaryOpINS0_17scalar_product_opIddEEKNS4_INS0_20scalar_difference_opIddEEKS3_S9_EEKNS_14CwiseNullaryOpINS0_18scalar_constant_opIdEES9_EEEENS0_13add_assign_opIddEEEEvRT_RKT0_RKT1_, symObjAddr: 0x1ECC4, symBinAddr: 0x10001F6D0, symSize: 0x3C }
  - { offsetInCU: 0x1085B, offset: 0x1085B, size: 0x8, addend: 0x0, symName: __ZN5Eigen8internal18check_for_aliasingINS_6MatrixIdLin1ELin1ELi0ELin1ELin1EEENS_13CwiseBinaryOpINS0_17scalar_product_opIddEEKNS4_INS0_20scalar_difference_opIddEEKS3_S9_EEKNS_14CwiseNullaryOpINS0_18scalar_constant_opIdEES9_EEEEEEvRKT_RKT0_, symObjAddr: 0x1ED40, symBinAddr: 0x10001F74C, symSize: 0x60 }
  - { offsetInCU: 0x108A6, offset: 0x108A6, size: 0x8, addend: 0x0, symName: __ZN5Eigen8internal26call_dense_assignment_loopINS_6MatrixIdLin1ELin1ELi0ELin1ELin1EEENS_13CwiseBinaryOpINS0_17scalar_product_opIddEEKNS4_INS0_20scalar_difference_opIddEEKS3_S9_EEKNS_14CwiseNullaryOpINS0_18scalar_constant_opIdEES9_EEEENS0_13add_assign_opIddEEEEvRT_RKT0_RKT1_, symObjAddr: 0x1EDA0, symBinAddr: 0x10001F7AC, symSize: 0xD8 }
  - { offsetInCU: 0x10999, offset: 0x10999, size: 0x8, addend: 0x0, symName: __ZN5Eigen8internal17resize_if_allowedINS_6MatrixIdLin1ELin1ELi0ELin1ELin1EEENS_13CwiseBinaryOpINS0_17scalar_product_opIddEEKNS4_INS0_20scalar_difference_opIddEEKS3_S9_EEKNS_14CwiseNullaryOpINS0_18scalar_constant_opIdEES9_EEEENS0_13add_assign_opIddEEEEvRT_RKT0_RKT1_, symObjAddr: 0x1EEC0, symBinAddr: 0x10001F8CC, symSize: 0xB4 }
  - { offsetInCU: 0x109F8, offset: 0x109F8, size: 0x8, addend: 0x0, symName: __ZN5Eigen8internal4paddI19__simd128_float64_tEET_RKS3_S5_, symObjAddr: 0x1F97C, symBinAddr: 0x100020388, symSize: 0x40 }
  - { offsetInCU: 0x10A3E, offset: 0x10A3E, size: 0x8, addend: 0x0, symName: __ZN5Eigen8internal4psubI19__simd128_float64_tEET_RKS3_S5_, symObjAddr: 0x1FABC, symBinAddr: 0x1000204C8, symSize: 0x40 }
  - { offsetInCU: 0x10A84, offset: 0x10A84, size: 0x8, addend: 0x0, symName: __ZN5Eigen8internal15call_assignmentINS_6MatrixIdLin1ELin1ELi0ELin1ELin1EEES3_NS0_13add_assign_opIddEEEEvRT_RKT0_RKT1_NS0_9enable_ifIXntsr25evaluator_assume_aliasingIS8_EE5valueEPvE4typeE, symObjAddr: 0x1FDB8, symBinAddr: 0x1000207C4, symSize: 0x38 }
  - { offsetInCU: 0x10AF2, offset: 0x10AF2, size: 0x8, addend: 0x0, symName: __ZN5Eigen8internal24call_assignment_no_aliasINS_6MatrixIdLin1ELin1ELi0ELin1ELin1EEES3_NS0_13add_assign_opIddEEEEvRT_RKT0_RKT1_, symObjAddr: 0x1FDF0, symBinAddr: 0x1000207FC, symSize: 0x3C }
  - { offsetInCU: 0x10BC0, offset: 0x10BC0, size: 0x8, addend: 0x0, symName: __ZN5Eigen8internal18check_for_aliasingINS_6MatrixIdLin1ELin1ELi0ELin1ELin1EEES3_EEvRKT_RKT0_, symObjAddr: 0x1FE6C, symBinAddr: 0x100020878, symSize: 0x60 }
  - { offsetInCU: 0x10C0B, offset: 0x10C0B, size: 0x8, addend: 0x0, symName: __ZN5Eigen8internal26call_dense_assignment_loopINS_6MatrixIdLin1ELin1ELi0ELin1ELin1EEES3_NS0_13add_assign_opIddEEEEvRT_RKT0_RKT1_, symObjAddr: 0x1FECC, symBinAddr: 0x1000208D8, symSize: 0xD8 }
  - { offsetInCU: 0x10CFD, offset: 0x10CFD, size: 0x8, addend: 0x0, symName: __ZN5Eigen8internal17resize_if_allowedINS_6MatrixIdLin1ELin1ELi0ELin1ELin1EEES3_NS0_13add_assign_opIddEEEEvRT_RKT0_RKT1_, symObjAddr: 0x1FFB8, symBinAddr: 0x1000209C4, symSize: 0xB4 }
  - { offsetInCU: 0x11047, offset: 0x11047, size: 0x8, addend: 0x0, symName: __ZN5Eigen8internalL21first_default_alignedINS_12CwiseUnaryOpINS0_13scalar_abs_opIdEEKNS_12ArrayWrapperINS_6MatrixIdLin1ELin1ELi0ELin1ELin1EEEEEEEEElRKNS_9DenseBaseIT_EE, symObjAddr: 0x20C6C, symBinAddr: 0x100021678, symSize: 0x24 }
  - { offsetInCU: 0x1107E, offset: 0x1107E, size: 0x8, addend: 0x0, symName: __ZN5Eigen8internalL13first_alignedILi16ENS_12CwiseUnaryOpINS0_13scalar_abs_opIdEEKNS_12ArrayWrapperINS_6MatrixIdLin1ELin1ELi0ELin1ELin1EEEEEEEEElRKNS_9DenseBaseIT0_EE, symObjAddr: 0x20D84, symBinAddr: 0x100021790, symSize: 0x28 }
  - { offsetInCU: 0x110FD, offset: 0x110FD, size: 0x8, addend: 0x0, symName: __ZN5Eigen8internal4pabsI19__simd128_float64_tEET_RKS3_, symObjAddr: 0x20DFC, symBinAddr: 0x100021808, symSize: 0x2C }
  - { offsetInCU: 0x11134, offset: 0x11134, size: 0x8, addend: 0x0, symName: __ZN5Eigen8internal6preduxI19__simd128_float64_tEENS0_15unpacket_traitsIT_E4typeERKS4_, symObjAddr: 0x20E28, symBinAddr: 0x100021834, symSize: 0x50 }
  - { offsetInCU: 0x11195, offset: 0x11195, size: 0x8, addend: 0x0, symName: __ZN5Eigen8internal24call_assignment_no_aliasINS_6MatrixIdLin1ELi1ELi0ELin1ELi1EEENS_13CwiseBinaryOpINS0_18scalar_quotient_opIddEEKNS_16PartialReduxExprINS2_IdLin1ELin1ELi0ELin1ELin1EEENS0_10member_sumIddEELi0EEEKNS_14CwiseNullaryOpINS0_18scalar_constant_opIdEEKNS2_IdLi1ELin1ELi1ELi1ELin1EEEEEEENS0_9assign_opIddEEEEvRT_RKT0_RKT1_, symObjAddr: 0x21824, symBinAddr: 0x100022230, symSize: 0x44 }
  - { offsetInCU: 0x11263, offset: 0x11263, size: 0x8, addend: 0x0, symName: __ZN5Eigen8internal18check_for_aliasingINS_9TransposeINS_6MatrixIdLin1ELi1ELi0ELin1ELi1EEEEENS_13CwiseBinaryOpINS0_18scalar_quotient_opIddEEKNS_16PartialReduxExprINS3_IdLin1ELin1ELi0ELin1ELin1EEENS0_10member_sumIddEELi0EEEKNS_14CwiseNullaryOpINS0_18scalar_constant_opIdEEKNS3_IdLi1ELin1ELi1ELi1ELin1EEEEEEEEEvRKT_RKT0_, symObjAddr: 0x218A8, symBinAddr: 0x1000222B4, symSize: 0x14 }
  - { offsetInCU: 0x112AE, offset: 0x112AE, size: 0x8, addend: 0x0, symName: __ZN5Eigen8internal26call_dense_assignment_loopINS_9TransposeINS_6MatrixIdLin1ELi1ELi0ELin1ELi1EEEEENS_13CwiseBinaryOpINS0_18scalar_quotient_opIddEEKNS_16PartialReduxExprINS3_IdLin1ELin1ELi0ELin1ELin1EEENS0_10member_sumIddEELi0EEEKNS_14CwiseNullaryOpINS0_18scalar_constant_opIdEEKNS3_IdLi1ELin1ELi1ELi1ELin1EEEEEEENS0_9assign_opIddEEEEvRT_RKT0_RKT1_, symObjAddr: 0x218BC, symBinAddr: 0x1000222C8, symSize: 0xD8 }
  - { offsetInCU: 0x11661, offset: 0x11661, size: 0x8, addend: 0x0, symName: __ZN5Eigen8internal17resize_if_allowedINS_9TransposeINS_6MatrixIdLin1ELi1ELi0ELin1ELi1EEEEENS_13CwiseBinaryOpINS0_18scalar_quotient_opIddEEKNS_16PartialReduxExprINS3_IdLin1ELin1ELi0ELin1ELin1EEENS0_10member_sumIddEELi0EEEKNS_14CwiseNullaryOpINS0_18scalar_constant_opIdEEKNS3_IdLi1ELin1ELi1ELi1ELin1EEEEEEEddEEvRT_RKT0_RKNS0_9assign_opIT1_T2_EE, symObjAddr: 0x219C8, symBinAddr: 0x1000223D4, symSize: 0xF8 }
  - { offsetInCU: 0x11B0B, offset: 0x11B0B, size: 0x8, addend: 0x0, symName: __ZN5Eigen8internalL21first_default_alignedINS_5BlockIKNS_6MatrixIdLin1ELin1ELi0ELin1ELin1EEELin1ELi1ELb1EEEEElRKNS_9DenseBaseIT_EE, symObjAddr: 0x22A64, symBinAddr: 0x100023470, symSize: 0x24 }
  - { offsetInCU: 0x11B73, offset: 0x11B73, size: 0x8, addend: 0x0, symName: __ZN5Eigen8internalL13first_alignedILi16ENS_5BlockIKNS_6MatrixIdLin1ELin1ELi0ELin1ELin1EEELin1ELi1ELb1EEEEElRKNS_9DenseBaseIT0_EE, symObjAddr: 0x22B24, symBinAddr: 0x100023530, symSize: 0x28 }
  - { offsetInCU: 0x11BF2, offset: 0x11BF2, size: 0x8, addend: 0x0, symName: __ZN5Eigen8internal13first_alignedILi16EdlEET1_PKT0_S2_, symObjAddr: 0x22B88, symBinAddr: 0x100023594, symSize: 0xAC }
  - { offsetInCU: 0x11C95, offset: 0x11C95, size: 0x8, addend: 0x0, symName: __ZN5Eigen8internal6ploaduI19__simd128_float64_tEET_PKNS0_15unpacket_traitsIS3_E4typeE, symObjAddr: 0x22C34, symBinAddr: 0x100023640, symSize: 0x28 }
  - { offsetInCU: 0x11F22, offset: 0x11F22, size: 0x8, addend: 0x0, symName: __ZN5EigenL6lastp1E, symObjAddr: 0x46A307, symBinAddr: 0x100060019, symSize: 0x0 }
  - { offsetInCU: 0x11F3B, offset: 0x11F3B, size: 0x8, addend: 0x0, symName: __ZN5EigenL3allE, symObjAddr: 0x46A309, symBinAddr: 0x10006001B, symSize: 0x0 }
  - { offsetInCU: 0x5C62E, offset: 0x5C62E, size: 0x8, addend: 0x0, symName: __ZN5Eigen3fixILi1EEENS_8internal8FixedIntIXT_EEEv, symObjAddr: 0x74, symBinAddr: 0x100000A80, symSize: 0x20 }
  - { offsetInCU: 0x604FA, offset: 0x604FA, size: 0x8, addend: 0x0, symName: __ZNSt3__124__put_character_sequenceB7v160006IcNS_11char_traitsIcEEEERNS_13basic_ostreamIT_T0_EES7_PKS4_m, symObjAddr: 0x3CB4, symBinAddr: 0x1000046C0, symSize: 0x1EC }
  - { offsetInCU: 0x61362, offset: 0x61362, size: 0x8, addend: 0x0, symName: __ZNSt3__111__introsortINS_17_ClassicAlgPolicyERZN4LLSO8sort_vecEN5Eigen6MatrixIdLin1ELi1ELi0ELin1ELi1EEEEUliiE_PiEEvT1_S9_T0_NS_15iterator_traitsIS9_E15difference_typeE, symObjAddr: 0x6374, symBinAddr: 0x100006D80, symSize: 0x708 }
  - { offsetInCU: 0x61501, offset: 0x61501, size: 0x8, addend: 0x0, symName: __ZNSt3__118__insertion_sort_3B7v160006INS_17_ClassicAlgPolicyERZN4LLSO8sort_vecEN5Eigen6MatrixIdLin1ELi1ELi0ELin1ELi1EEEEUliiE_PiEEvT1_S9_T0_, symObjAddr: 0x6C10, symBinAddr: 0x10000761C, symSize: 0x150 }
  - { offsetInCU: 0x615D4, offset: 0x615D4, size: 0x8, addend: 0x0, symName: __ZNSt3__111__sift_downB7v160006INS_17_ClassicAlgPolicyERZN4LLSO8sort_vecEN5Eigen6MatrixIdLin1ELi1ELi0ELin1ELi1EEEEUliiE_PiEEvT1_OT0_NS_15iterator_traitsIS9_E15difference_typeES9_, symObjAddr: 0x79B0, symBinAddr: 0x1000083BC, symSize: 0x220 }
  - { offsetInCU: 0x61681, offset: 0x61681, size: 0x8, addend: 0x0, symName: __ZNSt3__117__floyd_sift_downB7v160006INS_17_ClassicAlgPolicyERZN4LLSO8sort_vecEN5Eigen6MatrixIdLin1ELi1ELi0ELin1ELi1EEEEUliiE_PiEET1_S9_OT0_NS_15iterator_traitsIS9_E15difference_typeE, symObjAddr: 0x7D54, symBinAddr: 0x100008760, symSize: 0x104 }
  - { offsetInCU: 0x61719, offset: 0x61719, size: 0x8, addend: 0x0, symName: __ZNSt3__127__insertion_sort_incompleteIRZN4LLSO8sort_vecEN5Eigen6MatrixIdLin1ELi1ELi0ELin1ELi1EEEEUliiE_PiEEbT0_S8_T_, symObjAddr: 0x6FB4, symBinAddr: 0x1000079C0, symSize: 0x324 }
  - { offsetInCU: 0x65F87, offset: 0x65F87, size: 0x8, addend: 0x0, symName: __ZNSt3__17advanceB7v160006IPimmvEEvRT_T0_, symObjAddr: 0x1B480, symBinAddr: 0x10001BE8C, symSize: 0x50 }
  - { offsetInCU: 0x66E45, offset: 0x66E45, size: 0x8, addend: 0x0, symName: __ZNSt3__14iotaB7v160006INS_11__wrap_iterIPiEEiEEvT_S4_T0_, symObjAddr: 0x11DC, symBinAddr: 0x100001BE8, symSize: 0x70 }
  - { offsetInCU: 0x66E9B, offset: 0x66E9B, size: 0x8, addend: 0x0, symName: __ZNSt3__1neB7v160006IPiEEbRKNS_11__wrap_iterIT_EES6_, symObjAddr: 0x25B4, symBinAddr: 0x100002FC0, symSize: 0x34 }
  - { offsetInCU: 0x66EDE, offset: 0x66EDE, size: 0x8, addend: 0x0, symName: __ZNSt3__14swapB7v160006IiEENS_9enable_ifIXaasr21is_move_constructibleIT_EE5valuesr18is_move_assignableIS2_EE5valueEvE4typeERS2_S5_, symObjAddr: 0x3520, symBinAddr: 0x100003F2C, symSize: 0x3C }
  - { offsetInCU: 0x66F2F, offset: 0x66F2F, size: 0x8, addend: 0x0, symName: __ZNSt3__1lsB7v160006INS_11char_traitsIcEEEERNS_13basic_ostreamIcT_EES6_PKc, symObjAddr: 0x3BE8, symBinAddr: 0x1000045F4, symSize: 0x48 }
  - { offsetInCU: 0x66F75, offset: 0x66F75, size: 0x8, addend: 0x0, symName: __ZNSt3__14endlB7v160006IcNS_11char_traitsIcEEEERNS_13basic_ostreamIT_T0_EES7_, symObjAddr: 0x3C5C, symBinAddr: 0x100004668, symSize: 0x58 }
  - { offsetInCU: 0x66FB5, offset: 0x66FB5, size: 0x8, addend: 0x0, symName: __ZNSt3__116__pad_and_outputB7v160006IcNS_11char_traitsIcEEEENS_19ostreambuf_iteratorIT_T0_EES6_PKS4_S8_S8_RNS_8ios_baseES4_, symObjAddr: 0x3EF0, symBinAddr: 0x1000048FC, symSize: 0x240 }
  - { offsetInCU: 0x67085, offset: 0x67085, size: 0x8, addend: 0x0, symName: __ZNSt3__119__debug_db_insert_cB7v160006INS_12basic_stringIcNS_11char_traitsIcEENS_9allocatorIcEEEEEEvPT_, symObjAddr: 0x43A4, symBinAddr: 0x100004DB0, symSize: 0x10 }
  - { offsetInCU: 0x670B6, offset: 0x670B6, size: 0x8, addend: 0x0, symName: __ZNSt3__112__to_addressB7v160006IKcEEPT_S3_, symObjAddr: 0x4470, symBinAddr: 0x100004E7C, symSize: 0x14 }
  - { offsetInCU: 0x6711E, offset: 0x6711E, size: 0x8, addend: 0x0, symName: __ZNSt3__19use_facetB7v160006INS_5ctypeIcEEEERKT_RKNS_6localeE, symObjAddr: 0x46F0, symBinAddr: 0x1000050FC, symSize: 0x2C }
  - { offsetInCU: 0x675EE, offset: 0x675EE, size: 0x8, addend: 0x0, symName: __ZNSt3__118__constexpr_strlenB7v160006EPKc, symObjAddr: 0x4788, symBinAddr: 0x100005194, symSize: 0x24 }
  - { offsetInCU: 0x6761A, offset: 0x6761A, size: 0x8, addend: 0x0, symName: __ZNSt3__14sortB7v160006IPiZN4LLSO8sort_vecEN5Eigen6MatrixIdLin1ELi1ELi0ELin1ELi1EEEEUliiE_EEvT_S7_T0_, symObjAddr: 0x487C, symBinAddr: 0x100005288, symSize: 0x34 }
  - { offsetInCU: 0x67675, offset: 0x67675, size: 0x8, addend: 0x0, symName: __ZNSt3__111__sort_implB7v160006INS_17_ClassicAlgPolicyEPiZN4LLSO8sort_vecEN5Eigen6MatrixIdLin1ELi1ELi0ELin1ELi1EEEEUliiE_EEvT0_S8_RT1_, symObjAddr: 0x6208, symBinAddr: 0x100006C14, symSize: 0x64 }
  - { offsetInCU: 0x6771D, offset: 0x6771D, size: 0x8, addend: 0x0, symName: __ZNSt3__123__debug_randomize_rangeB7v160006INS_17_ClassicAlgPolicyEPiS2_EEvT0_T1_, symObjAddr: 0x626C, symBinAddr: 0x100006C78, symSize: 0x14 }
  - { offsetInCU: 0x6776E, offset: 0x6776E, size: 0x8, addend: 0x0, symName: __ZNSt3__16__sortIRZN4LLSO8sort_vecEN5Eigen6MatrixIdLin1ELi1ELi0ELin1ELi1EEEEUliiE_PiEEvT0_S8_T_, symObjAddr: 0x6280, symBinAddr: 0x100006C8C, symSize: 0x68 }
  - { offsetInCU: 0x677FE, offset: 0x677FE, size: 0x8, addend: 0x0, symName: __ZNSt3__113__unwrap_iterB7v160006IPiNS_18__unwrap_iter_implIS1_Lb1EEELi0EEEDTclsrT0_8__unwrapclsr3stdE7declvalIT_EEEES5_, symObjAddr: 0x62E8, symBinAddr: 0x100006CF4, symSize: 0x24 }
  - { offsetInCU: 0x67842, offset: 0x67842, size: 0x8, addend: 0x0, symName: __ZNSt3__17__log2iB7v160006IlEET_S1_, symObjAddr: 0x630C, symBinAddr: 0x100006D18, symSize: 0x54 }
  - { offsetInCU: 0x678AC, offset: 0x678AC, size: 0x8, addend: 0x0, symName: __ZNSt3__112__libcpp_clzB7v160006Em, symObjAddr: 0x6A94, symBinAddr: 0x1000074A0, symSize: 0x1C }
  - { offsetInCU: 0x679A5, offset: 0x679A5, size: 0x8, addend: 0x0, symName: __ZNSt3__124__sort3_maybe_branchlessB7v160006INS_17_ClassicAlgPolicyERZN4LLSO8sort_vecEN5Eigen6MatrixIdLin1ELi1ELi0ELin1ELi1EEEEUliiE_PiEENS_9enable_ifIXntsr21__use_branchless_sortIT0_T1_EE5valueEvE4typeESB_SB_SB_SA_, symObjAddr: 0x6B44, symBinAddr: 0x100007550, symSize: 0x3C }
  - { offsetInCU: 0x67A16, offset: 0x67A16, size: 0x8, addend: 0x0, symName: __ZNSt3__124__sort4_maybe_branchlessB7v160006INS_17_ClassicAlgPolicyERZN4LLSO8sort_vecEN5Eigen6MatrixIdLin1ELi1ELi0ELin1ELi1EEEEUliiE_PiEENS_9enable_ifIXntsr21__use_branchless_sortIT0_T1_EE5valueEvE4typeESB_SB_SB_SB_SA_, symObjAddr: 0x6B80, symBinAddr: 0x10000758C, symSize: 0x44 }
  - { offsetInCU: 0x67A9B, offset: 0x67A9B, size: 0x8, addend: 0x0, symName: __ZNSt3__124__sort5_maybe_branchlessB7v160006INS_17_ClassicAlgPolicyERZN4LLSO8sort_vecEN5Eigen6MatrixIdLin1ELi1ELi0ELin1ELi1EEEEUliiE_PiEENS_9enable_ifIXntsr21__use_branchless_sortIT0_T1_EE5valueEvE4typeESB_SB_SB_SB_SB_SA_, symObjAddr: 0x6BC4, symBinAddr: 0x1000075D0, symSize: 0x4C }
  - { offsetInCU: 0x67B2F, offset: 0x67B2F, size: 0x8, addend: 0x0, symName: __ZNSt3__114__partial_sortB7v160006INS_17_ClassicAlgPolicyERZN4LLSO8sort_vecEN5Eigen6MatrixIdLin1ELi1ELi0ELin1ELi1EEEEUliiE_PiS8_EET1_S9_S9_T2_RT0_, symObjAddr: 0x6D60, symBinAddr: 0x10000776C, symSize: 0x94 }
  - { offsetInCU: 0x67BB7, offset: 0x67BB7, size: 0x8, addend: 0x0, symName: __ZNSt3__119__sort5_wrap_policyB7v160006INS_17_ClassicAlgPolicyERZN4LLSO8sort_vecEN5Eigen6MatrixIdLin1ELi1ELi0ELin1ELi1EEEEUliiE_PiEEjT1_S9_S9_S9_S9_T0_, symObjAddr: 0x6DF4, symBinAddr: 0x100007800, symSize: 0x54 }
  - { offsetInCU: 0x67C5D, offset: 0x67C5D, size: 0x8, addend: 0x0, symName: __ZNSt3__17__sort3B7v160006INS_17_ClassicAlgPolicyERZN4LLSO8sort_vecEN5Eigen6MatrixIdLin1ELi1ELi0ELin1ELi1EEEEUliiE_PiEEjT1_S9_S9_T0_, symObjAddr: 0x6E48, symBinAddr: 0x100007854, symSize: 0x16C }
  - { offsetInCU: 0x67CDC, offset: 0x67CDC, size: 0x8, addend: 0x0, symName: __ZNSt3__19iter_swapB7v160006IPiS1_EEvT_T0_, symObjAddr: 0x7674, symBinAddr: 0x100008080, symSize: 0x2C }
  - { offsetInCU: 0x67D24, offset: 0x67D24, size: 0x8, addend: 0x0, symName: __ZNSt3__17__sort4B7v160006INS_17_ClassicAlgPolicyERZN4LLSO8sort_vecEN5Eigen6MatrixIdLin1ELi1ELi0ELin1ELi1EEEEUliiE_PiEEjT1_S9_S9_S9_T0_, symObjAddr: 0x76A0, symBinAddr: 0x1000080AC, symSize: 0xFC }
  - { offsetInCU: 0x67DD5, offset: 0x67DD5, size: 0x8, addend: 0x0, symName: __ZNSt3__119__partial_sort_implB7v160006INS_17_ClassicAlgPolicyERZN4LLSO8sort_vecEN5Eigen6MatrixIdLin1ELi1ELi0ELin1ELi1EEEEUliiE_PiS8_EET1_S9_S9_T2_OT0_, symObjAddr: 0x77E0, symBinAddr: 0x1000081EC, symSize: 0x118 }
  - { offsetInCU: 0x67E6B, offset: 0x67E6B, size: 0x8, addend: 0x0, symName: __ZNSt3__111__make_heapB7v160006INS_17_ClassicAlgPolicyERZN4LLSO8sort_vecEN5Eigen6MatrixIdLin1ELi1ELi0ELin1ELi1EEEEUliiE_PiEEvT1_S9_OT0_, symObjAddr: 0x78F8, symBinAddr: 0x100008304, symSize: 0xB8 }
  - { offsetInCU: 0x67F0D, offset: 0x67F0D, size: 0x8, addend: 0x0, symName: __ZNSt3__111__sort_heapB7v160006INS_17_ClassicAlgPolicyERZN4LLSO8sort_vecEN5Eigen6MatrixIdLin1ELi1ELi0ELin1ELi1EEEEUliiE_PiEEvT1_S9_OT0_, symObjAddr: 0x7BD0, symBinAddr: 0x1000085DC, symSize: 0x90 }
  - { offsetInCU: 0x67FA1, offset: 0x67FA1, size: 0x8, addend: 0x0, symName: __ZNSt3__110__pop_heapB7v160006INS_17_ClassicAlgPolicyEZN4LLSO8sort_vecEN5Eigen6MatrixIdLin1ELi1ELi0ELin1ELi1EEEEUliiE_PiEEvT1_S8_RT0_NS_15iterator_traitsIS8_E15difference_typeE, symObjAddr: 0x7C60, symBinAddr: 0x10000866C, symSize: 0xF4 }
  - { offsetInCU: 0x68051, offset: 0x68051, size: 0x8, addend: 0x0, symName: __ZNSt3__19__sift_upB7v160006INS_17_ClassicAlgPolicyERZN4LLSO8sort_vecEN5Eigen6MatrixIdLin1ELi1ELi0ELin1ELi1EEEEUliiE_PiEEvT1_S9_OT0_NS_15iterator_traitsIS9_E15difference_typeE, symObjAddr: 0x7E58, symBinAddr: 0x100008864, symSize: 0x128 }
  - { offsetInCU: 0x68101, offset: 0x68101, size: 0x8, addend: 0x0, symName: __ZNSt3__17__sort5IRZN4LLSO8sort_vecEN5Eigen6MatrixIdLin1ELi1ELi0ELin1ELi1EEEEUliiE_PiEEjT0_S8_S8_S8_S8_T_, symObjAddr: 0x7F80, symBinAddr: 0x10000898C, symSize: 0x14C }
  - { offsetInCU: 0x681FF, offset: 0x681FF, size: 0x8, addend: 0x0, symName: __ZNSt3__112__to_addressB7v160006IiEEPT_S2_, symObjAddr: 0x80F0, symBinAddr: 0x100008AFC, symSize: 0x14 }
  - { offsetInCU: 0x68234, offset: 0x68234, size: 0x8, addend: 0x0, symName: __ZNSt3__13maxB7v160006IdEERKT_S3_S3_, symObjAddr: 0xE934, symBinAddr: 0x10000F340, symSize: 0x2C }
  - { offsetInCU: 0x68277, offset: 0x68277, size: 0x8, addend: 0x0, symName: __ZNSt3__13maxB7v160006IdNS_6__lessIddEEEERKT_S5_S5_T0_, symObjAddr: 0xE960, symBinAddr: 0x10000F36C, symSize: 0x54 }
  - { offsetInCU: 0x6830C, offset: 0x6830C, size: 0x8, addend: 0x0, symName: __ZNSt3__1eqB7v160006IPiEEbRKNS_11__wrap_iterIT_EES6_, symObjAddr: 0xE9E8, symBinAddr: 0x10000F3F4, symSize: 0x48 }
  - { offsetInCU: 0x6834F, offset: 0x6834F, size: 0x8, addend: 0x0, symName: __ZNSt3__13minB7v160006IdEERKT_S3_S3_, symObjAddr: 0xF4A0, symBinAddr: 0x10000FEAC, symSize: 0x2C }
  - { offsetInCU: 0x68392, offset: 0x68392, size: 0x8, addend: 0x0, symName: __ZNSt3__13minB7v160006IdNS_6__lessIddEEEERKT_S5_S5_T0_, symObjAddr: 0xF4CC, symBinAddr: 0x10000FED8, symSize: 0x54 }
  - { offsetInCU: 0x683ED, offset: 0x683ED, size: 0x8, addend: 0x0, symName: __ZNSt3__118__debug_db_erase_cB7v160006INS_6vectorIiNS_9allocatorIiEEEEEEvPT_, symObjAddr: 0xFCFC, symBinAddr: 0x100010708, symSize: 0x10 }
  - { offsetInCU: 0x6841E, offset: 0x6841E, size: 0x8, addend: 0x0, symName: __ZNSt3__119__libcpp_deallocateB7v160006EPvmm, symObjAddr: 0xFF24, symBinAddr: 0x100010930, symSize: 0x30 }
  - { offsetInCU: 0x68466, offset: 0x68466, size: 0x8, addend: 0x0, symName: __ZNSt3__127__do_deallocate_handle_sizeB7v160006IJEEEvPvmDpT_, symObjAddr: 0xFF54, symBinAddr: 0x100010960, symSize: 0x28 }
  - { offsetInCU: 0x684A5, offset: 0x684A5, size: 0x8, addend: 0x0, symName: __ZNSt3__124__libcpp_operator_deleteB7v160006IJPvEEEvDpT_, symObjAddr: 0xFF7C, symBinAddr: 0x100010988, symSize: 0x24 }
  - { offsetInCU: 0x684DB, offset: 0x684DB, size: 0x8, addend: 0x0, symName: __ZNSt3__118__debug_db_erase_cB7v160006INS_6vectorIdNS_9allocatorIdEEEEEEvPT_, symObjAddr: 0x10224, symBinAddr: 0x100010C30, symSize: 0x10 }
  - { offsetInCU: 0x6850C, offset: 0x6850C, size: 0x8, addend: 0x0, symName: __ZNSt3__112__to_addressB7v160006IdEEPT_S2_, symObjAddr: 0x10368, symBinAddr: 0x100010D74, symSize: 0x14 }
  - { offsetInCU: 0x68541, offset: 0x68541, size: 0x8, addend: 0x0, symName: __ZNSt3__122__make_exception_guardB7v160006INS_6vectorIiNS_9allocatorIiEEE16__destroy_vectorEEENS_28__exception_guard_exceptionsIT_EES7_, symObjAddr: 0x10644, symBinAddr: 0x100011050, symSize: 0x40 }
  - { offsetInCU: 0x68577, offset: 0x68577, size: 0x8, addend: 0x0, symName: __ZNSt3__119__debug_db_insert_cB7v160006INS_6vectorIiNS_9allocatorIiEEEEEEvPT_, symObjAddr: 0x10684, symBinAddr: 0x100011090, symSize: 0x10 }
  - { offsetInCU: 0x685A8, offset: 0x685A8, size: 0x8, addend: 0x0, symName: __ZNSt3__119__allocate_at_leastB7v160006INS_9allocatorIiEEEENS_19__allocation_resultINS_16allocator_traitsIT_E7pointerEEERS5_m, symObjAddr: 0x109F4, symBinAddr: 0x100011400, symSize: 0x40 }
  - { offsetInCU: 0x685EB, offset: 0x685EB, size: 0x8, addend: 0x0, symName: __ZNSt3__13minB7v160006ImEERKT_S3_S3_, symObjAddr: 0x10B08, symBinAddr: 0x100011514, symSize: 0x2C }
  - { offsetInCU: 0x68839, offset: 0x68839, size: 0x8, addend: 0x0, symName: __ZNSt3__13minB7v160006ImNS_6__lessImmEEEERKT_S5_S5_T0_, symObjAddr: 0x10B94, symBinAddr: 0x1000115A0, symSize: 0x54 }
  - { offsetInCU: 0x688CF, offset: 0x688CF, size: 0x8, addend: 0x0, symName: __ZNSt3__120__throw_length_errorB7v160006EPKc, symObjAddr: 0x10C70, symBinAddr: 0x10001167C, symSize: 0x64 }
  - { offsetInCU: 0x688F7, offset: 0x688F7, size: 0x8, addend: 0x0, symName: __ZNSt3__117__libcpp_allocateB7v160006Emm, symObjAddr: 0x10DE0, symBinAddr: 0x1000117EC, symSize: 0x28 }
  - { offsetInCU: 0x68934, offset: 0x68934, size: 0x8, addend: 0x0, symName: __ZNSt3__121__libcpp_operator_newB7v160006IJmEEEPvDpT_, symObjAddr: 0x10E08, symBinAddr: 0x100011814, symSize: 0x24 }
  - { offsetInCU: 0x6896D, offset: 0x6896D, size: 0x8, addend: 0x0, symName: __ZNSt3__16fill_nB7v160006IPdldEET_S2_T0_RKT1_, symObjAddr: 0x1490C, symBinAddr: 0x100015318, symSize: 0x44 }
  - { offsetInCU: 0x689D0, offset: 0x689D0, size: 0x8, addend: 0x0, symName: __ZNSt3__18__fill_nB7v160006IPdldEET_S2_T0_RKT1_, symObjAddr: 0x14968, symBinAddr: 0x100015374, symSize: 0x64 }
  - { offsetInCU: 0x68A33, offset: 0x68A33, size: 0x8, addend: 0x0, symName: __ZNSt3__121__convert_to_integralB7v160006El, symObjAddr: 0x149CC, symBinAddr: 0x1000153D8, symSize: 0x14 }
  - { offsetInCU: 0x68A60, offset: 0x68A60, size: 0x8, addend: 0x0, symName: __ZNSt3__119__debug_db_insert_cB7v160006INS_6vectorIN5Eigen6MatrixIdLin1ELin1ELi0ELin1ELin1EEENS_9allocatorIS4_EEEEEEvPT_, symObjAddr: 0x159C4, symBinAddr: 0x1000163D0, symSize: 0x10 }
  - { offsetInCU: 0x68A92, offset: 0x68A92, size: 0x8, addend: 0x0, symName: __ZNSt3__118__debug_db_erase_cB7v160006INS_6vectorIN5Eigen6MatrixIdLin1ELin1ELi0ELin1ELin1EEENS_9allocatorIS4_EEEEEEvPT_, symObjAddr: 0x15CA4, symBinAddr: 0x1000166B0, symSize: 0x10 }
  - { offsetInCU: 0x68AC3, offset: 0x68AC3, size: 0x8, addend: 0x0, symName: __ZNSt3__112__to_addressB7v160006IN5Eigen6MatrixIdLin1ELin1ELi0ELin1ELin1EEEEEPT_S5_, symObjAddr: 0x15DE8, symBinAddr: 0x1000167F4, symSize: 0x14 }
  - { offsetInCU: 0x68AF8, offset: 0x68AF8, size: 0x8, addend: 0x0, symName: __ZNSt3__13maxB7v160006ImEERKT_S3_S3_, symObjAddr: 0x167D0, symBinAddr: 0x1000171DC, symSize: 0x2C }
  - { offsetInCU: 0x68B3B, offset: 0x68B3B, size: 0x8, addend: 0x0, symName: __ZNSt3__13maxB7v160006ImNS_6__lessImmEEEERKT_S5_S5_T0_, symObjAddr: 0x16898, symBinAddr: 0x1000172A4, symSize: 0x54 }
  - { offsetInCU: 0x68B95, offset: 0x68B95, size: 0x8, addend: 0x0, symName: __ZNSt3__119__allocate_at_leastB7v160006INS_9allocatorIN5Eigen6MatrixIdLin1ELin1ELi0ELin1ELin1EEEEEEENS_19__allocation_resultINS_16allocator_traitsIT_E7pointerEEERS8_m, symObjAddr: 0x16A08, symBinAddr: 0x100017414, symSize: 0x40 }
  - { offsetInCU: 0x68BD8, offset: 0x68BD8, size: 0x8, addend: 0x0, symName: __ZNSt3__142__uninitialized_allocator_move_if_noexceptB7v160006INS_9allocatorIN5Eigen6MatrixIdLin1ELin1ELi0ELin1ELin1EEEEENS_16reverse_iteratorIPS4_EES8_S8_EET2_RT_T0_T1_S9_, symObjAddr: 0x16BC0, symBinAddr: 0x1000175CC, symSize: 0x12C }
  - { offsetInCU: 0x68C78, offset: 0x68C78, size: 0x8, addend: 0x0, symName: __ZNSt3__14swapB7v160006IPN5Eigen6MatrixIdLin1ELin1ELi0ELin1ELin1EEEEENS_9enable_ifIXaasr21is_move_constructibleIT_EE5valuesr18is_move_assignableIS6_EE5valueEvE4typeERS6_S9_, symObjAddr: 0x16D38, symBinAddr: 0x100017744, symSize: 0x3C }
  - { offsetInCU: 0x68CCA, offset: 0x68CCA, size: 0x8, addend: 0x0, symName: __ZNSt3__125__debug_db_invalidate_allB7v160006INS_6vectorIN5Eigen6MatrixIdLin1ELin1ELi0ELin1ELin1EEENS_9allocatorIS4_EEEEEEvPT_, symObjAddr: 0x16E3C, symBinAddr: 0x100017848, symSize: 0x10 }
  - { offsetInCU: 0x68CFB, offset: 0x68CFB, size: 0x8, addend: 0x0, symName: __ZNSt3__122__make_exception_guardB7v160006INS_29_AllocatorDestroyRangeReverseINS_9allocatorIN5Eigen6MatrixIdLin1ELin1ELi0ELin1ELin1EEEEENS_16reverse_iteratorIPS5_EEEEEENS_28__exception_guard_exceptionsIT_EESC_, symObjAddr: 0x16E4C, symBinAddr: 0x100017858, symSize: 0x4C }
  - { offsetInCU: 0x68D31, offset: 0x68D31, size: 0x8, addend: 0x0, symName: __ZNSt3__1neB7v160006IPN5Eigen6MatrixIdLin1ELin1ELi0ELin1ELin1EEES4_EEbRKNS_16reverse_iteratorIT_EERKNS5_IT0_EE, symObjAddr: 0x16EDC, symBinAddr: 0x1000178E8, symSize: 0x48 }
  - { offsetInCU: 0x68D7D, offset: 0x68D7D, size: 0x8, addend: 0x0, symName: __ZNSt3__112__to_addressB7v160006INS_16reverse_iteratorIPN5Eigen6MatrixIdLin1ELin1ELi0ELin1ELin1EEEEEvEENS_5decayIDTclsr19__to_address_helperIT_EE6__callclsr3stdE7declvalIRKS8_EEEEE4typeESA_, symObjAddr: 0x16F58, symBinAddr: 0x100017964, symSize: 0x24 }
  - { offsetInCU: 0x68DDD, offset: 0x68DDD, size: 0x8, addend: 0x0, symName: __ZNSt3__119__allocator_destroyB7v160006INS_9allocatorIN5Eigen6MatrixIdLin1ELin1ELi0ELin1ELin1EEEEENS_16reverse_iteratorINS6_IPS4_EEEES9_EEvRT_T0_T1_, symObjAddr: 0x17370, symBinAddr: 0x100017D7C, symSize: 0x70 }
  - { offsetInCU: 0x68E42, offset: 0x68E42, size: 0x8, addend: 0x0, symName: __ZNSt3__1neB7v160006INS_16reverse_iteratorIPN5Eigen6MatrixIdLin1ELin1ELi0ELin1ELin1EEEEES6_EEbRKNS1_IT_EERKNS1_IT0_EE, symObjAddr: 0x1741C, symBinAddr: 0x100017E28, symSize: 0x60 }
  - { offsetInCU: 0x68E8E, offset: 0x68E8E, size: 0x8, addend: 0x0, symName: __ZNSt3__112__to_addressB7v160006INS_16reverse_iteratorINS1_IPN5Eigen6MatrixIdLin1ELin1ELi0ELin1ELin1EEEEEEEvEENS_5decayIDTclsr19__to_address_helperIT_EE6__callclsr3stdE7declvalIRKS9_EEEEE4typeESB_, symObjAddr: 0x1747C, symBinAddr: 0x100017E88, symSize: 0x24 }
  - { offsetInCU: 0x68EEE, offset: 0x68EEE, size: 0x8, addend: 0x0, symName: __ZNSt3__142__uninitialized_allocator_move_if_noexceptB7v160006INS_9allocatorIiEENS_16reverse_iteratorIPiEES5_ivEET1_RT_T0_S9_S6_, symObjAddr: 0x1A91C, symBinAddr: 0x10001B328, symSize: 0x78 }
  - { offsetInCU: 0x68F6B, offset: 0x68F6B, size: 0x8, addend: 0x0, symName: __ZNSt3__14swapB7v160006IPiEENS_9enable_ifIXaasr21is_move_constructibleIT_EE5valuesr18is_move_assignableIS3_EE5valueEvE4typeERS3_S6_, symObjAddr: 0x1A9E0, symBinAddr: 0x10001B3EC, symSize: 0x3C }
  - { offsetInCU: 0x68FBD, offset: 0x68FBD, size: 0x8, addend: 0x0, symName: __ZNSt3__125__debug_db_invalidate_allB7v160006INS_6vectorIiNS_9allocatorIiEEEEEEvPT_, symObjAddr: 0x1AA1C, symBinAddr: 0x10001B428, symSize: 0x10 }
  - { offsetInCU: 0x68FEE, offset: 0x68FEE, size: 0x8, addend: 0x0, symName: __ZNSt3__14moveB7v160006INS_16reverse_iteratorIPiEES3_EET0_T_S5_S4_, symObjAddr: 0x1AA2C, symBinAddr: 0x10001B438, symSize: 0x78 }
  - { offsetInCU: 0x69048, offset: 0x69048, size: 0x8, addend: 0x0, symName: __ZNSt3__16__moveB7v160006INS_17_ClassicAlgPolicyENS_16reverse_iteratorIPiEES4_S4_EENS_4pairIT0_T2_EES6_T1_S7_, symObjAddr: 0x1AAA4, symBinAddr: 0x10001B4B0, symSize: 0x64 }
  - { offsetInCU: 0x690B4, offset: 0x690B4, size: 0x8, addend: 0x0, symName: __ZNSt3__123__dispatch_copy_or_moveB7v160006INS_17_ClassicAlgPolicyENS_11__move_loopIS1_EENS_14__move_trivialENS_16reverse_iteratorIPiEES7_S7_EENS_4pairIT2_T4_EES9_T3_SA_, symObjAddr: 0x1AB08, symBinAddr: 0x10001B514, symSize: 0x64 }
  - { offsetInCU: 0x69132, offset: 0x69132, size: 0x8, addend: 0x0, symName: __ZNSt3__121__unwrap_and_dispatchB7v160006INS_10__overloadINS_11__move_loopINS_17_ClassicAlgPolicyEEENS_14__move_trivialEEENS_16reverse_iteratorIPiEES9_S9_Li0EEENS_4pairIT0_T2_EESB_T1_SC_, symObjAddr: 0x1AB6C, symBinAddr: 0x10001B578, symSize: 0x12C }
  - { offsetInCU: 0x691C2, offset: 0x691C2, size: 0x8, addend: 0x0, symName: __ZNSt3__114__unwrap_rangeB7v160006INS_16reverse_iteratorIPiEES3_EENS_4pairIT0_S5_EET_S7_, symObjAddr: 0x1AC98, symBinAddr: 0x10001B6A4, symSize: 0x84 }
  - { offsetInCU: 0x69334, offset: 0x69334, size: 0x8, addend: 0x0, symName: __ZNSt3__113__unwrap_iterB7v160006INS_16reverse_iteratorIPiEENS_18__unwrap_iter_implIS3_Lb0EEELi0EEEDTclsrT0_8__unwrapclsr3stdE7declvalIT_EEEES7_, symObjAddr: 0x1ADBC, symBinAddr: 0x10001B7C8, symSize: 0x44 }
  - { offsetInCU: 0x69378, offset: 0x69378, size: 0x8, addend: 0x0, symName: __ZNSt3__19make_pairB7v160006INS_16reverse_iteratorIPiEES3_EENS_4pairINS_18__unwrap_ref_decayIT_E4typeENS5_IT0_E4typeEEEOS6_OS9_, symObjAddr: 0x1AE00, symBinAddr: 0x10001B80C, symSize: 0x38 }
  - { offsetInCU: 0x693C7, offset: 0x693C7, size: 0x8, addend: 0x0, symName: __ZNSt3__114__rewrap_rangeB7v160006INS_16reverse_iteratorIPiEES3_EET_S4_T0_, symObjAddr: 0x1AE38, symBinAddr: 0x10001B844, symSize: 0x5C }
  - { offsetInCU: 0x69413, offset: 0x69413, size: 0x8, addend: 0x0, symName: __ZNSt3__113__rewrap_iterB7v160006INS_16reverse_iteratorIPiEES3_NS_18__unwrap_iter_implIS3_Lb0EEEEET_S6_T0_, symObjAddr: 0x1AE94, symBinAddr: 0x10001B8A0, symSize: 0x74 }
  - { offsetInCU: 0x69468, offset: 0x69468, size: 0x8, addend: 0x0, symName: __ZNSt3__1neB7v160006IPiS1_EEbRKNS_16reverse_iteratorIT_EERKNS2_IT0_EE, symObjAddr: 0x1AF08, symBinAddr: 0x10001B914, symSize: 0x48 }
  - { offsetInCU: 0x694FC, offset: 0x694FC, size: 0x8, addend: 0x0, symName: __ZNSt3__18distanceB7v160006IPiEENS_15iterator_traitsIT_E15difference_typeES3_S3_, symObjAddr: 0x1B454, symBinAddr: 0x10001BE60, symSize: 0x2C }
  - { offsetInCU: 0x6953F, offset: 0x6953F, size: 0x8, addend: 0x0, symName: __ZNSt3__14copyB7v160006IPiS1_EET0_T_S3_S2_, symObjAddr: 0x1B4D0, symBinAddr: 0x10001BEDC, symSize: 0x40 }
  - { offsetInCU: 0x69599, offset: 0x69599, size: 0x8, addend: 0x0, symName: __ZNSt3__110__distanceB7v160006IPiEENS_15iterator_traitsIT_E15difference_typeES3_S3_NS_26random_access_iterator_tagE, symObjAddr: 0x1B688, symBinAddr: 0x10001C094, symSize: 0x28 }
  - { offsetInCU: 0x695E7, offset: 0x695E7, size: 0x8, addend: 0x0, symName: __ZNSt3__121__convert_to_integralB7v160006Em, symObjAddr: 0x1B6B0, symBinAddr: 0x10001C0BC, symSize: 0x14 }
  - { offsetInCU: 0x69614, offset: 0x69614, size: 0x8, addend: 0x0, symName: __ZNSt3__19__advanceB7v160006IPiEEvRT_NS_15iterator_traitsIS2_E15difference_typeENS_26random_access_iterator_tagE, symObjAddr: 0x1B6C4, symBinAddr: 0x10001C0D0, symSize: 0x28 }
  - { offsetInCU: 0x6965E, offset: 0x6965E, size: 0x8, addend: 0x0, symName: __ZNSt3__16__copyB7v160006INS_17_ClassicAlgPolicyEPiS2_S2_EENS_4pairIT0_T2_EES4_T1_S5_, symObjAddr: 0x1B6EC, symBinAddr: 0x10001C0F8, symSize: 0x44 }
  - { offsetInCU: 0x696CA, offset: 0x696CA, size: 0x8, addend: 0x0, symName: __ZNSt3__123__dispatch_copy_or_moveB7v160006INS_17_ClassicAlgPolicyENS_11__copy_loopIS1_EENS_14__copy_trivialEPiS5_S5_EENS_4pairIT2_T4_EES7_T3_S8_, symObjAddr: 0x1B730, symBinAddr: 0x10001C13C, symSize: 0x44 }
  - { offsetInCU: 0x69748, offset: 0x69748, size: 0x8, addend: 0x0, symName: __ZNSt3__121__unwrap_and_dispatchB7v160006INS_10__overloadINS_11__copy_loopINS_17_ClassicAlgPolicyEEENS_14__copy_trivialEEEPiS7_S7_Li0EEENS_4pairIT0_T2_EES9_T1_SA_, symObjAddr: 0x1B774, symBinAddr: 0x10001C180, symSize: 0xB4 }
  - { offsetInCU: 0x697D6, offset: 0x697D6, size: 0x8, addend: 0x0, symName: __ZNSt3__114__unwrap_rangeB7v160006IPiS1_EENS_4pairIT0_S3_EET_S5_, symObjAddr: 0x1B828, symBinAddr: 0x10001C234, symSize: 0x60 }
  - { offsetInCU: 0x6996B, offset: 0x6996B, size: 0x8, addend: 0x0, symName: __ZNSt3__19make_pairB7v160006IPiS1_EENS_4pairINS_18__unwrap_ref_decayIT_E4typeENS3_IT0_E4typeEEEOS4_OS7_, symObjAddr: 0x1B8D0, symBinAddr: 0x10001C2DC, symSize: 0x38 }
  - { offsetInCU: 0x699BA, offset: 0x699BA, size: 0x8, addend: 0x0, symName: __ZNSt3__114__rewrap_rangeB7v160006IPiS1_EET_S2_T0_, symObjAddr: 0x1B908, symBinAddr: 0x10001C314, symSize: 0x2C }
  - { offsetInCU: 0x69A06, offset: 0x69A06, size: 0x8, addend: 0x0, symName: __ZNSt3__113__rewrap_iterB7v160006IPiS1_NS_18__unwrap_iter_implIS1_Lb1EEEEET_S4_T0_, symObjAddr: 0x1B934, symBinAddr: 0x10001C340, symSize: 0x3C }
  - { offsetInCU: 0x69A5B, offset: 0x69A5B, size: 0x8, addend: 0x0, symName: __ZNSt3__119__copy_trivial_implB7v160006IiiEENS_4pairIPT_PT0_EES3_S3_S5_, symObjAddr: 0x1B970, symBinAddr: 0x10001C37C, symSize: 0x84 }
  - { offsetInCU: 0x69AC3, offset: 0x69AC3, size: 0x8, addend: 0x0, symName: __ZNSt3__19make_pairB7v160006IRPiS1_EENS_4pairINS_18__unwrap_ref_decayIT_E4typeENS4_IT0_E4typeEEEOS5_OS8_, symObjAddr: 0x1B9F4, symBinAddr: 0x10001C400, symSize: 0x38 }
  - { offsetInCU: 0x69B12, offset: 0x69B12, size: 0x8, addend: 0x0, symName: __ZNSt3__130__uninitialized_allocator_copyB7v160006INS_9allocatorIiEEPiS3_S3_EET2_RT_T0_T1_S4_, symObjAddr: 0x1BB5C, symBinAddr: 0x10001C568, symSize: 0xF4 }
  - { offsetInCU: 0x69BB0, offset: 0x69BB0, size: 0x8, addend: 0x0, symName: __ZNSt3__122__make_exception_guardB7v160006INS_29_AllocatorDestroyRangeReverseINS_9allocatorIiEEPiEEEENS_28__exception_guard_exceptionsIT_EES7_, symObjAddr: 0x1BC50, symBinAddr: 0x10001C65C, symSize: 0x4C }
  - { offsetInCU: 0x69BE6, offset: 0x69BE6, size: 0x8, addend: 0x0, symName: __ZNSt3__119__allocator_destroyB7v160006INS_9allocatorIiEENS_16reverse_iteratorIPiEES5_EEvRT_T0_T1_, symObjAddr: 0x1BED8, symBinAddr: 0x10001C8E4, symSize: 0x70 }
  - { offsetInCU: 0x69C49, offset: 0x69C49, size: 0x8, addend: 0x0, symName: __ZNSt3__112__to_addressB7v160006INS_16reverse_iteratorIPiEEvEENS_5decayIDTclsr19__to_address_helperIT_EE6__callclsr3stdE7declvalIRKS5_EEEEE4typeES7_, symObjAddr: 0x1BF48, symBinAddr: 0x10001C954, symSize: 0x24 }
  - { offsetInCU: 0x71EB6, offset: 0x71EB6, size: 0x8, addend: 0x0, symName: __ZSt28__throw_bad_array_new_lengthB7v160006v, symObjAddr: 0x10DAC, symBinAddr: 0x1000117B8, symSize: 0x34 }
  - { offsetInCU: 0x723A5, offset: 0x723A5, size: 0x8, addend: 0x0, symName: _swarmSize, symObjAddr: 0x23D00, symBinAddr: 0x100060000, symSize: 0x0 }
  - { offsetInCU: 0x723BB, offset: 0x723BB, size: 0x8, addend: 0x0, symName: _interval, symObjAddr: 0x23D04, symBinAddr: 0x100060004, symSize: 0x0 }
  - { offsetInCU: 0x723D1, offset: 0x723D1, size: 0x8, addend: 0x0, symName: _no_improve_tolerant, symObjAddr: 0x23D08, symBinAddr: 0x100060008, symSize: 0x0 }
  - { offsetInCU: 0x723E7, offset: 0x723E7, size: 0x8, addend: 0x0, symName: _termination_threshold, symObjAddr: 0x23D10, symBinAddr: 0x100060010, symSize: 0x0 }
  - { offsetInCU: 0x77D1B, offset: 0x77D1B, size: 0x8, addend: 0x0, symName: __ZN5Eigen8internal21dense_assignment_loopINS0_31generic_dense_assignment_kernelINS0_9evaluatorINS_6MatrixIdLin1ELin1ELi0ELin1ELin1EEEEENS3_INS_12ArrayWrapperIS5_EEEENS0_9assign_opIddEELi0EEELi3ELi0EE3runERSC_, symObjAddr: 0x17E88, symBinAddr: 0x100018894, symSize: 0xA8 }
  - { offsetInCU: 0x77E57, offset: 0x77E57, size: 0x8, addend: 0x0, symName: __ZN5Eigen8internal21dense_assignment_loopINS0_31generic_dense_assignment_kernelINS0_9evaluatorINS_6MatrixIdLin1ELin1ELi0ELin1ELin1EEEEENS3_INS_13CwiseBinaryOpINS0_13scalar_min_opIddLi0EEEKS5_KNS_14CwiseNullaryOpINS0_18scalar_constant_opIdEES5_EEEEEENS0_9assign_opIddEELi0EEELi3ELi0EE3runERSK_, symObjAddr: 0x18ACC, symBinAddr: 0x1000194D8, symSize: 0xA8 }
  - { offsetInCU: 0x77F66, offset: 0x77F66, size: 0x8, addend: 0x0, symName: __ZN5Eigen8internal21dense_assignment_loopINS0_31generic_dense_assignment_kernelINS0_9evaluatorINS_6MatrixIdLin1ELin1ELi0ELin1ELin1EEEEENS3_INS_13CwiseBinaryOpINS0_13scalar_max_opIddLi0EEEKS5_KNS_14CwiseNullaryOpINS0_18scalar_constant_opIdEES5_EEEEEENS0_9assign_opIddEELi0EEELi3ELi0EE3runERSK_, symObjAddr: 0x19B40, symBinAddr: 0x10001A54C, symSize: 0xA8 }
  - { offsetInCU: 0x78243, offset: 0x78243, size: 0x8, addend: 0x0, symName: __ZN5Eigen8internal21dense_assignment_loopINS0_31generic_dense_assignment_kernelINS0_9evaluatorINS_6MatrixIdLin1ELin1ELi0ELin1ELin1EEEEENS3_INS_13CwiseBinaryOpINS0_17scalar_product_opIddEEKS5_SA_EEEENS0_9assign_opIddEELi0EEELi3ELi0EE3runERSF_, symObjAddr: 0x1DF48, symBinAddr: 0x10001E954, symSize: 0xA8 }
  - { offsetInCU: 0x788D1, offset: 0x788D1, size: 0x8, addend: 0x0, symName: __ZN5Eigen8internal21dense_assignment_loopINS0_31generic_dense_assignment_kernelINS0_9evaluatorINS_6MatrixIdLin1ELin1ELi0ELin1ELin1EEEEENS3_INS_13CwiseBinaryOpINS0_17scalar_product_opIddEEKNS7_INS0_20scalar_difference_opIddEEKS5_SC_EEKNS_14CwiseNullaryOpINS0_18scalar_constant_opIdEESC_EEEEEENS0_13add_assign_opIddEELi0EEELi3ELi0EE3runERSO_, symObjAddr: 0x1EFC0, symBinAddr: 0x10001F9CC, symSize: 0xA8 }
  - { offsetInCU: 0x7899A, offset: 0x7899A, size: 0x8, addend: 0x0, symName: __ZN5Eigen8internal21dense_assignment_loopINS0_31generic_dense_assignment_kernelINS0_9evaluatorINS_6MatrixIdLin1ELin1ELi0ELin1ELin1EEEEES6_NS0_13add_assign_opIddEELi0EEELi3ELi0EE3runERS9_, symObjAddr: 0x200B8, symBinAddr: 0x100020AC4, symSize: 0xA8 }
  - { offsetInCU: 0x7AB83, offset: 0x7AB83, size: 0x8, addend: 0x0, symName: __ZNSt3__16vectorIN5Eigen6MatrixIdLin1ELin1ELi0ELin1ELin1EEENS_9allocatorIS3_EEE26__swap_out_circular_bufferERNS_14__split_bufferIS3_RS5_EE, symObjAddr: 0x16610, symBinAddr: 0x10001701C, symSize: 0x118 }
  - { offsetInCU: 0x7AC26, offset: 0x7AC26, size: 0x8, addend: 0x0, symName: __ZNSt3__16vectorIiNS_9allocatorIiEEE26__swap_out_circular_bufferERNS_14__split_bufferIiRS2_EE, symObjAddr: 0x1A5AC, symBinAddr: 0x10001AFB8, symSize: 0x118 }
  - { offsetInCU: 0x7D07C, offset: 0x7D07C, size: 0x8, addend: 0x0, symName: __ZN5Eigen8symbolic10SymbolExprINS_8internal17symbolic_last_tagEEC1Ev, symObjAddr: 0x0, symBinAddr: 0x100000A0C, symSize: 0x2C }
  - { offsetInCU: 0x7D0A6, offset: 0x7D0A6, size: 0x8, addend: 0x0, symName: __ZNK5Eigen8symbolic8BaseExprINS0_10SymbolExprINS_8internal17symbolic_last_tagEEEEplILi1EEENS0_7AddExprIS5_NS0_9ValueExprINS3_8FixedIntIXT_EEEEEEESB_, symObjAddr: 0x2C, symBinAddr: 0x100000A38, symSize: 0x48 }
  - { offsetInCU: 0x7D0E1, offset: 0x7D0E1, size: 0x8, addend: 0x0, symName: __ZN5Eigen8internal5all_tC1Ev, symObjAddr: 0x94, symBinAddr: 0x100000AA0, symSize: 0x2C }
  - { offsetInCU: 0x7D10A, offset: 0x7D10A, size: 0x8, addend: 0x0, symName: __Z14agent_functionP9Framework, symObjAddr: 0xC0, symBinAddr: 0x100000ACC, symSize: 0x10B8 }
  - { offsetInCU: 0x7D568, offset: 0x7D568, size: 0x8, addend: 0x0, symName: __ZNKSt3__16vectorIiNS_9allocatorIiEEE4sizeB7v160006Ev, symObjAddr: 0x1178, symBinAddr: 0x100001B84, symSize: 0x28 }
  - { offsetInCU: 0x7D58E, offset: 0x7D58E, size: 0x8, addend: 0x0, symName: __ZNSt3__16vectorIiNS_9allocatorIiEEEC1EmRKi, symObjAddr: 0x11A0, symBinAddr: 0x100001BAC, symSize: 0x3C }
  - { offsetInCU: 0x7D5D8, offset: 0x7D5D8, size: 0x8, addend: 0x0, symName: __ZNSt3__16vectorIiNS_9allocatorIiEEE5beginB7v160006Ev, symObjAddr: 0x124C, symBinAddr: 0x100001C58, symSize: 0x30 }
  - { offsetInCU: 0x7D600, offset: 0x7D600, size: 0x8, addend: 0x0, symName: __ZNSt3__16vectorIiNS_9allocatorIiEEE3endB7v160006Ev, symObjAddr: 0x127C, symBinAddr: 0x100001C88, symSize: 0x30 }
  - { offsetInCU: 0x7D628, offset: 0x7D628, size: 0x8, addend: 0x0, symName: __ZN5Eigen9DenseBaseINS_6MatrixIdLin1ELin1ELi0ELin1ELin1EEEE6RandomEll, symObjAddr: 0x12AC, symBinAddr: 0x100001CB8, symSize: 0x58 }
  - { offsetInCU: 0x7D65D, offset: 0x7D65D, size: 0x8, addend: 0x0, symName: __ZNK5Eigen10MatrixBaseINS_14CwiseNullaryOpINS_8internal16scalar_random_opIdEENS_6MatrixIdLin1ELin1ELi0ELin1ELin1EEEEEE5arrayEv, symObjAddr: 0x1304, symBinAddr: 0x100001D10, symSize: 0x38 }
  - { offsetInCU: 0x7D683, offset: 0x7D683, size: 0x8, addend: 0x0, symName: __ZNK5Eigen9ArrayBaseINS_12ArrayWrapperIKNS_14CwiseNullaryOpINS_8internal16scalar_random_opIdEENS_6MatrixIdLin1ELin1ELi0ELin1ELin1EEEEEEEEdvIiEEKNS_13CwiseBinaryOpINS3_18scalar_quotient_opIdNS3_18promote_scalar_argIdT_Xsr5Eigen8internal14has_ReturnTypeINS_20ScalarBinaryOpTraitsIdSG_NSE_IdSG_EEEEEE5valueEE4typeEEEKSA_KNS3_19plain_constant_typeISA_SL_E4typeEEERKSG_, symObjAddr: 0x133C, symBinAddr: 0x100001D48, symSize: 0xC0 }
  - { offsetInCU: 0x7D6C0, offset: 0x7D6C0, size: 0x8, addend: 0x0, symName: __ZNK5Eigen9ArrayBaseINS_13CwiseBinaryOpINS_8internal18scalar_quotient_opIddEEKNS_12ArrayWrapperIKNS_14CwiseNullaryOpINS2_16scalar_random_opIdEENS_6MatrixIdLin1ELin1ELi0ELin1ELin1EEEEEEEKNS6_INS2_18scalar_constant_opIdEEKNS_5ArrayIdLin1ELin1ELi0ELin1ELin1EEEEEEEEplIdEEKNS1_INS2_13scalar_sum_opIdNS2_18promote_scalar_argIdT_Xsr5Eigen8internal14has_ReturnTypeINS_20ScalarBinaryOpTraitsIdSR_NSP_IdSR_EEEEEE5valueEE4typeEEEKSM_KNS2_19plain_constant_typeISM_SW_E4typeEEERKSR_, symObjAddr: 0x13FC, symBinAddr: 0x100001E08, symSize: 0xA8 }
  - { offsetInCU: 0x7D6FD, offset: 0x7D6FD, size: 0x8, addend: 0x0, symName: __ZNK5Eigen9ArrayBaseINS_13CwiseBinaryOpINS_8internal13scalar_sum_opIddEEKNS1_INS2_18scalar_quotient_opIddEEKNS_12ArrayWrapperIKNS_14CwiseNullaryOpINS2_16scalar_random_opIdEENS_6MatrixIdLin1ELin1ELi0ELin1ELin1EEEEEEEKNS8_INS2_18scalar_constant_opIdEEKNS_5ArrayIdLin1ELin1ELi0ELin1ELin1EEEEEEESN_EEE5arrayEv, symObjAddr: 0x14A4, symBinAddr: 0x100001EB0, symSize: 0x14 }
  - { offsetInCU: 0x7D723, offset: 0x7D723, size: 0x8, addend: 0x0, symName: __ZNK5Eigen9ArrayBaseINS_13CwiseBinaryOpINS_8internal13scalar_sum_opIddEEKNS1_INS2_18scalar_quotient_opIddEEKNS_12ArrayWrapperIKNS_14CwiseNullaryOpINS2_16scalar_random_opIdEENS_6MatrixIdLin1ELin1ELi0ELin1ELin1EEEEEEEKNS8_INS2_18scalar_constant_opIdEEKNS_5ArrayIdLin1ELin1ELi0ELin1ELin1EEEEEEESN_EEEmlIdEEKNS1_INS2_17scalar_product_opIdNS2_18promote_scalar_argIdT_Xsr5Eigen8internal14has_ReturnTypeINS_20ScalarBinaryOpTraitsIdSV_NST_IdSV_EEEEEE5valueEE4typeEEEKSQ_KNS2_19plain_constant_typeISQ_S10_E4typeEEERKSV_, symObjAddr: 0x14B8, symBinAddr: 0x100001EC4, symSize: 0xA8 }
  - { offsetInCU: 0x7D760, offset: 0x7D760, size: 0x8, addend: 0x0, symName: __ZNK5Eigen9ArrayBaseINS_13CwiseBinaryOpINS_8internal17scalar_product_opIddEEKNS1_INS2_13scalar_sum_opIddEEKNS1_INS2_18scalar_quotient_opIddEEKNS_12ArrayWrapperIKNS_14CwiseNullaryOpINS2_16scalar_random_opIdEENS_6MatrixIdLin1ELin1ELi0ELin1ELin1EEEEEEEKNSA_INS2_18scalar_constant_opIdEEKNS_5ArrayIdLin1ELin1ELi0ELin1ELin1EEEEEEESP_EESP_EEEplIdEEKNS1_INS5_IdNS2_18promote_scalar_argIdT_Xsr5Eigen8internal14has_ReturnTypeINS_20ScalarBinaryOpTraitsIdSY_NS5_IdSY_EEEEEE5valueEE4typeEEEKSU_KNS2_19plain_constant_typeISU_S13_E4typeEEERKSY_, symObjAddr: 0x1560, symBinAddr: 0x100001F6C, symSize: 0xA8 }
  - { offsetInCU: 0x7D7A2, offset: 0x7D7A2, size: 0x8, addend: 0x0, symName: __ZN5Eigen6MatrixIdLin1ELin1ELi0ELin1ELin1EEC1INS_13CwiseBinaryOpINS_8internal13scalar_sum_opIddEEKNS3_INS4_17scalar_product_opIddEEKNS3_IS6_KNS3_INS4_18scalar_quotient_opIddEEKNS_12ArrayWrapperIKNS_14CwiseNullaryOpINS4_16scalar_random_opIdEES1_EEEEKNSC_INS4_18scalar_constant_opIdEEKNS_5ArrayIdLin1ELin1ELi0ELin1ELin1EEEEEEESP_EESP_EESP_EEEERKNS_9EigenBaseIT_EE, symObjAddr: 0x1608, symBinAddr: 0x100002014, symSize: 0x34 }
  - { offsetInCU: 0x7D7E4, offset: 0x7D7E4, size: 0x8, addend: 0x0, symName: __ZN5Eigen9DenseBaseINS_6MatrixIdLin1ELin1ELi0ELin1ELin1EEEE4ZeroEll, symObjAddr: 0x163C, symBinAddr: 0x100002048, symSize: 0x40 }
  - { offsetInCU: 0x7D81F, offset: 0x7D81F, size: 0x8, addend: 0x0, symName: __ZN5Eigen6MatrixIdLin1ELin1ELi0ELin1ELin1EEC1INS_14CwiseNullaryOpINS_8internal18scalar_constant_opIdEES1_EEEERKNS_9EigenBaseIT_EE, symObjAddr: 0x167C, symBinAddr: 0x100002088, symSize: 0x34 }
  - { offsetInCU: 0x7D861, offset: 0x7D861, size: 0x8, addend: 0x0, symName: __ZN5Eigen9DenseBaseINS_6MatrixIdLin1ELi1ELi0ELin1ELi1EEEE4ZeroEl, symObjAddr: 0x16B0, symBinAddr: 0x1000020BC, symSize: 0x38 }
  - { offsetInCU: 0x7D88D, offset: 0x7D88D, size: 0x8, addend: 0x0, symName: __ZN5Eigen6MatrixIdLin1ELi1ELi0ELin1ELi1EEC1INS_14CwiseNullaryOpINS_8internal18scalar_constant_opIdEES1_EEEERKNS_9EigenBaseIT_EE, symObjAddr: 0x16E8, symBinAddr: 0x1000020F4, symSize: 0x34 }
  - { offsetInCU: 0x7D8CF, offset: 0x7D8CF, size: 0x8, addend: 0x0, symName: __ZN5Eigen9DenseBaseINS_6MatrixIdLin1ELin1ELi0ELin1ELin1EEEE3rowEl, symObjAddr: 0x171C, symBinAddr: 0x100002128, symSize: 0x3C }
  - { offsetInCU: 0x7D909, offset: 0x7D909, size: 0x8, addend: 0x0, symName: __ZN5Eigen6MatrixIdLin1ELi1ELi0ELin1ELi1EEC1INS_5BlockINS0_IdLin1ELin1ELi0ELin1ELin1EEELi1ELin1ELb0EEEEERKNS_9EigenBaseIT_EE, symObjAddr: 0x1758, symBinAddr: 0x100002164, symSize: 0x34 }
  - { offsetInCU: 0x7D94B, offset: 0x7D94B, size: 0x8, addend: 0x0, symName: __ZN5Eigen15PlainObjectBaseINS_6MatrixIdLin1ELi1ELi0ELin1ELi1EEEE4dataEv, symObjAddr: 0x178C, symBinAddr: 0x100002198, symSize: 0x24 }
  - { offsetInCU: 0x7D971, offset: 0x7D971, size: 0x8, addend: 0x0, symName: __ZN5Eigen15DenseCoeffsBaseINS_6MatrixIdLin1ELi1ELi0ELin1ELi1EEELi1EEclEl, symObjAddr: 0x17B0, symBinAddr: 0x1000021BC, symSize: 0xA4 }
  - { offsetInCU: 0x7D9A6, offset: 0x7D9A6, size: 0x8, addend: 0x0, symName: __ZN5Eigen6MatrixIdLin1ELi1ELi0ELin1ELi1EED1Ev, symObjAddr: 0x1854, symBinAddr: 0x100002260, symSize: 0x2C }
  - { offsetInCU: 0x7DAD7, offset: 0x7DAD7, size: 0x8, addend: 0x0, symName: __ZN4LLSOC1Ev, symObjAddr: 0x1880, symBinAddr: 0x10000228C, symSize: 0x2C }
  - { offsetInCU: 0x7DB01, offset: 0x7DB01, size: 0x8, addend: 0x0, symName: __ZNK5Eigen9DenseBaseINS_6MatrixIdLin1ELi1ELi0ELin1ELi1EEEE8minCoeffEv, symObjAddr: 0x18AC, symBinAddr: 0x1000022B8, symSize: 0x24 }
  - { offsetInCU: 0x7DB27, offset: 0x7DB27, size: 0x8, addend: 0x0, symName: __ZNSt3__16vectorIN5Eigen6MatrixIdLin1ELin1ELi0ELin1ELin1EEENS_9allocatorIS3_EEEC1B7v160006Ev, symObjAddr: 0x18D0, symBinAddr: 0x1000022DC, symSize: 0x2C }
  - { offsetInCU: 0x7DB51, offset: 0x7DB51, size: 0x8, addend: 0x0, symName: __ZN5Eigen6MatrixIdLin1ELin1ELi0ELin1ELin1EEC1IiiEERKT_RKT0_, symObjAddr: 0x18FC, symBinAddr: 0x100002308, symSize: 0x3C }
  - { offsetInCU: 0x7DBAB, offset: 0x7DBAB, size: 0x8, addend: 0x0, symName: __ZNSt3__16vectorIN5Eigen6MatrixIdLin1ELin1ELi0ELin1ELin1EEENS_9allocatorIS3_EEE9push_backB7v160006ERKS3_, symObjAddr: 0x1938, symBinAddr: 0x100002344, symSize: 0x6C }
  - { offsetInCU: 0x7DBE2, offset: 0x7DBE2, size: 0x8, addend: 0x0, symName: __ZNSt3__16vectorIN5Eigen6MatrixIdLin1ELin1ELi0ELin1ELin1EEENS_9allocatorIS3_EEEixB7v160006Em, symObjAddr: 0x19A4, symBinAddr: 0x1000023B0, symSize: 0x2C }
  - { offsetInCU: 0x7DC19, offset: 0x7DC19, size: 0x8, addend: 0x0, symName: __ZN5Eigen15PlainObjectBaseINS_6MatrixIdLin1ELin1ELi0ELin1ELin1EEEE4dataEv, symObjAddr: 0x19D0, symBinAddr: 0x1000023DC, symSize: 0x24 }
  - { offsetInCU: 0x7DC3F, offset: 0x7DC3F, size: 0x8, addend: 0x0, symName: __ZNSt3__16vectorIiNS_9allocatorIiEEEixB7v160006Em, symObjAddr: 0x19F4, symBinAddr: 0x100002400, symSize: 0x24 }
  - { offsetInCU: 0x7DC76, offset: 0x7DC76, size: 0x8, addend: 0x0, symName: __ZN5Eigen6MatrixIdLin1ELin1ELi0ELin1ELin1EED1Ev, symObjAddr: 0x1A18, symBinAddr: 0x100002424, symSize: 0x2C }
  - { offsetInCU: 0x7DCA2, offset: 0x7DCA2, size: 0x8, addend: 0x0, symName: __ZN5Eigen10MatrixBaseINS_6MatrixIdLin1ELin1ELi0ELin1ELin1EEEE5arrayEv, symObjAddr: 0x1A44, symBinAddr: 0x100002450, symSize: 0x34 }
  - { offsetInCU: 0x7DCCD, offset: 0x7DCCD, size: 0x8, addend: 0x0, symName: __ZN5Eigen6MatrixIdLin1ELin1ELi0ELin1ELin1EEC1INS_12ArrayWrapperIS1_EEEERKNS_9EigenBaseIT_EE, symObjAddr: 0x1A78, symBinAddr: 0x100002484, symSize: 0x34 }
  - { offsetInCU: 0x7DD0F, offset: 0x7DD0F, size: 0x8, addend: 0x0, symName: __ZN4LLSO4stepEPN5Eigen6MatrixIdLin1ELin1ELi0ELin1ELin1EEES3_NS1_IdLin1ELi1ELi0ELin1ELi1EEE, symObjAddr: 0x1AAC, symBinAddr: 0x1000024B8, symSize: 0x880 }
  - { offsetInCU: 0x7DE64, offset: 0x7DE64, size: 0x8, addend: 0x0, symName: __ZN5Eigen6MatrixIdLin1ELi1ELi0ELin1ELi1EEC1ERKS1_, symObjAddr: 0x232C, symBinAddr: 0x100002D38, symSize: 0x34 }
  - { offsetInCU: 0x7DE9D, offset: 0x7DE9D, size: 0x8, addend: 0x0, symName: __ZNK5Eigen10MatrixBaseINS_6MatrixIdLin1ELin1ELi0ELin1ELin1EEEE8cwiseMinERKd, symObjAddr: 0x2360, symBinAddr: 0x100002D6C, symSize: 0x6C }
  - { offsetInCU: 0x7DED1, offset: 0x7DED1, size: 0x8, addend: 0x0, symName: __ZN5Eigen6MatrixIdLin1ELin1ELi0ELin1ELin1EEaSINS_13CwiseBinaryOpINS_8internal13scalar_min_opIddLi0EEEKS1_KNS_14CwiseNullaryOpINS4_18scalar_constant_opIdEES1_EEEEEERS1_RKNS_9DenseBaseIT_EE, symObjAddr: 0x23CC, symBinAddr: 0x100002DD8, symSize: 0x2C }
  - { offsetInCU: 0x7DF0E, offset: 0x7DF0E, size: 0x8, addend: 0x0, symName: __ZNK5Eigen10MatrixBaseINS_6MatrixIdLin1ELin1ELi0ELin1ELin1EEEE8cwiseMaxERKd, symObjAddr: 0x23F8, symBinAddr: 0x100002E04, symSize: 0x6C }
  - { offsetInCU: 0x7DF42, offset: 0x7DF42, size: 0x8, addend: 0x0, symName: __ZN5Eigen6MatrixIdLin1ELin1ELi0ELin1ELin1EEaSINS_13CwiseBinaryOpINS_8internal13scalar_max_opIddLi0EEEKS1_KNS_14CwiseNullaryOpINS4_18scalar_constant_opIdEES1_EEEEEERS1_RKNS_9DenseBaseIT_EE, symObjAddr: 0x2464, symBinAddr: 0x100002E70, symSize: 0x2C }
  - { offsetInCU: 0x7DF7F, offset: 0x7DF7F, size: 0x8, addend: 0x0, symName: __ZN4LLSO18update_performanceEN5Eigen6MatrixIdLin1ELi1ELi0ELin1ELi1EEE, symObjAddr: 0x2490, symBinAddr: 0x100002E9C, symSize: 0x124 }
  - { offsetInCU: 0x7DFB4, offset: 0x7DFB4, size: 0x8, addend: 0x0, symName: __ZNKSt3__111__wrap_iterIPiEdeB7v160006Ev, symObjAddr: 0x25E8, symBinAddr: 0x100002FF4, symSize: 0x18 }
  - { offsetInCU: 0x7DFDA, offset: 0x7DFDA, size: 0x8, addend: 0x0, symName: __ZNSt3__111__wrap_iterIPiEppB7v160006Ev, symObjAddr: 0x2600, symBinAddr: 0x10000300C, symSize: 0x20 }
  - { offsetInCU: 0x7E000, offset: 0x7E000, size: 0x8, addend: 0x0, symName: __ZNSt3__16vectorIiNS_9allocatorIiEEEC1B7v160006Ev, symObjAddr: 0x2620, symBinAddr: 0x10000302C, symSize: 0x2C }
  - { offsetInCU: 0x7E02A, offset: 0x7E02A, size: 0x8, addend: 0x0, symName: __ZNSt3__16vectorIiNS_9allocatorIiEEE9push_backB7v160006ERKi, symObjAddr: 0x264C, symBinAddr: 0x100003058, symSize: 0x6C }
  - { offsetInCU: 0x7E061, offset: 0x7E061, size: 0x8, addend: 0x0, symName: __ZNSt3__16vectorIiNS_9allocatorIiEEEaSB7v160006ERKS3_, symObjAddr: 0x26B8, symBinAddr: 0x1000030C4, symSize: 0x68 }
  - { offsetInCU: 0x7E098, offset: 0x7E098, size: 0x8, addend: 0x0, symName: __ZNK5Eigen9DenseBaseINS_13CwiseBinaryOpINS_8internal13scalar_sum_opIddEEKNS1_INS2_18scalar_quotient_opIddEEKNS_12ArrayWrapperIKNS_14CwiseNullaryOpINS2_16scalar_random_opIdEENS_6MatrixIdLin1ELin1ELi0ELin1ELin1EEEEEEEKNS8_INS2_18scalar_constant_opIdEEKNS_5ArrayIdLin1ELin1ELi0ELin1ELin1EEEEEEESN_EEE9replicateEll, symObjAddr: 0x2720, symBinAddr: 0x10000312C, symSize: 0x48 }
  - { offsetInCU: 0x7E0E1, offset: 0x7E0E1, size: 0x8, addend: 0x0, symName: __ZN5Eigen6MatrixIdLin1ELin1ELi0ELin1ELin1EEC1INS_9ReplicateINS_13CwiseBinaryOpINS_8internal13scalar_sum_opIddEEKNS4_INS5_18scalar_quotient_opIddEEKNS_12ArrayWrapperIKNS_14CwiseNullaryOpINS5_16scalar_random_opIdEES1_EEEEKNSB_INS5_18scalar_constant_opIdEEKNS_5ArrayIdLin1ELin1ELi0ELin1ELin1EEEEEEESO_EELin1ELin1EEEEERKNS_9EigenBaseIT_EE, symObjAddr: 0x2768, symBinAddr: 0x100003174, symSize: 0x34 }
  - { offsetInCU: 0x7E123, offset: 0x7E123, size: 0x8, addend: 0x0, symName: __ZNK5Eigen10MatrixBaseINS_6MatrixIdLin1ELin1ELi0ELin1ELin1EEEE12cwiseProductIS2_EEKNS_13CwiseBinaryOpINS_8internal17scalar_product_opIdNS6_6traitsIT_E6ScalarEEEKS2_KS9_EERKNS0_IS9_EE, symObjAddr: 0x279C, symBinAddr: 0x1000031A8, symSize: 0x60 }
  - { offsetInCU: 0x7E160, offset: 0x7E160, size: 0x8, addend: 0x0, symName: __ZN5Eigen6MatrixIdLin1ELin1ELi0ELin1ELin1EEaSINS_13CwiseBinaryOpINS_8internal17scalar_product_opIddEEKS1_S7_EEEERS1_RKNS_9DenseBaseIT_EE, symObjAddr: 0x27FC, symBinAddr: 0x100003208, symSize: 0x2C }
  - { offsetInCU: 0x7E19D, offset: 0x7E19D, size: 0x8, addend: 0x0, symName: __ZNK5Eigen10MatrixBaseINS_6MatrixIdLin1ELin1ELi0ELin1ELin1EEEEmiIS2_EEKNS_13CwiseBinaryOpINS_8internal20scalar_difference_opIdNS6_6traitsIT_E6ScalarEEEKS2_KS9_EERKNS0_IS9_EE, symObjAddr: 0x2828, symBinAddr: 0x100003234, symSize: 0x60 }
  - { offsetInCU: 0x7E1DA, offset: 0x7E1DA, size: 0x8, addend: 0x0, symName: __ZNK5Eigen10MatrixBaseINS_13CwiseBinaryOpINS_8internal20scalar_difference_opIddEEKNS_6MatrixIdLin1ELin1ELi0ELin1ELin1EEES7_EEEmlIdEEKNS1_INS2_17scalar_product_opIdNS2_18promote_scalar_argIdT_Xsr5Eigen8internal14has_ReturnTypeINS_20ScalarBinaryOpTraitsIdSD_NSB_IdSD_EEEEEE5valueEE4typeEEEKS8_KNS2_19plain_constant_typeIS8_SI_E4typeEEERKSD_, symObjAddr: 0x2888, symBinAddr: 0x100003294, symSize: 0xA8 }
  - { offsetInCU: 0x7E217, offset: 0x7E217, size: 0x8, addend: 0x0, symName: __ZNSt3__16vectorIdNS_9allocatorIdEEEixB7v160006Em, symObjAddr: 0x2930, symBinAddr: 0x10000333C, symSize: 0x24 }
  - { offsetInCU: 0x7E24E, offset: 0x7E24E, size: 0x8, addend: 0x0, symName: __ZN5Eigen10MatrixBaseINS_6MatrixIdLin1ELin1ELi0ELin1ELin1EEEEpLINS_13CwiseBinaryOpINS_8internal17scalar_product_opIddEEKNS5_INS6_20scalar_difference_opIddEEKS2_SB_EEKNS_14CwiseNullaryOpINS6_18scalar_constant_opIdEESB_EEEEEERS2_RKNS0_IT_EE, symObjAddr: 0x2954, symBinAddr: 0x100003360, symSize: 0x64 }
  - { offsetInCU: 0x7E28D, offset: 0x7E28D, size: 0x8, addend: 0x0, symName: __ZN5Eigen10MatrixBaseINS_6MatrixIdLin1ELin1ELi0ELin1ELin1EEEEpLIS2_EERS2_RKNS0_IT_EE, symObjAddr: 0x29B8, symBinAddr: 0x1000033C4, symSize: 0x64 }
  - { offsetInCU: 0x7E2CC, offset: 0x7E2CC, size: 0x8, addend: 0x0, symName: __ZNK5Eigen9ArrayBaseINS_12ArrayWrapperINS_6MatrixIdLin1ELin1ELi0ELin1ELin1EEEEEE3absEv, symObjAddr: 0x2A1C, symBinAddr: 0x100003428, symSize: 0x4C }
  - { offsetInCU: 0x7E2F2, offset: 0x7E2F2, size: 0x8, addend: 0x0, symName: __ZNK5Eigen9DenseBaseINS_12CwiseUnaryOpINS_8internal13scalar_abs_opIdEEKNS_12ArrayWrapperINS_6MatrixIdLin1ELin1ELi0ELin1ELin1EEEEEEEE3sumEv, symObjAddr: 0x2A68, symBinAddr: 0x100003474, symSize: 0x74 }
  - { offsetInCU: 0x7E31B, offset: 0x7E31B, size: 0x8, addend: 0x0, symName: __ZNSt3__16vectorIiNS_9allocatorIiEEED1B7v160006Ev, symObjAddr: 0x2ADC, symBinAddr: 0x1000034E8, symSize: 0x2C }
  - { offsetInCU: 0x7E345, offset: 0x7E345, size: 0x8, addend: 0x0, symName: __ZN5Eigen9DenseBaseINS_6MatrixIdLin1ELin1ELi0ELin1ELin1EEEE7colwiseEv, symObjAddr: 0x2B08, symBinAddr: 0x100003514, symSize: 0x34 }
  - { offsetInCU: 0x7E36E, offset: 0x7E36E, size: 0x8, addend: 0x0, symName: __ZNK5Eigen12VectorwiseOpINS_6MatrixIdLin1ELin1ELi0ELin1ELin1EEELi0EE4meanEv, symObjAddr: 0x2B3C, symBinAddr: 0x100003548, symSize: 0x60 }
  - { offsetInCU: 0x7E399, offset: 0x7E399, size: 0x8, addend: 0x0, symName: __ZN5Eigen6MatrixIdLin1ELi1ELi0ELin1ELi1EEC1INS_13CwiseBinaryOpINS_8internal18scalar_quotient_opIddEEKNS_16PartialReduxExprINS0_IdLin1ELin1ELi0ELin1ELin1EEENS4_10member_sumIddEELi0EEEKNS_14CwiseNullaryOpINS4_18scalar_constant_opIdEEKNS0_IdLi1ELin1ELi1ELi1ELin1EEEEEEEEERKNS_9EigenBaseIT_EE, symObjAddr: 0x2B9C, symBinAddr: 0x1000035A8, symSize: 0x34 }
  - { offsetInCU: 0x7E3DB, offset: 0x7E3DB, size: 0x8, addend: 0x0, symName: __ZNSt3__16vectorIN5Eigen6MatrixIdLin1ELin1ELi0ELin1ELin1EEENS_9allocatorIS3_EEED1B7v160006Ev, symObjAddr: 0x2BD0, symBinAddr: 0x1000035DC, symSize: 0x2C }
  - { offsetInCU: 0x7E405, offset: 0x7E405, size: 0x8, addend: 0x0, symName: __ZNSt3__16vectorIdNS_9allocatorIdEEED1B7v160006Ev, symObjAddr: 0x2BFC, symBinAddr: 0x100003608, symSize: 0x2C }
  - { offsetInCU: 0x7E42F, offset: 0x7E42F, size: 0x8, addend: 0x0, symName: __ZN5Eigen8internal5all_tC2Ev, symObjAddr: 0x2C28, symBinAddr: 0x100003634, symSize: 0x14 }
  - { offsetInCU: 0x7E459, offset: 0x7E459, size: 0x8, addend: 0x0, symName: __ZN5Eigen6MatrixIdLin1ELi1ELi0ELin1ELi1EED2Ev, symObjAddr: 0x2C3C, symBinAddr: 0x100003648, symSize: 0x2C }
  - { offsetInCU: 0x7E485, offset: 0x7E485, size: 0x8, addend: 0x0, symName: __ZN5Eigen15PlainObjectBaseINS_6MatrixIdLin1ELi1ELi0ELin1ELi1EEEED2Ev, symObjAddr: 0x2C68, symBinAddr: 0x100003674, symSize: 0x2C }
  - { offsetInCU: 0x7E4B1, offset: 0x7E4B1, size: 0x8, addend: 0x0, symName: __ZN5Eigen12DenseStorageIdLin1ELin1ELi1ELi0EED1Ev, symObjAddr: 0x2C94, symBinAddr: 0x1000036A0, symSize: 0x2C }
  - { offsetInCU: 0x7E4DB, offset: 0x7E4DB, size: 0x8, addend: 0x0, symName: __ZN5Eigen12DenseStorageIdLin1ELin1ELi1ELi0EED2Ev, symObjAddr: 0x2CC0, symBinAddr: 0x1000036CC, symSize: 0x44 }
  - { offsetInCU: 0x7E505, offset: 0x7E505, size: 0x8, addend: 0x0, symName: __ZN4LLSOC2Ev, symObjAddr: 0x2D80, symBinAddr: 0x10000378C, symSize: 0x10C }
  - { offsetInCU: 0x7E54B, offset: 0x7E54B, size: 0x8, addend: 0x0, symName: __ZN5Eigen6MatrixIdLin1ELin1ELi0ELin1ELin1EED2Ev, symObjAddr: 0x2E8C, symBinAddr: 0x100003898, symSize: 0x2C }
  - { offsetInCU: 0x7E577, offset: 0x7E577, size: 0x8, addend: 0x0, symName: __ZN5Eigen15PlainObjectBaseINS_6MatrixIdLin1ELin1ELi0ELin1ELin1EEEED2Ev, symObjAddr: 0x2EB8, symBinAddr: 0x1000038C4, symSize: 0x2C }
  - { offsetInCU: 0x7E5A3, offset: 0x7E5A3, size: 0x8, addend: 0x0, symName: __ZN5Eigen12DenseStorageIdLin1ELin1ELin1ELi0EED1Ev, symObjAddr: 0x2EE4, symBinAddr: 0x1000038F0, symSize: 0x2C }
  - { offsetInCU: 0x7E5CD, offset: 0x7E5CD, size: 0x8, addend: 0x0, symName: __ZN5Eigen12DenseStorageIdLin1ELin1ELin1ELi0EED2Ev, symObjAddr: 0x2F10, symBinAddr: 0x10000391C, symSize: 0x44 }
  - { offsetInCU: 0x7E5F7, offset: 0x7E5F7, size: 0x8, addend: 0x0, symName: __ZNK5Eigen15PlainObjectBaseINS_6MatrixIdLin1ELin1ELi0ELin1ELin1EEEE4rowsEv, symObjAddr: 0x2F54, symBinAddr: 0x100003960, symSize: 0x24 }
  - { offsetInCU: 0x7E61D, offset: 0x7E61D, size: 0x8, addend: 0x0, symName: __ZNK5Eigen15PlainObjectBaseINS_6MatrixIdLin1ELin1ELi0ELin1ELin1EEEE4colsEv, symObjAddr: 0x2F78, symBinAddr: 0x100003984, symSize: 0x24 }
  - { offsetInCU: 0x7E643, offset: 0x7E643, size: 0x8, addend: 0x0, symName: __ZN4LLSO17select_level_sizeEPd, symObjAddr: 0x2F9C, symBinAddr: 0x1000039A8, symSize: 0x3F0 }
  - { offsetInCU: 0x7E758, offset: 0x7E758, size: 0x8, addend: 0x0, symName: __ZN4LLSO8sort_vecEN5Eigen6MatrixIdLin1ELi1ELi0ELin1ELi1EEE, symObjAddr: 0x338C, symBinAddr: 0x100003D98, symSize: 0x194 }
  - { offsetInCU: 0x7E7F8, offset: 0x7E7F8, size: 0x8, addend: 0x0, symName: __ZN5Eigen9DenseBaseINS_6MatrixIdLin1ELi1ELi0ELin1ELi1EEEE6RandomEll, symObjAddr: 0x355C, symBinAddr: 0x100003F68, symSize: 0x58 }
  - { offsetInCU: 0x7E82D, offset: 0x7E82D, size: 0x8, addend: 0x0, symName: __ZNK5Eigen10MatrixBaseINS_14CwiseNullaryOpINS_8internal16scalar_random_opIdEENS_6MatrixIdLin1ELi1ELi0ELin1ELi1EEEEEE5arrayEv, symObjAddr: 0x35B4, symBinAddr: 0x100003FC0, symSize: 0x38 }
  - { offsetInCU: 0x7E853, offset: 0x7E853, size: 0x8, addend: 0x0, symName: __ZNK5Eigen9ArrayBaseINS_12ArrayWrapperIKNS_14CwiseNullaryOpINS_8internal16scalar_random_opIdEENS_6MatrixIdLin1ELi1ELi0ELin1ELi1EEEEEEEEdvIiEEKNS_13CwiseBinaryOpINS3_18scalar_quotient_opIdNS3_18promote_scalar_argIdT_Xsr5Eigen8internal14has_ReturnTypeINS_20ScalarBinaryOpTraitsIdSG_NSE_IdSG_EEEEEE5valueEE4typeEEEKSA_KNS3_19plain_constant_typeISA_SL_E4typeEEERKSG_, symObjAddr: 0x35EC, symBinAddr: 0x100003FF8, symSize: 0xC0 }
  - { offsetInCU: 0x7E890, offset: 0x7E890, size: 0x8, addend: 0x0, symName: __ZNK5Eigen9ArrayBaseINS_13CwiseBinaryOpINS_8internal18scalar_quotient_opIddEEKNS_12ArrayWrapperIKNS_14CwiseNullaryOpINS2_16scalar_random_opIdEENS_6MatrixIdLin1ELi1ELi0ELin1ELi1EEEEEEEKNS6_INS2_18scalar_constant_opIdEEKNS_5ArrayIdLin1ELi1ELi0ELin1ELi1EEEEEEEEplIdEEKNS1_INS2_13scalar_sum_opIdNS2_18promote_scalar_argIdT_Xsr5Eigen8internal14has_ReturnTypeINS_20ScalarBinaryOpTraitsIdSR_NSP_IdSR_EEEEEE5valueEE4typeEEEKSM_KNS2_19plain_constant_typeISM_SW_E4typeEEERKSR_, symObjAddr: 0x36AC, symBinAddr: 0x1000040B8, symSize: 0xA8 }
  - { offsetInCU: 0x7E8D2, offset: 0x7E8D2, size: 0x8, addend: 0x0, symName: __ZN5Eigen6MatrixIdLin1ELi1ELi0ELin1ELi1EEC1INS_13CwiseBinaryOpINS_8internal13scalar_sum_opIddEEKNS3_INS4_18scalar_quotient_opIddEEKNS_12ArrayWrapperIKNS_14CwiseNullaryOpINS4_16scalar_random_opIdEES1_EEEEKNSA_INS4_18scalar_constant_opIdEEKNS_5ArrayIdLin1ELi1ELi0ELin1ELi1EEEEEEESN_EEEERKNS_9EigenBaseIT_EE, symObjAddr: 0x3754, symBinAddr: 0x100004160, symSize: 0x34 }
  - { offsetInCU: 0x7E914, offset: 0x7E914, size: 0x8, addend: 0x0, symName: __ZN5Eigen9DenseBaseINS_6MatrixIdLin1ELi1ELi0ELin1ELi1EEEE9transposeEv, symObjAddr: 0x3788, symBinAddr: 0x100004194, symSize: 0x34 }
  - { offsetInCU: 0x7E93C, offset: 0x7E93C, size: 0x8, addend: 0x0, symName: __ZNK5Eigen10MatrixBaseINS_9TransposeINS_6MatrixIdLin1ELi1ELi0ELin1ELi1EEEEEE12cwiseProductINS_5BlockINS2_IdLin1ELin1ELi0ELin1ELin1EEELi1ELin1ELb0EEEEEKNS_13CwiseBinaryOpINS_8internal17scalar_product_opIdNSB_6traitsIT_E6ScalarEEEKS4_KSE_EERKNS0_ISE_EE, symObjAddr: 0x37BC, symBinAddr: 0x1000041C8, symSize: 0x60 }
  - { offsetInCU: 0x7E979, offset: 0x7E979, size: 0x8, addend: 0x0, symName: __ZN5Eigen15DenseCoeffsBaseINS_6MatrixIiLin1ELi1ELi0ELin1ELi1EEELi1EEclEl, symObjAddr: 0x381C, symBinAddr: 0x100004228, symSize: 0xA4 }
  - { offsetInCU: 0x7E9AE, offset: 0x7E9AE, size: 0x8, addend: 0x0, symName: __ZNK5Eigen10MatrixBaseINS_13CwiseBinaryOpINS_8internal17scalar_product_opIddEEKNS_9TransposeINS_6MatrixIdLin1ELi1ELi0ELin1ELi1EEEEEKNS_5BlockINS6_IdLin1ELin1ELi0ELin1ELin1EEELi1ELin1ELb0EEEEEEplINS1_IS4_S9_KNS1_INS2_20scalar_difference_opIddEESD_SD_EEEEEEKNS1_INS2_13scalar_sum_opIdNS2_6traitsIT_E6ScalarEEEKSE_KSO_EERKNS0_ISO_EE, symObjAddr: 0x38C0, symBinAddr: 0x1000042CC, symSize: 0x60 }
  - { offsetInCU: 0x7E9EB, offset: 0x7E9EB, size: 0x8, addend: 0x0, symName: __ZNK5Eigen10MatrixBaseINS_9TransposeINS_6MatrixIdLin1ELi1ELi0ELin1ELi1EEEEEE12cwiseProductINS_13CwiseBinaryOpINS_8internal20scalar_difference_opIddEEKNS_5BlockINS2_IdLin1ELin1ELi0ELin1ELin1EEELi1ELin1ELb0EEESE_EEEEKNS7_INS8_17scalar_product_opIdNS8_6traitsIT_E6ScalarEEEKS4_KSI_EERKNS0_ISI_EE, symObjAddr: 0x3920, symBinAddr: 0x10000432C, symSize: 0x60 }
  - { offsetInCU: 0x7EA28, offset: 0x7EA28, size: 0x8, addend: 0x0, symName: __ZNK5Eigen10MatrixBaseINS_5BlockINS_6MatrixIdLin1ELin1ELi0ELin1ELin1EEELi1ELin1ELb0EEEEmiIS4_EEKNS_13CwiseBinaryOpINS_8internal20scalar_difference_opIdNS8_6traitsIT_E6ScalarEEEKS4_KSB_EERKNS0_ISB_EE, symObjAddr: 0x3980, symBinAddr: 0x10000438C, symSize: 0x60 }
  - { offsetInCU: 0x7EA65, offset: 0x7EA65, size: 0x8, addend: 0x0, symName: __ZNK5Eigen10MatrixBaseINS_13CwiseBinaryOpINS_8internal13scalar_sum_opIddEEKNS1_INS2_17scalar_product_opIddEEKNS_9TransposeINS_6MatrixIdLin1ELi1ELi0ELin1ELi1EEEEEKNS_5BlockINS8_IdLin1ELin1ELi0ELin1ELin1EEELi1ELin1ELb0EEEEEKNS1_IS6_SB_KNS1_INS2_20scalar_difference_opIddEESF_SF_EEEEEEEplINS1_IS6_SN_KNS_14CwiseNullaryOpINS2_18scalar_constant_opIdEEKNS8_IdLi1ELin1ELi1ELi1ELin1EEEEEEEEEKNS1_INS3_IdNS2_6traitsIT_E6ScalarEEEKSO_KS10_EERKNS0_IS10_EE, symObjAddr: 0x39E0, symBinAddr: 0x1000043EC, symSize: 0x60 }
  - { offsetInCU: 0x7EAA2, offset: 0x7EAA2, size: 0x8, addend: 0x0, symName: __ZNK5Eigen10MatrixBaseINS_13CwiseBinaryOpINS_8internal17scalar_product_opIddEEKNS_9TransposeINS_6MatrixIdLin1ELi1ELi0ELin1ELi1EEEEEKNS1_INS2_20scalar_difference_opIddEEKNS_5BlockINS6_IdLin1ELin1ELi0ELin1ELin1EEELi1ELin1ELb0EEESF_EEEEEmlIdEEKNS1_INS3_IdNS2_18promote_scalar_argIdT_Xsr5Eigen8internal14has_ReturnTypeINS_20ScalarBinaryOpTraitsIdSM_NS3_IdSM_EEEEEE5valueEE4typeEEEKSI_KNS2_19plain_constant_typeISI_SR_E4typeEEERKSM_, symObjAddr: 0x3A40, symBinAddr: 0x10000444C, symSize: 0xA8 }
  - { offsetInCU: 0x7EADF, offset: 0x7EADF, size: 0x8, addend: 0x0, symName: __ZN5Eigen5BlockINS_6MatrixIdLin1ELin1ELi0ELin1ELin1EEELi1ELin1ELb0EEaSINS_13CwiseBinaryOpINS_8internal13scalar_sum_opIddEEKNS5_IS8_KNS5_INS6_17scalar_product_opIddEEKNS_9TransposeINS1_IdLin1ELi1ELi0ELin1ELi1EEEEEKS3_EEKNS5_ISA_SE_KNS5_INS6_20scalar_difference_opIddEESF_SF_EEEEEEKNS5_ISA_SN_KNS_14CwiseNullaryOpINS6_18scalar_constant_opIdEEKNS1_IdLi1ELin1ELi1ELi1ELin1EEEEEEEEEEERS3_RKNS_9DenseBaseIT_EE, symObjAddr: 0x3AE8, symBinAddr: 0x1000044F4, symSize: 0x40 }
  - { offsetInCU: 0x7EB1C, offset: 0x7EB1C, size: 0x8, addend: 0x0, symName: __ZN5Eigen10MatrixBaseINS_5BlockINS_6MatrixIdLin1ELin1ELi0ELin1ELin1EEELi1ELin1ELb0EEEEpLIS4_EERS4_RKNS0_IT_EE, symObjAddr: 0x3B28, symBinAddr: 0x100004534, symSize: 0x64 }
  - { offsetInCU: 0x7EB5B, offset: 0x7EB5B, size: 0x8, addend: 0x0, symName: __ZN5Eigen6MatrixIiLin1ELi1ELi0ELin1ELi1EED1Ev, symObjAddr: 0x3B8C, symBinAddr: 0x100004598, symSize: 0x2C }
  - { offsetInCU: 0x7EB87, offset: 0x7EB87, size: 0x8, addend: 0x0, symName: __ZNK5Eigen12DenseStorageIdLin1ELin1ELin1ELi0EE4rowsEv, symObjAddr: 0x3BB8, symBinAddr: 0x1000045C4, symSize: 0x18 }
  - { offsetInCU: 0x7EBAD, offset: 0x7EBAD, size: 0x8, addend: 0x0, symName: __ZNK5Eigen12DenseStorageIdLin1ELin1ELin1ELi0EE4colsEv, symObjAddr: 0x3BD0, symBinAddr: 0x1000045DC, symSize: 0x18 }
  - { offsetInCU: 0x7EBD3, offset: 0x7EBD3, size: 0x8, addend: 0x0, symName: __ZNSt3__113basic_ostreamIcNS_11char_traitsIcEEElsB7v160006EPFRS3_S4_E, symObjAddr: 0x3C30, symBinAddr: 0x10000463C, symSize: 0x2C }
  - { offsetInCU: 0x7EC07, offset: 0x7EC07, size: 0x8, addend: 0x0, symName: __ZNSt3__111char_traitsIcE6lengthEPKc, symObjAddr: 0x3EA0, symBinAddr: 0x1000048AC, symSize: 0x34 }
  - { offsetInCU: 0x7EC48, offset: 0x7EC48, size: 0x8, addend: 0x0, symName: __ZNKSt3__113basic_ostreamIcNS_11char_traitsIcEEE6sentrycvbB7v160006Ev, symObjAddr: 0x3ED4, symBinAddr: 0x1000048E0, symSize: 0x1C }
  - { offsetInCU: 0x7EC6E, offset: 0x7EC6E, size: 0x8, addend: 0x0, symName: __ZNSt3__119ostreambuf_iteratorIcNS_11char_traitsIcEEEC1B7v160006ERNS_13basic_ostreamIcS2_EE, symObjAddr: 0x4130, symBinAddr: 0x100004B3C, symSize: 0x34 }
  - { offsetInCU: 0x7ECA6, offset: 0x7ECA6, size: 0x8, addend: 0x0, symName: __ZNKSt3__18ios_base5flagsB7v160006Ev, symObjAddr: 0x4164, symBinAddr: 0x100004B70, symSize: 0x18 }
  - { offsetInCU: 0x7ECCE, offset: 0x7ECCE, size: 0x8, addend: 0x0, symName: __ZNKSt3__19basic_iosIcNS_11char_traitsIcEEE4fillB7v160006Ev, symObjAddr: 0x417C, symBinAddr: 0x100004B88, symSize: 0x64 }
  - { offsetInCU: 0x7ECF6, offset: 0x7ECF6, size: 0x8, addend: 0x0, symName: __ZNKSt3__119ostreambuf_iteratorIcNS_11char_traitsIcEEE6failedB7v160006Ev, symObjAddr: 0x41E0, symBinAddr: 0x100004BEC, symSize: 0x24 }
  - { offsetInCU: 0x7ED1C, offset: 0x7ED1C, size: 0x8, addend: 0x0, symName: __ZNSt3__19basic_iosIcNS_11char_traitsIcEEE8setstateB7v160006Ej, symObjAddr: 0x4204, symBinAddr: 0x100004C10, symSize: 0x2C }
  - { offsetInCU: 0x7ED51, offset: 0x7ED51, size: 0x8, addend: 0x0, symName: __ZNKSt3__18ios_base5widthB7v160006Ev, symObjAddr: 0x4230, symBinAddr: 0x100004C3C, symSize: 0x18 }
  - { offsetInCU: 0x7ED79, offset: 0x7ED79, size: 0x8, addend: 0x0, symName: __ZNSt3__115basic_streambufIcNS_11char_traitsIcEEE5sputnB7v160006EPKcl, symObjAddr: 0x4248, symBinAddr: 0x100004C54, symSize: 0x3C }
  - { offsetInCU: 0x7EDBB, offset: 0x7EDBB, size: 0x8, addend: 0x0, symName: __ZNSt3__112basic_stringIcNS_11char_traitsIcEENS_9allocatorIcEEEC1B7v160006Emc, symObjAddr: 0x4284, symBinAddr: 0x100004C90, symSize: 0x3C }
  - { offsetInCU: 0x7EE03, offset: 0x7EE03, size: 0x8, addend: 0x0, symName: __ZNKSt3__112basic_stringIcNS_11char_traitsIcEENS_9allocatorIcEEE4dataB7v160006Ev, symObjAddr: 0x42C0, symBinAddr: 0x100004CCC, symSize: 0x28 }
  - { offsetInCU: 0x7EE29, offset: 0x7EE29, size: 0x8, addend: 0x0, symName: __ZNSt3__18ios_base5widthB7v160006El, symObjAddr: 0x42E8, symBinAddr: 0x100004CF4, symSize: 0x2C }
  - { offsetInCU: 0x7EE6F, offset: 0x7EE6F, size: 0x8, addend: 0x0, symName: __ZNSt3__112basic_stringIcNS_11char_traitsIcEENS_9allocatorIcEEEC2B7v160006Emc, symObjAddr: 0x4314, symBinAddr: 0x100004D20, symSize: 0x54 }
  - { offsetInCU: 0x7EEBD, offset: 0x7EEBD, size: 0x8, addend: 0x0, symName: __ZNSt3__117__compressed_pairINS_12basic_stringIcNS_11char_traitsIcEENS_9allocatorIcEEE5__repES5_EC1B7v160006INS_18__default_init_tagESA_EEOT_OT0_, symObjAddr: 0x4368, symBinAddr: 0x100004D74, symSize: 0x3C }
  - { offsetInCU: 0x7EF15, offset: 0x7EF15, size: 0x8, addend: 0x0, symName: __ZNSt3__117__compressed_pairINS_12basic_stringIcNS_11char_traitsIcEENS_9allocatorIcEEE5__repES5_EC2B7v160006INS_18__default_init_tagESA_EEOT_OT0_, symObjAddr: 0x43B4, symBinAddr: 0x100004DC0, symSize: 0x3C }
  - { offsetInCU: 0x7EF6D, offset: 0x7EF6D, size: 0x8, addend: 0x0, symName: __ZNSt3__122__compressed_pair_elemINS_12basic_stringIcNS_11char_traitsIcEENS_9allocatorIcEEE5__repELi0ELb0EEC2B7v160006ENS_18__default_init_tagE, symObjAddr: 0x43F0, symBinAddr: 0x100004DFC, symSize: 0x14 }
  - { offsetInCU: 0x7EFA2, offset: 0x7EFA2, size: 0x8, addend: 0x0, symName: __ZNSt3__122__compressed_pair_elemINS_9allocatorIcEELi1ELb1EEC2B7v160006ENS_18__default_init_tagE, symObjAddr: 0x4404, symBinAddr: 0x100004E10, symSize: 0x2C }
  - { offsetInCU: 0x7EFD7, offset: 0x7EFD7, size: 0x8, addend: 0x0, symName: __ZNSt3__19allocatorIcEC2B7v160006Ev, symObjAddr: 0x4430, symBinAddr: 0x100004E3C, symSize: 0x2C }
  - { offsetInCU: 0x7F001, offset: 0x7F001, size: 0x8, addend: 0x0, symName: __ZNSt3__116__non_trivial_ifILb1ENS_9allocatorIcEEEC2B7v160006Ev, symObjAddr: 0x445C, symBinAddr: 0x100004E68, symSize: 0x14 }
  - { offsetInCU: 0x7F02B, offset: 0x7F02B, size: 0x8, addend: 0x0, symName: __ZNKSt3__112basic_stringIcNS_11char_traitsIcEENS_9allocatorIcEEE13__get_pointerB7v160006Ev, symObjAddr: 0x4484, symBinAddr: 0x100004E90, symSize: 0x54 }
  - { offsetInCU: 0x7F051, offset: 0x7F051, size: 0x8, addend: 0x0, symName: __ZNKSt3__112basic_stringIcNS_11char_traitsIcEENS_9allocatorIcEEE9__is_longB7v160006Ev, symObjAddr: 0x44D8, symBinAddr: 0x100004EE4, symSize: 0x38 }
  - { offsetInCU: 0x7F077, offset: 0x7F077, size: 0x8, addend: 0x0, symName: __ZNKSt3__112basic_stringIcNS_11char_traitsIcEENS_9allocatorIcEEE18__get_long_pointerB7v160006Ev, symObjAddr: 0x4510, symBinAddr: 0x100004F1C, symSize: 0x28 }
  - { offsetInCU: 0x7F09D, offset: 0x7F09D, size: 0x8, addend: 0x0, symName: __ZNKSt3__112basic_stringIcNS_11char_traitsIcEENS_9allocatorIcEEE19__get_short_pointerB7v160006Ev, symObjAddr: 0x4538, symBinAddr: 0x100004F44, symSize: 0x28 }
  - { offsetInCU: 0x7F0C3, offset: 0x7F0C3, size: 0x8, addend: 0x0, symName: __ZNKSt3__117__compressed_pairINS_12basic_stringIcNS_11char_traitsIcEENS_9allocatorIcEEE5__repES5_E5firstB7v160006Ev, symObjAddr: 0x4560, symBinAddr: 0x100004F6C, symSize: 0x24 }
  - { offsetInCU: 0x7F0E9, offset: 0x7F0E9, size: 0x8, addend: 0x0, symName: __ZNKSt3__122__compressed_pair_elemINS_12basic_stringIcNS_11char_traitsIcEENS_9allocatorIcEEE5__repELi0ELb0EE5__getB7v160006Ev, symObjAddr: 0x4584, symBinAddr: 0x100004F90, symSize: 0x14 }
  - { offsetInCU: 0x7F10F, offset: 0x7F10F, size: 0x8, addend: 0x0, symName: __ZNSt3__114pointer_traitsIPKcE10pointer_toB7v160006ERS1_, symObjAddr: 0x4598, symBinAddr: 0x100004FA4, symSize: 0x14 }
  - { offsetInCU: 0x7F132, offset: 0x7F132, size: 0x8, addend: 0x0, symName: __ZNSt3__119ostreambuf_iteratorIcNS_11char_traitsIcEEEC2B7v160006ERNS_13basic_ostreamIcS2_EE, symObjAddr: 0x45AC, symBinAddr: 0x100004FB8, symSize: 0x54 }
  - { offsetInCU: 0x7F16A, offset: 0x7F16A, size: 0x8, addend: 0x0, symName: __ZNKSt3__19basic_iosIcNS_11char_traitsIcEEE5rdbufB7v160006Ev, symObjAddr: 0x4600, symBinAddr: 0x10000500C, symSize: 0x24 }
  - { offsetInCU: 0x7F192, offset: 0x7F192, size: 0x8, addend: 0x0, symName: __ZNKSt3__18ios_base5rdbufB7v160006Ev, symObjAddr: 0x4624, symBinAddr: 0x100005030, symSize: 0x18 }
  - { offsetInCU: 0x7F1B8, offset: 0x7F1B8, size: 0x8, addend: 0x0, symName: __ZNSt3__111char_traitsIcE11eq_int_typeEii, symObjAddr: 0x463C, symBinAddr: 0x100005048, symSize: 0x28 }
  - { offsetInCU: 0x7F1E9, offset: 0x7F1E9, size: 0x8, addend: 0x0, symName: __ZNSt3__111char_traitsIcE3eofEv, symObjAddr: 0x4664, symBinAddr: 0x100005070, symSize: 0x8 }
  - { offsetInCU: 0x7F1FD, offset: 0x7F1FD, size: 0x8, addend: 0x0, symName: __ZNKSt3__19basic_iosIcNS_11char_traitsIcEEE5widenB7v160006Ec, symObjAddr: 0x466C, symBinAddr: 0x100005078, symSize: 0x84 }
  - { offsetInCU: 0x7F26B, offset: 0x7F26B, size: 0x8, addend: 0x0, symName: __ZNKSt3__15ctypeIcE5widenB7v160006Ec, symObjAddr: 0x471C, symBinAddr: 0x100005128, symSize: 0x38 }
  - { offsetInCU: 0x7F2A0, offset: 0x7F2A0, size: 0x8, addend: 0x0, symName: __ZNSt3__18ios_base8setstateB7v160006Ej, symObjAddr: 0x4754, symBinAddr: 0x100005160, symSize: 0x34 }
  - { offsetInCU: 0x7F2D7, offset: 0x7F2D7, size: 0x8, addend: 0x0, symName: __ZN5Eigen9DenseBaseINS_6MatrixIiLin1ELi1ELi0ELin1ELi1EEEE9LinSpacedElRKiS5_, symObjAddr: 0x47AC, symBinAddr: 0x1000051B8, symSize: 0x58 }
  - { offsetInCU: 0x7F31C, offset: 0x7F31C, size: 0x8, addend: 0x0, symName: __ZNK5Eigen9EigenBaseINS_6MatrixIdLin1ELi1ELi0ELin1ELi1EEEE4sizeEv, symObjAddr: 0x4804, symBinAddr: 0x100005210, symSize: 0x44 }
  - { offsetInCU: 0x7F347, offset: 0x7F347, size: 0x8, addend: 0x0, symName: __ZN5Eigen6MatrixIiLin1ELi1ELi0ELin1ELi1EEC1INS_14CwiseNullaryOpINS_8internal12linspaced_opIiEES1_EEEERKNS_9EigenBaseIT_EE, symObjAddr: 0x4848, symBinAddr: 0x100005254, symSize: 0x34 }
  - { offsetInCU: 0x7F389, offset: 0x7F389, size: 0x8, addend: 0x0, symName: __ZN5Eigen15PlainObjectBaseINS_6MatrixIiLin1ELi1ELi0ELin1ELi1EEEE4dataEv, symObjAddr: 0x48B0, symBinAddr: 0x1000052BC, symSize: 0x24 }
  - { offsetInCU: 0x7F3AF, offset: 0x7F3AF, size: 0x8, addend: 0x0, symName: __ZNK5Eigen9EigenBaseINS_6MatrixIiLin1ELi1ELi0ELin1ELi1EEEE4sizeEv, symObjAddr: 0x48D4, symBinAddr: 0x1000052E0, symSize: 0x44 }
  - { offsetInCU: 0x7F3E9, offset: 0x7F3E9, size: 0x8, addend: 0x0, symName: __ZZN4LLSO8sort_vecEN5Eigen6MatrixIdLin1ELi1ELi0ELin1ELi1EEEENUliiE_C1ERKS3_, symObjAddr: 0x4918, symBinAddr: 0x100005324, symSize: 0x34 }
  - { offsetInCU: 0x7F41E, offset: 0x7F41E, size: 0x8, addend: 0x0, symName: __ZZN4LLSO8sort_vecEN5Eigen6MatrixIdLin1ELi1ELi0ELin1ELi1EEEENUliiE_D1Ev, symObjAddr: 0x494C, symBinAddr: 0x100005358, symSize: 0x2C }
  - { offsetInCU: 0x7F44A, offset: 0x7F44A, size: 0x8, addend: 0x0, symName: __ZN5Eigen9DenseBaseINS_6MatrixIiLin1ELi1ELi0ELin1ELi1EEEE11NullaryExprINS_8internal12linspaced_opIiEEEEKNS_14CwiseNullaryOpIT_S2_EElRKS9_, symObjAddr: 0x4978, symBinAddr: 0x100005384, symSize: 0x3C }
  - { offsetInCU: 0x7F488, offset: 0x7F488, size: 0x8, addend: 0x0, symName: __ZN5Eigen8internal12linspaced_opIiEC1ERKiS4_l, symObjAddr: 0x49B4, symBinAddr: 0x1000053C0, symSize: 0x44 }
  - { offsetInCU: 0x7F4DC, offset: 0x7F4DC, size: 0x8, addend: 0x0, symName: __ZN5Eigen14CwiseNullaryOpINS_8internal12linspaced_opIiEENS_6MatrixIiLin1ELi1ELi0ELin1ELi1EEEEC1EllRKS3_, symObjAddr: 0x49F8, symBinAddr: 0x100005404, symSize: 0x44 }
  - { offsetInCU: 0x7F530, offset: 0x7F530, size: 0x8, addend: 0x0, symName: __ZN5Eigen14CwiseNullaryOpINS_8internal12linspaced_opIiEENS_6MatrixIiLin1ELi1ELi0ELin1ELi1EEEEC2EllRKS3_, symObjAddr: 0x4A3C, symBinAddr: 0x100005448, symSize: 0xEC }
  - { offsetInCU: 0x7F584, offset: 0x7F584, size: 0x8, addend: 0x0, symName: __ZN5Eigen10MatrixBaseINS_14CwiseNullaryOpINS_8internal12linspaced_opIiEENS_6MatrixIiLin1ELi1ELi0ELin1ELi1EEEEEEC2Ev, symObjAddr: 0x4B28, symBinAddr: 0x100005534, symSize: 0x2C }
  - { offsetInCU: 0x7F5AE, offset: 0x7F5AE, size: 0x8, addend: 0x0, symName: __ZN5Eigen8internal19variable_if_dynamicIlLin1EEC1El, symObjAddr: 0x4B54, symBinAddr: 0x100005560, symSize: 0x34 }
  - { offsetInCU: 0x7F5E6, offset: 0x7F5E6, size: 0x8, addend: 0x0, symName: __ZN5Eigen8internal19variable_if_dynamicIlLi1EEC1El, symObjAddr: 0x4B88, symBinAddr: 0x100005594, symSize: 0x34 }
  - { offsetInCU: 0x7F61E, offset: 0x7F61E, size: 0x8, addend: 0x0, symName: __ZN5Eigen9DenseBaseINS_14CwiseNullaryOpINS_8internal12linspaced_opIiEENS_6MatrixIiLin1ELi1ELi0ELin1ELi1EEEEEEC2Ev, symObjAddr: 0x4BBC, symBinAddr: 0x1000055C8, symSize: 0x14 }
  - { offsetInCU: 0x7F648, offset: 0x7F648, size: 0x8, addend: 0x0, symName: __ZN5Eigen8internal19variable_if_dynamicIlLin1EEC2El, symObjAddr: 0x4BD0, symBinAddr: 0x1000055DC, symSize: 0x20 }
  - { offsetInCU: 0x7F680, offset: 0x7F680, size: 0x8, addend: 0x0, symName: __ZN5Eigen8internal19variable_if_dynamicIlLi1EEC2El, symObjAddr: 0x4BF0, symBinAddr: 0x1000055FC, symSize: 0x64 }
  - { offsetInCU: 0x7F6B8, offset: 0x7F6B8, size: 0x8, addend: 0x0, symName: __ZN5Eigen8internal12linspaced_opIiEC2ERKiS4_l, symObjAddr: 0x4C54, symBinAddr: 0x100005660, symSize: 0x78 }
  - { offsetInCU: 0x7F70C, offset: 0x7F70C, size: 0x8, addend: 0x0, symName: __ZN5Eigen8internal17linspaced_op_implIiLb1EEC1ERKiS4_l, symObjAddr: 0x4CCC, symBinAddr: 0x1000056D8, symSize: 0x44 }
  - { offsetInCU: 0x7F772, offset: 0x7F772, size: 0x8, addend: 0x0, symName: __ZN5Eigen8internal17linspaced_op_implIiLb1EEC2ERKiS4_l, symObjAddr: 0x4D10, symBinAddr: 0x10000571C, symSize: 0x22C }
  - { offsetInCU: 0x7F838, offset: 0x7F838, size: 0x8, addend: 0x0, symName: __ZNK5Eigen9EigenBaseINS_6MatrixIdLin1ELi1ELi0ELin1ELi1EEEE4rowsEv, symObjAddr: 0x4F58, symBinAddr: 0x100005964, symSize: 0x38 }
  - { offsetInCU: 0x7F85E, offset: 0x7F85E, size: 0x8, addend: 0x0, symName: __ZNK5Eigen9EigenBaseINS_6MatrixIdLin1ELi1ELi0ELin1ELi1EEEE4colsEv, symObjAddr: 0x4F90, symBinAddr: 0x10000599C, symSize: 0x28 }
  - { offsetInCU: 0x7F884, offset: 0x7F884, size: 0x8, addend: 0x0, symName: __ZNK5Eigen9EigenBaseINS_6MatrixIdLin1ELi1ELi0ELin1ELi1EEEE7derivedEv, symObjAddr: 0x4FB8, symBinAddr: 0x1000059C4, symSize: 0x14 }
  - { offsetInCU: 0x7F8AA, offset: 0x7F8AA, size: 0x8, addend: 0x0, symName: __ZNK5Eigen15PlainObjectBaseINS_6MatrixIdLin1ELi1ELi0ELin1ELi1EEEE4rowsEv, symObjAddr: 0x4FCC, symBinAddr: 0x1000059D8, symSize: 0x24 }
  - { offsetInCU: 0x7F8D0, offset: 0x7F8D0, size: 0x8, addend: 0x0, symName: __ZNK5Eigen12DenseStorageIdLin1ELin1ELi1ELi0EE4rowsEv, symObjAddr: 0x4FF0, symBinAddr: 0x1000059FC, symSize: 0x18 }
  - { offsetInCU: 0x7F8F6, offset: 0x7F8F6, size: 0x8, addend: 0x0, symName: __ZNK5Eigen15PlainObjectBaseINS_6MatrixIdLin1ELi1ELi0ELin1ELi1EEEE4colsEv, symObjAddr: 0x5008, symBinAddr: 0x100005A14, symSize: 0x30 }
  - { offsetInCU: 0x7F91C, offset: 0x7F91C, size: 0x8, addend: 0x0, symName: __ZN5Eigen12DenseStorageIdLin1ELin1ELi1ELi0EE4colsEv, symObjAddr: 0x5038, symBinAddr: 0x100005A44, symSize: 0x8 }
  - { offsetInCU: 0x7F930, offset: 0x7F930, size: 0x8, addend: 0x0, symName: __ZN5Eigen6MatrixIiLin1ELi1ELi0ELin1ELi1EEC2INS_14CwiseNullaryOpINS_8internal12linspaced_opIiEES1_EEEERKNS_9EigenBaseIT_EE, symObjAddr: 0x5040, symBinAddr: 0x100005A4C, symSize: 0x40 }
  - { offsetInCU: 0x7F972, offset: 0x7F972, size: 0x8, addend: 0x0, symName: __ZNK5Eigen9EigenBaseINS_14CwiseNullaryOpINS_8internal12linspaced_opIiEENS_6MatrixIiLin1ELi1ELi0ELin1ELi1EEEEEE7derivedEv, symObjAddr: 0x5080, symBinAddr: 0x100005A8C, symSize: 0x14 }
  - { offsetInCU: 0x7F998, offset: 0x7F998, size: 0x8, addend: 0x0, symName: __ZN5Eigen15PlainObjectBaseINS_6MatrixIiLin1ELi1ELi0ELin1ELi1EEEEC2INS_14CwiseNullaryOpINS_8internal12linspaced_opIiEES2_EEEERKNS_9DenseBaseIT_EE, symObjAddr: 0x5094, symBinAddr: 0x100005AA0, symSize: 0x84 }
  - { offsetInCU: 0x7F9DA, offset: 0x7F9DA, size: 0x8, addend: 0x0, symName: __ZN5Eigen10MatrixBaseINS_6MatrixIiLin1ELi1ELi0ELin1ELi1EEEEC2Ev, symObjAddr: 0x5118, symBinAddr: 0x100005B24, symSize: 0x2C }
  - { offsetInCU: 0x7FA04, offset: 0x7FA04, size: 0x8, addend: 0x0, symName: __ZN5Eigen12DenseStorageIiLin1ELin1ELi1ELi0EEC1Ev, symObjAddr: 0x5144, symBinAddr: 0x100005B50, symSize: 0x2C }
  - { offsetInCU: 0x7FA2E, offset: 0x7FA2E, size: 0x8, addend: 0x0, symName: __ZN5Eigen15PlainObjectBaseINS_6MatrixIiLin1ELi1ELi0ELin1ELi1EEEE22_check_template_paramsEv, symObjAddr: 0x5170, symBinAddr: 0x100005B7C, symSize: 0x4 }
  - { offsetInCU: 0x7FA83, offset: 0x7FA83, size: 0x8, addend: 0x0, symName: __ZN5Eigen15PlainObjectBaseINS_6MatrixIiLin1ELi1ELi0ELin1ELi1EEEE10resizeLikeINS_14CwiseNullaryOpINS_8internal12linspaced_opIiEES2_EEEEvRKNS_9EigenBaseIT_EE, symObjAddr: 0x5174, symBinAddr: 0x100005B80, symSize: 0x170 }
  - { offsetInCU: 0x7FB17, offset: 0x7FB17, size: 0x8, addend: 0x0, symName: __ZN5Eigen15PlainObjectBaseINS_6MatrixIiLin1ELi1ELi0ELin1ELi1EEEE12_set_noaliasINS_14CwiseNullaryOpINS_8internal12linspaced_opIiEES2_EEEERS2_RKNS_9DenseBaseIT_EE, symObjAddr: 0x52E4, symBinAddr: 0x100005CF0, symSize: 0x60 }
  - { offsetInCU: 0x7FB55, offset: 0x7FB55, size: 0x8, addend: 0x0, symName: __ZN5Eigen12DenseStorageIiLin1ELin1ELi1ELi0EED1Ev, symObjAddr: 0x5344, symBinAddr: 0x100005D50, symSize: 0x2C }
  - { offsetInCU: 0x7FB7F, offset: 0x7FB7F, size: 0x8, addend: 0x0, symName: __ZN5Eigen9DenseBaseINS_6MatrixIiLin1ELi1ELi0ELin1ELi1EEEEC2Ev, symObjAddr: 0x5370, symBinAddr: 0x100005D7C, symSize: 0x14 }
  - { offsetInCU: 0x7FBA9, offset: 0x7FBA9, size: 0x8, addend: 0x0, symName: __ZN5Eigen12DenseStorageIiLin1ELin1ELi1ELi0EEC2Ev, symObjAddr: 0x5384, symBinAddr: 0x100005D90, symSize: 0x1C }
  - { offsetInCU: 0x7FBD3, offset: 0x7FBD3, size: 0x8, addend: 0x0, symName: __ZNK5Eigen14CwiseNullaryOpINS_8internal12linspaced_opIiEENS_6MatrixIiLin1ELi1ELi0ELin1ELi1EEEE4rowsEv, symObjAddr: 0x53A0, symBinAddr: 0x100005DAC, symSize: 0x24 }
  - { offsetInCU: 0x7FBF9, offset: 0x7FBF9, size: 0x8, addend: 0x0, symName: __ZNK5Eigen14CwiseNullaryOpINS_8internal12linspaced_opIiEENS_6MatrixIiLin1ELi1ELi0ELin1ELi1EEEE4colsEv, symObjAddr: 0x53C4, symBinAddr: 0x100005DD0, symSize: 0x20 }
  - { offsetInCU: 0x7FC1F, offset: 0x7FC1F, size: 0x8, addend: 0x0, symName: __ZN5Eigen15PlainObjectBaseINS_6MatrixIiLin1ELi1ELi0ELin1ELi1EEEE6resizeEll, symObjAddr: 0x53E4, symBinAddr: 0x100005DF0, symSize: 0x168 }
  - { offsetInCU: 0x7FC9B, offset: 0x7FC9B, size: 0x8, addend: 0x0, symName: __ZNK5Eigen8internal19variable_if_dynamicIlLin1EE5valueEv, symObjAddr: 0x5580, symBinAddr: 0x100005F8C, symSize: 0x18 }
  - { offsetInCU: 0x7FCC1, offset: 0x7FCC1, size: 0x8, addend: 0x0, symName: __ZN5Eigen8internal19variable_if_dynamicIlLi1EE5valueEv, symObjAddr: 0x5598, symBinAddr: 0x100005FA4, symSize: 0x8 }
  - { offsetInCU: 0x7FCD5, offset: 0x7FCD5, size: 0x8, addend: 0x0, symName: __ZN5Eigen12DenseStorageIiLin1ELin1ELi1ELi0EE6resizeElll, symObjAddr: 0x55A0, symBinAddr: 0x100005FAC, symSize: 0xA4 }
  - { offsetInCU: 0x7FD24, offset: 0x7FD24, size: 0x8, addend: 0x0, symName: __ZN5Eigen9EigenBaseINS_6MatrixIiLin1ELi1ELi0ELin1ELi1EEEE7derivedEv, symObjAddr: 0x5830, symBinAddr: 0x10000623C, symSize: 0x14 }
  - { offsetInCU: 0x7FD5E, offset: 0x7FD5E, size: 0x8, addend: 0x0, symName: __ZN5Eigen8internal9assign_opIiiEC1Ev, symObjAddr: 0x5844, symBinAddr: 0x100006250, symSize: 0x2C }
  - { offsetInCU: 0x7FD88, offset: 0x7FD88, size: 0x8, addend: 0x0, symName: __ZN5Eigen8internal10AssignmentINS_6MatrixIiLin1ELi1ELi0ELin1ELi1EEENS_14CwiseNullaryOpINS0_12linspaced_opIiEES3_EENS0_9assign_opIiiEENS0_11Dense2DenseEvE3runERS3_RKS7_RKS9_, symObjAddr: 0x5870, symBinAddr: 0x10000627C, symSize: 0x40 }
  - { offsetInCU: 0x7FDED, offset: 0x7FDED, size: 0x8, addend: 0x0, symName: __ZN5Eigen8internal9evaluatorINS_14CwiseNullaryOpINS0_12linspaced_opIiEENS_6MatrixIiLin1ELi1ELi0ELin1ELi1EEEEEEC1ERKS7_, symObjAddr: 0x59A4, symBinAddr: 0x1000063B0, symSize: 0x34 }
  - { offsetInCU: 0x7FE26, offset: 0x7FE26, size: 0x8, addend: 0x0, symName: __ZN5Eigen8internal9evaluatorINS_6MatrixIiLin1ELi1ELi0ELin1ELi1EEEEC1ERKS3_, symObjAddr: 0x5AD0, symBinAddr: 0x1000064DC, symSize: 0x34 }
  - { offsetInCU: 0x7FE5F, offset: 0x7FE5F, size: 0x8, addend: 0x0, symName: __ZNK5Eigen9EigenBaseINS_6MatrixIiLin1ELi1ELi0ELin1ELi1EEEE18const_cast_derivedEv, symObjAddr: 0x5B04, symBinAddr: 0x100006510, symSize: 0x14 }
  - { offsetInCU: 0x7FEB2, offset: 0x7FEB2, size: 0x8, addend: 0x0, symName: __ZN5Eigen8internal31generic_dense_assignment_kernelINS0_9evaluatorINS_6MatrixIiLin1ELi1ELi0ELin1ELi1EEEEENS2_INS_14CwiseNullaryOpINS0_12linspaced_opIiEES4_EEEENS0_9assign_opIiiEELi0EEC1ERS5_RKSA_RKSC_RS4_, symObjAddr: 0x5B18, symBinAddr: 0x100006524, symSize: 0x4C }
  - { offsetInCU: 0x7FF1D, offset: 0x7FF1D, size: 0x8, addend: 0x0, symName: __ZN5Eigen8internal21dense_assignment_loopINS0_31generic_dense_assignment_kernelINS0_9evaluatorINS_6MatrixIiLin1ELi1ELi0ELin1ELi1EEEEENS3_INS_14CwiseNullaryOpINS0_12linspaced_opIiEES5_EEEENS0_9assign_opIiiEELi0EEELi1ELi0EE3runERSE_, symObjAddr: 0x5B64, symBinAddr: 0x100006570, symSize: 0x68 }
  - { offsetInCU: 0x7FF6D, offset: 0x7FF6D, size: 0x8, addend: 0x0, symName: __ZN5Eigen8internal9evaluatorINS_6MatrixIiLin1ELi1ELi0ELin1ELi1EEEED1Ev, symObjAddr: 0x5BCC, symBinAddr: 0x1000065D8, symSize: 0x2C }
  - { offsetInCU: 0x7FF9A, offset: 0x7FF9A, size: 0x8, addend: 0x0, symName: __ZN5Eigen8internal9evaluatorINS_14CwiseNullaryOpINS0_12linspaced_opIiEENS_6MatrixIiLin1ELi1ELi0ELin1ELi1EEEEEED1Ev, symObjAddr: 0x5BF8, symBinAddr: 0x100006604, symSize: 0x2C }
  - { offsetInCU: 0x7FFC6, offset: 0x7FFC6, size: 0x8, addend: 0x0, symName: __ZN5Eigen8internal9evaluatorINS_14CwiseNullaryOpINS0_12linspaced_opIiEENS_6MatrixIiLin1ELi1ELi0ELin1ELi1EEEEEEC2ERKS7_, symObjAddr: 0x5C24, symBinAddr: 0x100006630, symSize: 0x70 }
  - { offsetInCU: 0x7FFFF, offset: 0x7FFFF, size: 0x8, addend: 0x0, symName: __ZN5Eigen8internal14evaluator_baseINS_14CwiseNullaryOpINS0_12linspaced_opIiEENS_6MatrixIiLin1ELi1ELi0ELin1ELi1EEEEEEC2Ev, symObjAddr: 0x5C94, symBinAddr: 0x1000066A0, symSize: 0x14 }
  - { offsetInCU: 0x80029, offset: 0x80029, size: 0x8, addend: 0x0, symName: __ZNK5Eigen14CwiseNullaryOpINS_8internal12linspaced_opIiEENS_6MatrixIiLin1ELi1ELi0ELin1ELi1EEEE7functorEv, symObjAddr: 0x5CA8, symBinAddr: 0x1000066B4, symSize: 0x18 }
  - { offsetInCU: 0x8004F, offset: 0x8004F, size: 0x8, addend: 0x0, symName: __ZN5Eigen8internal14evaluator_baseINS_14CwiseNullaryOpINS0_12linspaced_opIiEENS_6MatrixIiLin1ELi1ELi0ELin1ELi1EEEEEED2Ev, symObjAddr: 0x5CC0, symBinAddr: 0x1000066CC, symSize: 0x14 }
  - { offsetInCU: 0x80079, offset: 0x80079, size: 0x8, addend: 0x0, symName: __ZNK5Eigen15PlainObjectBaseINS_6MatrixIiLin1ELi1ELi0ELin1ELi1EEEE4rowsEv, symObjAddr: 0x5CD4, symBinAddr: 0x1000066E0, symSize: 0x24 }
  - { offsetInCU: 0x8009F, offset: 0x8009F, size: 0x8, addend: 0x0, symName: __ZNK5Eigen15PlainObjectBaseINS_6MatrixIiLin1ELi1ELi0ELin1ELi1EEEE4colsEv, symObjAddr: 0x5CF8, symBinAddr: 0x100006704, symSize: 0x30 }
  - { offsetInCU: 0x800C5, offset: 0x800C5, size: 0x8, addend: 0x0, symName: __ZNK5Eigen12DenseStorageIiLin1ELin1ELi1ELi0EE4rowsEv, symObjAddr: 0x5D28, symBinAddr: 0x100006734, symSize: 0x18 }
  - { offsetInCU: 0x800EB, offset: 0x800EB, size: 0x8, addend: 0x0, symName: __ZN5Eigen12DenseStorageIiLin1ELin1ELi1ELi0EE4colsEv, symObjAddr: 0x5D40, symBinAddr: 0x10000674C, symSize: 0x8 }
  - { offsetInCU: 0x800FF, offset: 0x800FF, size: 0x8, addend: 0x0, symName: __ZN5Eigen8internal9evaluatorINS_6MatrixIiLin1ELi1ELi0ELin1ELi1EEEEC2ERKS3_, symObjAddr: 0x5D48, symBinAddr: 0x100006754, symSize: 0x34 }
  - { offsetInCU: 0x80138, offset: 0x80138, size: 0x8, addend: 0x0, symName: __ZN5Eigen8internal9evaluatorINS_15PlainObjectBaseINS_6MatrixIiLin1ELi1ELi0ELin1ELi1EEEEEEC2ERKS5_, symObjAddr: 0x5D7C, symBinAddr: 0x100006788, symSize: 0x78 }
  - { offsetInCU: 0x80170, offset: 0x80170, size: 0x8, addend: 0x0, symName: __ZN5Eigen8internal14evaluator_baseINS_6MatrixIiLin1ELi1ELi0ELin1ELi1EEEEC2Ev, symObjAddr: 0x5DF4, symBinAddr: 0x100006800, symSize: 0x14 }
  - { offsetInCU: 0x8019A, offset: 0x8019A, size: 0x8, addend: 0x0, symName: __ZNK5Eigen15PlainObjectBaseINS_6MatrixIiLin1ELi1ELi0ELin1ELi1EEEE4dataEv, symObjAddr: 0x5E08, symBinAddr: 0x100006814, symSize: 0x24 }
  - { offsetInCU: 0x801C0, offset: 0x801C0, size: 0x8, addend: 0x0, symName: __ZN5Eigen8internal30plainobjectbase_evaluator_dataIiLi0EEC1EPKil, symObjAddr: 0x5E2C, symBinAddr: 0x100006838, symSize: 0x3C }
  - { offsetInCU: 0x80206, offset: 0x80206, size: 0x8, addend: 0x0, symName: __ZN5Eigen8internal14evaluator_baseINS_6MatrixIiLin1ELi1ELi0ELin1ELi1EEEED2Ev, symObjAddr: 0x5E68, symBinAddr: 0x100006874, symSize: 0x14 }
  - { offsetInCU: 0x80230, offset: 0x80230, size: 0x8, addend: 0x0, symName: __ZNK5Eigen12DenseStorageIiLin1ELin1ELi1ELi0EE4dataEv, symObjAddr: 0x5E7C, symBinAddr: 0x100006888, symSize: 0x18 }
  - { offsetInCU: 0x80256, offset: 0x80256, size: 0x8, addend: 0x0, symName: __ZN5Eigen8internal30plainobjectbase_evaluator_dataIiLi0EEC2EPKil, symObjAddr: 0x5E94, symBinAddr: 0x1000068A0, symSize: 0x40 }
  - { offsetInCU: 0x8029C, offset: 0x8029C, size: 0x8, addend: 0x0, symName: __ZN5Eigen8internal31generic_dense_assignment_kernelINS0_9evaluatorINS_6MatrixIiLin1ELi1ELi0ELin1ELi1EEEEENS2_INS_14CwiseNullaryOpINS0_12linspaced_opIiEES4_EEEENS0_9assign_opIiiEELi0EEC2ERS5_RKSA_RKSC_RS4_, symObjAddr: 0x5EE4, symBinAddr: 0x1000068F0, symSize: 0x44 }
  - { offsetInCU: 0x80302, offset: 0x80302, size: 0x8, addend: 0x0, symName: __ZNK5Eigen8internal31generic_dense_assignment_kernelINS0_9evaluatorINS_6MatrixIiLin1ELi1ELi0ELin1ELi1EEEEENS2_INS_14CwiseNullaryOpINS0_12linspaced_opIiEES4_EEEENS0_9assign_opIiiEELi0EE4sizeEv, symObjAddr: 0x5F28, symBinAddr: 0x100006934, symSize: 0x28 }
  - { offsetInCU: 0x80328, offset: 0x80328, size: 0x8, addend: 0x0, symName: __ZN5Eigen8internal31generic_dense_assignment_kernelINS0_9evaluatorINS_6MatrixIiLin1ELi1ELi0ELin1ELi1EEEEENS2_INS_14CwiseNullaryOpINS0_12linspaced_opIiEES4_EEEENS0_9assign_opIiiEELi0EE11assignCoeffEl, symObjAddr: 0x5F50, symBinAddr: 0x10000695C, symSize: 0x68 }
  - { offsetInCU: 0x8035D, offset: 0x8035D, size: 0x8, addend: 0x0, symName: __ZNK5Eigen8internal9assign_opIiiE11assignCoeffERiRKi, symObjAddr: 0x5FB8, symBinAddr: 0x1000069C4, symSize: 0x28 }
  - { offsetInCU: 0x8039F, offset: 0x8039F, size: 0x8, addend: 0x0, symName: __ZN5Eigen8internal9evaluatorINS_15PlainObjectBaseINS_6MatrixIiLin1ELi1ELi0ELin1ELi1EEEEEE8coeffRefEl, symObjAddr: 0x5FE0, symBinAddr: 0x1000069EC, symSize: 0x24 }
  - { offsetInCU: 0x803DD, offset: 0x803DD, size: 0x8, addend: 0x0, symName: __ZNK5Eigen8internal9evaluatorINS_14CwiseNullaryOpINS0_12linspaced_opIiEENS_6MatrixIiLin1ELi1ELi0ELin1ELi1EEEEEE5coeffIlEEiT_, symObjAddr: 0x6004, symBinAddr: 0x100006A10, symSize: 0x34 }
  - { offsetInCU: 0x80420, offset: 0x80420, size: 0x8, addend: 0x0, symName: __ZNK5Eigen8internal15nullary_wrapperIiNS0_12linspaced_opIiEELb0ELb1ELb0EEclIlEEiRKS3_T_, symObjAddr: 0x6038, symBinAddr: 0x100006A44, symSize: 0x30 }
  - { offsetInCU: 0x80472, offset: 0x80472, size: 0x8, addend: 0x0, symName: __ZNK5Eigen8internal12linspaced_opIiEclIlEEKiT_, symObjAddr: 0x6068, symBinAddr: 0x100006A74, symSize: 0x2C }
  - { offsetInCU: 0x804B4, offset: 0x804B4, size: 0x8, addend: 0x0, symName: __ZNK5Eigen8internal17linspaced_op_implIiLb1EEclIlEEKiT_, symObjAddr: 0x6094, symBinAddr: 0x100006AA0, symSize: 0x98 }
  - { offsetInCU: 0x804F1, offset: 0x804F1, size: 0x8, addend: 0x0, symName: __ZN5Eigen8internal9evaluatorINS_6MatrixIiLin1ELi1ELi0ELin1ELi1EEEED2Ev, symObjAddr: 0x612C, symBinAddr: 0x100006B38, symSize: 0x2C }
  - { offsetInCU: 0x8051E, offset: 0x8051E, size: 0x8, addend: 0x0, symName: __ZN5Eigen8internal9evaluatorINS_15PlainObjectBaseINS_6MatrixIiLin1ELi1ELi0ELin1ELi1EEEEEED2Ev, symObjAddr: 0x6158, symBinAddr: 0x100006B64, symSize: 0x2C }
  - { offsetInCU: 0x8054A, offset: 0x8054A, size: 0x8, addend: 0x0, symName: __ZN5Eigen8internal9evaluatorINS_14CwiseNullaryOpINS0_12linspaced_opIiEENS_6MatrixIiLin1ELi1ELi0ELin1ELi1EEEEEED2Ev, symObjAddr: 0x6184, symBinAddr: 0x100006B90, symSize: 0x2C }
  - { offsetInCU: 0x80576, offset: 0x80576, size: 0x8, addend: 0x0, symName: __ZN5Eigen8internal9assign_opIiiEC2Ev, symObjAddr: 0x61B0, symBinAddr: 0x100006BBC, symSize: 0x14 }
  - { offsetInCU: 0x805A0, offset: 0x805A0, size: 0x8, addend: 0x0, symName: __ZN5Eigen12DenseStorageIiLin1ELin1ELi1ELi0EED2Ev, symObjAddr: 0x61C4, symBinAddr: 0x100006BD0, symSize: 0x44 }
  - { offsetInCU: 0x805CF, offset: 0x805CF, size: 0x8, addend: 0x0, symName: __ZNSt3__116_UnwrapAlgPolicyIRZN4LLSO8sort_vecEN5Eigen6MatrixIdLin1ELi1ELi0ELin1ELi1EEEEUliiE_E10__get_compB7v160006ES6_, symObjAddr: 0x6360, symBinAddr: 0x100006D6C, symSize: 0x14 }
  - { offsetInCU: 0x805F2, offset: 0x805F2, size: 0x8, addend: 0x0, symName: __ZZN4LLSO8sort_vecEN5Eigen6MatrixIdLin1ELi1ELi0ELin1ELi1EEEENKUliiE_clEii, symObjAddr: 0x6AB0, symBinAddr: 0x1000074BC, symSize: 0x60 }
  - { offsetInCU: 0x80638, offset: 0x80638, size: 0x8, addend: 0x0, symName: __ZNSt3__18_IterOpsINS_17_ClassicAlgPolicyEE9iter_swapB7v160006IRPiS5_EEvOT_OT0_, symObjAddr: 0x6B10, symBinAddr: 0x10000751C, symSize: 0x34 }
  - { offsetInCU: 0x8067B, offset: 0x8067B, size: 0x8, addend: 0x0, symName: __ZNK5Eigen15DenseCoeffsBaseINS_6MatrixIdLin1ELi1ELi0ELin1ELi1EEELi0EEclEl, symObjAddr: 0x72F0, symBinAddr: 0x100007CFC, symSize: 0xA4 }
  - { offsetInCU: 0x806AF, offset: 0x806AF, size: 0x8, addend: 0x0, symName: __ZNK5Eigen15DenseCoeffsBaseINS_6MatrixIdLin1ELi1ELi0ELin1ELi1EEELi0EE5coeffEl, symObjAddr: 0x7394, symBinAddr: 0x100007DA0, symSize: 0x78 }
  - { offsetInCU: 0x806E3, offset: 0x806E3, size: 0x8, addend: 0x0, symName: __ZN5Eigen8internal9evaluatorINS_6MatrixIdLin1ELi1ELi0ELin1ELi1EEEEC1ERKS3_, symObjAddr: 0x740C, symBinAddr: 0x100007E18, symSize: 0x34 }
  - { offsetInCU: 0x8071C, offset: 0x8071C, size: 0x8, addend: 0x0, symName: __ZNK5Eigen8internal9evaluatorINS_15PlainObjectBaseINS_6MatrixIdLin1ELi1ELi0ELin1ELi1EEEEEE5coeffEl, symObjAddr: 0x7440, symBinAddr: 0x100007E4C, symSize: 0x24 }
  - { offsetInCU: 0x80750, offset: 0x80750, size: 0x8, addend: 0x0, symName: __ZN5Eigen8internal9evaluatorINS_6MatrixIdLin1ELi1ELi0ELin1ELi1EEEED1Ev, symObjAddr: 0x7464, symBinAddr: 0x100007E70, symSize: 0x2C }
  - { offsetInCU: 0x8077D, offset: 0x8077D, size: 0x8, addend: 0x0, symName: __ZN5Eigen8internal9evaluatorINS_6MatrixIdLin1ELi1ELi0ELin1ELi1EEEEC2ERKS3_, symObjAddr: 0x7490, symBinAddr: 0x100007E9C, symSize: 0x34 }
  - { offsetInCU: 0x807B6, offset: 0x807B6, size: 0x8, addend: 0x0, symName: __ZN5Eigen8internal9evaluatorINS_15PlainObjectBaseINS_6MatrixIdLin1ELi1ELi0ELin1ELi1EEEEEEC2ERKS5_, symObjAddr: 0x74C4, symBinAddr: 0x100007ED0, symSize: 0x78 }
  - { offsetInCU: 0x807EE, offset: 0x807EE, size: 0x8, addend: 0x0, symName: __ZN5Eigen8internal14evaluator_baseINS_6MatrixIdLin1ELi1ELi0ELin1ELi1EEEEC2Ev, symObjAddr: 0x753C, symBinAddr: 0x100007F48, symSize: 0x14 }
  - { offsetInCU: 0x80818, offset: 0x80818, size: 0x8, addend: 0x0, symName: __ZNK5Eigen15PlainObjectBaseINS_6MatrixIdLin1ELi1ELi0ELin1ELi1EEEE4dataEv, symObjAddr: 0x7550, symBinAddr: 0x100007F5C, symSize: 0x24 }
  - { offsetInCU: 0x8083E, offset: 0x8083E, size: 0x8, addend: 0x0, symName: __ZN5Eigen8internal30plainobjectbase_evaluator_dataIdLi0EEC1EPKdl, symObjAddr: 0x7574, symBinAddr: 0x100007F80, symSize: 0x3C }
  - { offsetInCU: 0x80884, offset: 0x80884, size: 0x8, addend: 0x0, symName: __ZN5Eigen8internal14evaluator_baseINS_6MatrixIdLin1ELi1ELi0ELin1ELi1EEEED2Ev, symObjAddr: 0x75B0, symBinAddr: 0x100007FBC, symSize: 0x14 }
  - { offsetInCU: 0x808AE, offset: 0x808AE, size: 0x8, addend: 0x0, symName: __ZNK5Eigen12DenseStorageIdLin1ELin1ELi1ELi0EE4dataEv, symObjAddr: 0x75C4, symBinAddr: 0x100007FD0, symSize: 0x18 }
  - { offsetInCU: 0x808D4, offset: 0x808D4, size: 0x8, addend: 0x0, symName: __ZN5Eigen8internal30plainobjectbase_evaluator_dataIdLi0EEC2EPKdl, symObjAddr: 0x75DC, symBinAddr: 0x100007FE8, symSize: 0x40 }
  - { offsetInCU: 0x8091A, offset: 0x8091A, size: 0x8, addend: 0x0, symName: __ZN5Eigen8internal9evaluatorINS_6MatrixIdLin1ELi1ELi0ELin1ELi1EEEED2Ev, symObjAddr: 0x761C, symBinAddr: 0x100008028, symSize: 0x2C }
  - { offsetInCU: 0x80947, offset: 0x80947, size: 0x8, addend: 0x0, symName: __ZN5Eigen8internal9evaluatorINS_15PlainObjectBaseINS_6MatrixIdLin1ELi1ELi0ELin1ELi1EEEEEED2Ev, symObjAddr: 0x7648, symBinAddr: 0x100008054, symSize: 0x2C }
  - { offsetInCU: 0x80979, offset: 0x80979, size: 0x8, addend: 0x0, symName: __ZNSt3__18_IterOpsINS_17_ClassicAlgPolicyEE11__iter_moveB7v160006IRPiEENS_9enable_ifIXsr12is_referenceIDTdeclsr3stdE7declvalIRT_EEEEE5valueEDTclsr3stdE4movedeclsr3stdE7declvalIS8_EEEEE4typeEOS7_, symObjAddr: 0x779C, symBinAddr: 0x1000081A8, symSize: 0x28 }
  - { offsetInCU: 0x809A5, offset: 0x809A5, size: 0x8, addend: 0x0, symName: __ZNSt3__18_IterOpsINS_17_ClassicAlgPolicyEE25__validate_iter_referenceB7v160006IRPiEEvv, symObjAddr: 0x77C4, symBinAddr: 0x1000081D0, symSize: 0x4 }
  - { offsetInCU: 0x809C3, offset: 0x809C3, size: 0x8, addend: 0x0, symName: __ZNSt3__18_IterOpsINS_17_ClassicAlgPolicyEE4nextB7v160006IPiEET_S5_S5_, symObjAddr: 0x77C8, symBinAddr: 0x1000081D4, symSize: 0x18 }
  - { offsetInCU: 0x809FA, offset: 0x809FA, size: 0x8, addend: 0x0, symName: __ZNSt3__118__unwrap_iter_implIPiLb1EE8__unwrapB7v160006ES1_, symObjAddr: 0x80CC, symBinAddr: 0x100008AD8, symSize: 0x24 }
  - { offsetInCU: 0x80A1D, offset: 0x80A1D, size: 0x8, addend: 0x0, symName: __ZN5Eigen12DenseStorageIiLin1ELin1ELi1ELi0EE4dataEv, symObjAddr: 0x8104, symBinAddr: 0x100008B10, symSize: 0x18 }
  - { offsetInCU: 0x80A43, offset: 0x80A43, size: 0x8, addend: 0x0, symName: __ZNK5Eigen9EigenBaseINS_6MatrixIiLin1ELi1ELi0ELin1ELi1EEEE4rowsEv, symObjAddr: 0x811C, symBinAddr: 0x100008B28, symSize: 0x38 }
  - { offsetInCU: 0x80A69, offset: 0x80A69, size: 0x8, addend: 0x0, symName: __ZNK5Eigen9EigenBaseINS_6MatrixIiLin1ELi1ELi0ELin1ELi1EEEE4colsEv, symObjAddr: 0x8154, symBinAddr: 0x100008B60, symSize: 0x28 }
  - { offsetInCU: 0x80A8F, offset: 0x80A8F, size: 0x8, addend: 0x0, symName: __ZNK5Eigen9EigenBaseINS_6MatrixIiLin1ELi1ELi0ELin1ELi1EEEE7derivedEv, symObjAddr: 0x817C, symBinAddr: 0x100008B88, symSize: 0x14 }
  - { offsetInCU: 0x80AB5, offset: 0x80AB5, size: 0x8, addend: 0x0, symName: __ZZN4LLSO8sort_vecEN5Eigen6MatrixIdLin1ELi1ELi0ELin1ELi1EEEENUliiE_C2ERKS3_, symObjAddr: 0x8190, symBinAddr: 0x100008B9C, symSize: 0x34 }
  - { offsetInCU: 0x80AEA, offset: 0x80AEA, size: 0x8, addend: 0x0, symName: __ZZN4LLSO8sort_vecEN5Eigen6MatrixIdLin1ELi1ELi0ELin1ELi1EEEENUliiE_D2Ev, symObjAddr: 0x81C4, symBinAddr: 0x100008BD0, symSize: 0x2C }
  - { offsetInCU: 0x80B16, offset: 0x80B16, size: 0x8, addend: 0x0, symName: __ZN5Eigen9DenseBaseINS_6MatrixIdLin1ELi1ELi0ELin1ELi1EEEE11NullaryExprINS_8internal16scalar_random_opIdEEEEKNS_14CwiseNullaryOpIT_S2_EEllRKS9_, symObjAddr: 0x81F0, symBinAddr: 0x100008BFC, symSize: 0x48 }
  - { offsetInCU: 0x80B63, offset: 0x80B63, size: 0x8, addend: 0x0, symName: __ZN5Eigen8internal16scalar_random_opIdEC1Ev, symObjAddr: 0x8238, symBinAddr: 0x100008C44, symSize: 0x2C }
  - { offsetInCU: 0x80B8D, offset: 0x80B8D, size: 0x8, addend: 0x0, symName: __ZN5Eigen14CwiseNullaryOpINS_8internal16scalar_random_opIdEENS_6MatrixIdLin1ELi1ELi0ELin1ELi1EEEEC1EllRKS3_, symObjAddr: 0x8264, symBinAddr: 0x100008C70, symSize: 0x44 }
  - { offsetInCU: 0x80BE1, offset: 0x80BE1, size: 0x8, addend: 0x0, symName: __ZN5Eigen14CwiseNullaryOpINS_8internal16scalar_random_opIdEENS_6MatrixIdLin1ELi1ELi0ELin1ELi1EEEEC2EllRKS3_, symObjAddr: 0x82A8, symBinAddr: 0x100008CB4, symSize: 0xE8 }
  - { offsetInCU: 0x80C35, offset: 0x80C35, size: 0x8, addend: 0x0, symName: __ZN5Eigen10MatrixBaseINS_14CwiseNullaryOpINS_8internal16scalar_random_opIdEENS_6MatrixIdLin1ELi1ELi0ELin1ELi1EEEEEEC2Ev, symObjAddr: 0x8390, symBinAddr: 0x100008D9C, symSize: 0x2C }
  - { offsetInCU: 0x80C5F, offset: 0x80C5F, size: 0x8, addend: 0x0, symName: __ZN5Eigen8internal16scalar_random_opIdEC1ERKS2_, symObjAddr: 0x83BC, symBinAddr: 0x100008DC8, symSize: 0x34 }
  - { offsetInCU: 0x80C94, offset: 0x80C94, size: 0x8, addend: 0x0, symName: __ZN5Eigen9DenseBaseINS_14CwiseNullaryOpINS_8internal16scalar_random_opIdEENS_6MatrixIdLin1ELi1ELi0ELin1ELi1EEEEEEC2Ev, symObjAddr: 0x83F0, symBinAddr: 0x100008DFC, symSize: 0x14 }
  - { offsetInCU: 0x80CBE, offset: 0x80CBE, size: 0x8, addend: 0x0, symName: __ZN5Eigen8internal16scalar_random_opIdEC2ERKS2_, symObjAddr: 0x8404, symBinAddr: 0x100008E10, symSize: 0x18 }
  - { offsetInCU: 0x80CF3, offset: 0x80CF3, size: 0x8, addend: 0x0, symName: __ZN5Eigen8internal16scalar_random_opIdEC2Ev, symObjAddr: 0x841C, symBinAddr: 0x100008E28, symSize: 0x14 }
  - { offsetInCU: 0x80D1D, offset: 0x80D1D, size: 0x8, addend: 0x0, symName: __ZNK5Eigen9EigenBaseINS_14CwiseNullaryOpINS_8internal16scalar_random_opIdEENS_6MatrixIdLin1ELi1ELi0ELin1ELi1EEEEEE7derivedEv, symObjAddr: 0x8430, symBinAddr: 0x100008E3C, symSize: 0x14 }
  - { offsetInCU: 0x80D43, offset: 0x80D43, size: 0x8, addend: 0x0, symName: __ZN5Eigen12ArrayWrapperIKNS_14CwiseNullaryOpINS_8internal16scalar_random_opIdEENS_6MatrixIdLin1ELi1ELi0ELin1ELi1EEEEEEC1ERS8_, symObjAddr: 0x8444, symBinAddr: 0x100008E50, symSize: 0x34 }
  - { offsetInCU: 0x80D7B, offset: 0x80D7B, size: 0x8, addend: 0x0, symName: __ZN5Eigen12ArrayWrapperIKNS_14CwiseNullaryOpINS_8internal16scalar_random_opIdEENS_6MatrixIdLin1ELi1ELi0ELin1ELi1EEEEEEC2ERS8_, symObjAddr: 0x8478, symBinAddr: 0x100008E84, symSize: 0x3C }
  - { offsetInCU: 0x80DB3, offset: 0x80DB3, size: 0x8, addend: 0x0, symName: __ZN5Eigen9ArrayBaseINS_12ArrayWrapperIKNS_14CwiseNullaryOpINS_8internal16scalar_random_opIdEENS_6MatrixIdLin1ELi1ELi0ELin1ELi1EEEEEEEEC2Ev, symObjAddr: 0x84B4, symBinAddr: 0x100008EC0, symSize: 0x2C }
  - { offsetInCU: 0x80DDD, offset: 0x80DDD, size: 0x8, addend: 0x0, symName: __ZN5Eigen14CwiseNullaryOpINS_8internal16scalar_random_opIdEENS_6MatrixIdLin1ELi1ELi0ELin1ELi1EEEEC1ERKS6_, symObjAddr: 0x84E0, symBinAddr: 0x100008EEC, symSize: 0x34 }
  - { offsetInCU: 0x80E12, offset: 0x80E12, size: 0x8, addend: 0x0, symName: __ZN5Eigen9DenseBaseINS_12ArrayWrapperIKNS_14CwiseNullaryOpINS_8internal16scalar_random_opIdEENS_6MatrixIdLin1ELi1ELi0ELin1ELi1EEEEEEEEC2Ev, symObjAddr: 0x8514, symBinAddr: 0x100008F20, symSize: 0x14 }
  - { offsetInCU: 0x80E3C, offset: 0x80E3C, size: 0x8, addend: 0x0, symName: __ZN5Eigen14CwiseNullaryOpINS_8internal16scalar_random_opIdEENS_6MatrixIdLin1ELi1ELi0ELin1ELi1EEEEC2ERKS6_, symObjAddr: 0x8528, symBinAddr: 0x100008F34, symSize: 0x50 }
  - { offsetInCU: 0x80E71, offset: 0x80E71, size: 0x8, addend: 0x0, symName: __ZNK5Eigen9EigenBaseINS_12ArrayWrapperIKNS_14CwiseNullaryOpINS_8internal16scalar_random_opIdEENS_6MatrixIdLin1ELi1ELi0ELin1ELi1EEEEEEEE7derivedEv, symObjAddr: 0x8578, symBinAddr: 0x100008F84, symSize: 0x14 }
  - { offsetInCU: 0x80E97, offset: 0x80E97, size: 0x8, addend: 0x0, symName: __ZNK5Eigen12ArrayWrapperIKNS_14CwiseNullaryOpINS_8internal16scalar_random_opIdEENS_6MatrixIdLin1ELi1ELi0ELin1ELi1EEEEEE4rowsEv, symObjAddr: 0x858C, symBinAddr: 0x100008F98, symSize: 0x34 }
  - { offsetInCU: 0x80EBD, offset: 0x80EBD, size: 0x8, addend: 0x0, symName: __ZNK5Eigen12ArrayWrapperIKNS_14CwiseNullaryOpINS_8internal16scalar_random_opIdEENS_6MatrixIdLin1ELi1ELi0ELin1ELi1EEEEEE4colsEv, symObjAddr: 0x85C0, symBinAddr: 0x100008FCC, symSize: 0x34 }
  - { offsetInCU: 0x80EE3, offset: 0x80EE3, size: 0x8, addend: 0x0, symName: __ZN5Eigen8internal18scalar_constant_opIdEC1ERKd, symObjAddr: 0x85F4, symBinAddr: 0x100009000, symSize: 0x34 }
  - { offsetInCU: 0x80F1B, offset: 0x80F1B, size: 0x8, addend: 0x0, symName: __ZN5Eigen14CwiseNullaryOpINS_8internal18scalar_constant_opIdEEKNS_5ArrayIdLin1ELi1ELi0ELin1ELi1EEEEC1EllRKS3_, symObjAddr: 0x8628, symBinAddr: 0x100009034, symSize: 0x44 }
  - { offsetInCU: 0x80F6F, offset: 0x80F6F, size: 0x8, addend: 0x0, symName: __ZN5Eigen8internal18scalar_quotient_opIddEC1Ev, symObjAddr: 0x866C, symBinAddr: 0x100009078, symSize: 0x2C }
  - { offsetInCU: 0x80F99, offset: 0x80F99, size: 0x8, addend: 0x0, symName: __ZN5Eigen13CwiseBinaryOpINS_8internal18scalar_quotient_opIddEEKNS_12ArrayWrapperIKNS_14CwiseNullaryOpINS1_16scalar_random_opIdEENS_6MatrixIdLin1ELi1ELi0ELin1ELi1EEEEEEEKNS5_INS1_18scalar_constant_opIdEEKNS_5ArrayIdLin1ELi1ELi0ELin1ELi1EEEEEEC1ERSD_RSK_RKS3_, symObjAddr: 0x8698, symBinAddr: 0x1000090A4, symSize: 0x44 }
  - { offsetInCU: 0x80FED, offset: 0x80FED, size: 0x8, addend: 0x0, symName: __ZNK5Eigen14CwiseNullaryOpINS_8internal16scalar_random_opIdEENS_6MatrixIdLin1ELi1ELi0ELin1ELi1EEEE4rowsEv, symObjAddr: 0x86DC, symBinAddr: 0x1000090E8, symSize: 0x24 }
  - { offsetInCU: 0x81013, offset: 0x81013, size: 0x8, addend: 0x0, symName: __ZNK5Eigen14CwiseNullaryOpINS_8internal16scalar_random_opIdEENS_6MatrixIdLin1ELi1ELi0ELin1ELi1EEEE4colsEv, symObjAddr: 0x8700, symBinAddr: 0x10000910C, symSize: 0x20 }
  - { offsetInCU: 0x81039, offset: 0x81039, size: 0x8, addend: 0x0, symName: __ZN5Eigen8internal18scalar_constant_opIdEC2ERKd, symObjAddr: 0x8720, symBinAddr: 0x10000912C, symSize: 0x24 }
  - { offsetInCU: 0x81071, offset: 0x81071, size: 0x8, addend: 0x0, symName: __ZN5Eigen14CwiseNullaryOpINS_8internal18scalar_constant_opIdEEKNS_5ArrayIdLin1ELi1ELi0ELin1ELi1EEEEC2EllRKS3_, symObjAddr: 0x8744, symBinAddr: 0x100009150, symSize: 0xE8 }
  - { offsetInCU: 0x810C5, offset: 0x810C5, size: 0x8, addend: 0x0, symName: __ZN5Eigen9ArrayBaseINS_14CwiseNullaryOpINS_8internal18scalar_constant_opIdEEKNS_5ArrayIdLin1ELi1ELi0ELin1ELi1EEEEEEC2Ev, symObjAddr: 0x882C, symBinAddr: 0x100009238, symSize: 0x2C }
  - { offsetInCU: 0x810EF, offset: 0x810EF, size: 0x8, addend: 0x0, symName: __ZN5Eigen8internal18scalar_constant_opIdEC1ERKS2_, symObjAddr: 0x8858, symBinAddr: 0x100009264, symSize: 0x34 }
  - { offsetInCU: 0x81127, offset: 0x81127, size: 0x8, addend: 0x0, symName: __ZN5Eigen9DenseBaseINS_14CwiseNullaryOpINS_8internal18scalar_constant_opIdEEKNS_5ArrayIdLin1ELi1ELi0ELin1ELi1EEEEEEC2Ev, symObjAddr: 0x888C, symBinAddr: 0x100009298, symSize: 0x14 }
  - { offsetInCU: 0x81151, offset: 0x81151, size: 0x8, addend: 0x0, symName: __ZN5Eigen8internal18scalar_constant_opIdEC2ERKS2_, symObjAddr: 0x88A0, symBinAddr: 0x1000092AC, symSize: 0x24 }
  - { offsetInCU: 0x81189, offset: 0x81189, size: 0x8, addend: 0x0, symName: __ZN5Eigen8internal18scalar_quotient_opIddEC2Ev, symObjAddr: 0x88C4, symBinAddr: 0x1000092D0, symSize: 0x14 }
  - { offsetInCU: 0x811B3, offset: 0x811B3, size: 0x8, addend: 0x0, symName: __ZN5Eigen13CwiseBinaryOpINS_8internal18scalar_quotient_opIddEEKNS_12ArrayWrapperIKNS_14CwiseNullaryOpINS1_16scalar_random_opIdEENS_6MatrixIdLin1ELi1ELi0ELin1ELi1EEEEEEEKNS5_INS1_18scalar_constant_opIdEEKNS_5ArrayIdLin1ELi1ELi0ELin1ELi1EEEEEEC2ERSD_RSK_RKS3_, symObjAddr: 0x88D8, symBinAddr: 0x1000092E4, symSize: 0xFC }
  - { offsetInCU: 0x8120C, offset: 0x8120C, size: 0x8, addend: 0x0, symName: __ZN5Eigen17CwiseBinaryOpImplINS_8internal18scalar_quotient_opIddEEKNS_12ArrayWrapperIKNS_14CwiseNullaryOpINS1_16scalar_random_opIdEENS_6MatrixIdLin1ELi1ELi0ELin1ELi1EEEEEEEKNS5_INS1_18scalar_constant_opIdEEKNS_5ArrayIdLin1ELi1ELi0ELin1ELi1EEEEENS_5DenseEEC2Ev, symObjAddr: 0x89D4, symBinAddr: 0x1000093E0, symSize: 0x2C }
  - { offsetInCU: 0x81238, offset: 0x81238, size: 0x8, addend: 0x0, symName: __ZN5Eigen12ArrayWrapperIKNS_14CwiseNullaryOpINS_8internal16scalar_random_opIdEENS_6MatrixIdLin1ELi1ELi0ELin1ELi1EEEEEEC1ERKS9_, symObjAddr: 0x8A00, symBinAddr: 0x10000940C, symSize: 0x34 }
  - { offsetInCU: 0x8126D, offset: 0x8126D, size: 0x8, addend: 0x0, symName: __ZN5Eigen14CwiseNullaryOpINS_8internal18scalar_constant_opIdEEKNS_5ArrayIdLin1ELi1ELi0ELin1ELi1EEEEC1ERKS7_, symObjAddr: 0x8A34, symBinAddr: 0x100009440, symSize: 0x34 }
  - { offsetInCU: 0x812A2, offset: 0x812A2, size: 0x8, addend: 0x0, symName: __ZN5Eigen8internal18scalar_quotient_opIddEC1ERKS2_, symObjAddr: 0x8A68, symBinAddr: 0x100009474, symSize: 0x34 }
  - { offsetInCU: 0x812D7, offset: 0x812D7, size: 0x8, addend: 0x0, symName: __ZNK5Eigen14CwiseNullaryOpINS_8internal18scalar_constant_opIdEEKNS_5ArrayIdLin1ELi1ELi0ELin1ELi1EEEE4rowsEv, symObjAddr: 0x8A9C, symBinAddr: 0x1000094A8, symSize: 0x24 }
  - { offsetInCU: 0x812FD, offset: 0x812FD, size: 0x8, addend: 0x0, symName: __ZNK5Eigen14CwiseNullaryOpINS_8internal18scalar_constant_opIdEEKNS_5ArrayIdLin1ELi1ELi0ELin1ELi1EEEE4colsEv, symObjAddr: 0x8AC0, symBinAddr: 0x1000094CC, symSize: 0x20 }
  - { offsetInCU: 0x81323, offset: 0x81323, size: 0x8, addend: 0x0, symName: __ZN5Eigen9ArrayBaseINS_13CwiseBinaryOpINS_8internal18scalar_quotient_opIddEEKNS_12ArrayWrapperIKNS_14CwiseNullaryOpINS2_16scalar_random_opIdEENS_6MatrixIdLin1ELi1ELi0ELin1ELi1EEEEEEEKNS6_INS2_18scalar_constant_opIdEEKNS_5ArrayIdLin1ELi1ELi0ELin1ELi1EEEEEEEEC2Ev, symObjAddr: 0x8AE0, symBinAddr: 0x1000094EC, symSize: 0x2C }
  - { offsetInCU: 0x8134D, offset: 0x8134D, size: 0x8, addend: 0x0, symName: __ZN5Eigen9DenseBaseINS_13CwiseBinaryOpINS_8internal18scalar_quotient_opIddEEKNS_12ArrayWrapperIKNS_14CwiseNullaryOpINS2_16scalar_random_opIdEENS_6MatrixIdLin1ELi1ELi0ELin1ELi1EEEEEEEKNS6_INS2_18scalar_constant_opIdEEKNS_5ArrayIdLin1ELi1ELi0ELin1ELi1EEEEEEEEC2Ev, symObjAddr: 0x8B0C, symBinAddr: 0x100009518, symSize: 0x14 }
  - { offsetInCU: 0x81377, offset: 0x81377, size: 0x8, addend: 0x0, symName: __ZN5Eigen12ArrayWrapperIKNS_14CwiseNullaryOpINS_8internal16scalar_random_opIdEENS_6MatrixIdLin1ELi1ELi0ELin1ELi1EEEEEEC2ERKS9_, symObjAddr: 0x8B20, symBinAddr: 0x10000952C, symSize: 0x34 }
  - { offsetInCU: 0x813AC, offset: 0x813AC, size: 0x8, addend: 0x0, symName: __ZN5Eigen14CwiseNullaryOpINS_8internal18scalar_constant_opIdEEKNS_5ArrayIdLin1ELi1ELi0ELin1ELi1EEEEC2ERKS7_, symObjAddr: 0x8B54, symBinAddr: 0x100009560, symSize: 0x50 }
  - { offsetInCU: 0x813E1, offset: 0x813E1, size: 0x8, addend: 0x0, symName: __ZN5Eigen8internal18scalar_quotient_opIddEC2ERKS2_, symObjAddr: 0x8BA4, symBinAddr: 0x1000095B0, symSize: 0x18 }
  - { offsetInCU: 0x81416, offset: 0x81416, size: 0x8, addend: 0x0, symName: __ZNK5Eigen9EigenBaseINS_13CwiseBinaryOpINS_8internal18scalar_quotient_opIddEEKNS_12ArrayWrapperIKNS_14CwiseNullaryOpINS2_16scalar_random_opIdEENS_6MatrixIdLin1ELi1ELi0ELin1ELi1EEEEEEEKNS6_INS2_18scalar_constant_opIdEEKNS_5ArrayIdLin1ELi1ELi0ELin1ELi1EEEEEEEE7derivedEv, symObjAddr: 0x8BBC, symBinAddr: 0x1000095C8, symSize: 0x14 }
  - { offsetInCU: 0x8143C, offset: 0x8143C, size: 0x8, addend: 0x0, symName: __ZNK5Eigen13CwiseBinaryOpINS_8internal18scalar_quotient_opIddEEKNS_12ArrayWrapperIKNS_14CwiseNullaryOpINS1_16scalar_random_opIdEENS_6MatrixIdLin1ELi1ELi0ELin1ELi1EEEEEEEKNS5_INS1_18scalar_constant_opIdEEKNS_5ArrayIdLin1ELi1ELi0ELin1ELi1EEEEEE4rowsEv, symObjAddr: 0x8BD0, symBinAddr: 0x1000095DC, symSize: 0x28 }
  - { offsetInCU: 0x81462, offset: 0x81462, size: 0x8, addend: 0x0, symName: __ZNK5Eigen13CwiseBinaryOpINS_8internal18scalar_quotient_opIddEEKNS_12ArrayWrapperIKNS_14CwiseNullaryOpINS1_16scalar_random_opIdEENS_6MatrixIdLin1ELi1ELi0ELin1ELi1EEEEEEEKNS5_INS1_18scalar_constant_opIdEEKNS_5ArrayIdLin1ELi1ELi0ELin1ELi1EEEEEE4colsEv, symObjAddr: 0x8BF8, symBinAddr: 0x100009604, symSize: 0x28 }
  - { offsetInCU: 0x81488, offset: 0x81488, size: 0x8, addend: 0x0, symName: __ZN5Eigen8internal13scalar_sum_opIddEC1Ev, symObjAddr: 0x8C20, symBinAddr: 0x10000962C, symSize: 0x2C }
  - { offsetInCU: 0x814B2, offset: 0x814B2, size: 0x8, addend: 0x0, symName: __ZN5Eigen13CwiseBinaryOpINS_8internal13scalar_sum_opIddEEKNS0_INS1_18scalar_quotient_opIddEEKNS_12ArrayWrapperIKNS_14CwiseNullaryOpINS1_16scalar_random_opIdEENS_6MatrixIdLin1ELi1ELi0ELin1ELi1EEEEEEEKNS7_INS1_18scalar_constant_opIdEEKNS_5ArrayIdLin1ELi1ELi0ELin1ELi1EEEEEEESM_EC1ERSO_RSM_RKS3_, symObjAddr: 0x8C4C, symBinAddr: 0x100009658, symSize: 0x44 }
  - { offsetInCU: 0x81506, offset: 0x81506, size: 0x8, addend: 0x0, symName: __ZN5Eigen8internal13scalar_sum_opIddEC2Ev, symObjAddr: 0x8C90, symBinAddr: 0x10000969C, symSize: 0x14 }
  - { offsetInCU: 0x81530, offset: 0x81530, size: 0x8, addend: 0x0, symName: __ZN5Eigen13CwiseBinaryOpINS_8internal13scalar_sum_opIddEEKNS0_INS1_18scalar_quotient_opIddEEKNS_12ArrayWrapperIKNS_14CwiseNullaryOpINS1_16scalar_random_opIdEENS_6MatrixIdLin1ELi1ELi0ELin1ELi1EEEEEEEKNS7_INS1_18scalar_constant_opIdEEKNS_5ArrayIdLin1ELi1ELi0ELin1ELi1EEEEEEESM_EC2ERSO_RSM_RKS3_, symObjAddr: 0x8CA4, symBinAddr: 0x1000096B0, symSize: 0xFC }
  - { offsetInCU: 0x81589, offset: 0x81589, size: 0x8, addend: 0x0, symName: __ZN5Eigen17CwiseBinaryOpImplINS_8internal13scalar_sum_opIddEEKNS_13CwiseBinaryOpINS1_18scalar_quotient_opIddEEKNS_12ArrayWrapperIKNS_14CwiseNullaryOpINS1_16scalar_random_opIdEENS_6MatrixIdLin1ELi1ELi0ELin1ELi1EEEEEEEKNS8_INS1_18scalar_constant_opIdEEKNS_5ArrayIdLin1ELi1ELi0ELin1ELi1EEEEEEESN_NS_5DenseEEC2Ev, symObjAddr: 0x8DA0, symBinAddr: 0x1000097AC, symSize: 0x2C }
  - { offsetInCU: 0x815B5, offset: 0x815B5, size: 0x8, addend: 0x0, symName: __ZN5Eigen13CwiseBinaryOpINS_8internal18scalar_quotient_opIddEEKNS_12ArrayWrapperIKNS_14CwiseNullaryOpINS1_16scalar_random_opIdEENS_6MatrixIdLin1ELi1ELi0ELin1ELi1EEEEEEEKNS5_INS1_18scalar_constant_opIdEEKNS_5ArrayIdLin1ELi1ELi0ELin1ELi1EEEEEEC1ERKSL_, symObjAddr: 0x8DCC, symBinAddr: 0x1000097D8, symSize: 0x34 }
  - { offsetInCU: 0x815EA, offset: 0x815EA, size: 0x8, addend: 0x0, symName: __ZN5Eigen8internal13scalar_sum_opIddEC1ERKS2_, symObjAddr: 0x8E00, symBinAddr: 0x10000980C, symSize: 0x34 }
  - { offsetInCU: 0x8161F, offset: 0x8161F, size: 0x8, addend: 0x0, symName: __ZN5Eigen9ArrayBaseINS_13CwiseBinaryOpINS_8internal13scalar_sum_opIddEEKNS1_INS2_18scalar_quotient_opIddEEKNS_12ArrayWrapperIKNS_14CwiseNullaryOpINS2_16scalar_random_opIdEENS_6MatrixIdLin1ELi1ELi0ELin1ELi1EEEEEEEKNS8_INS2_18scalar_constant_opIdEEKNS_5ArrayIdLin1ELi1ELi0ELin1ELi1EEEEEEESN_EEEC2Ev, symObjAddr: 0x8E34, symBinAddr: 0x100009840, symSize: 0x2C }
  - { offsetInCU: 0x81649, offset: 0x81649, size: 0x8, addend: 0x0, symName: __ZN5Eigen9DenseBaseINS_13CwiseBinaryOpINS_8internal13scalar_sum_opIddEEKNS1_INS2_18scalar_quotient_opIddEEKNS_12ArrayWrapperIKNS_14CwiseNullaryOpINS2_16scalar_random_opIdEENS_6MatrixIdLin1ELi1ELi0ELin1ELi1EEEEEEEKNS8_INS2_18scalar_constant_opIdEEKNS_5ArrayIdLin1ELi1ELi0ELin1ELi1EEEEEEESN_EEEC2Ev, symObjAddr: 0x8E60, symBinAddr: 0x10000986C, symSize: 0x14 }
  - { offsetInCU: 0x81673, offset: 0x81673, size: 0x8, addend: 0x0, symName: __ZN5Eigen13CwiseBinaryOpINS_8internal18scalar_quotient_opIddEEKNS_12ArrayWrapperIKNS_14CwiseNullaryOpINS1_16scalar_random_opIdEENS_6MatrixIdLin1ELi1ELi0ELin1ELi1EEEEEEEKNS5_INS1_18scalar_constant_opIdEEKNS_5ArrayIdLin1ELi1ELi0ELin1ELi1EEEEEEC2ERKSL_, symObjAddr: 0x8E74, symBinAddr: 0x100009880, symSize: 0x64 }
  - { offsetInCU: 0x816A8, offset: 0x816A8, size: 0x8, addend: 0x0, symName: __ZN5Eigen8internal13scalar_sum_opIddEC2ERKS2_, symObjAddr: 0x8ED8, symBinAddr: 0x1000098E4, symSize: 0x18 }
  - { offsetInCU: 0x816DD, offset: 0x816DD, size: 0x8, addend: 0x0, symName: __ZN5Eigen6MatrixIdLin1ELi1ELi0ELin1ELi1EEC2INS_13CwiseBinaryOpINS_8internal13scalar_sum_opIddEEKNS3_INS4_18scalar_quotient_opIddEEKNS_12ArrayWrapperIKNS_14CwiseNullaryOpINS4_16scalar_random_opIdEES1_EEEEKNSA_INS4_18scalar_constant_opIdEEKNS_5ArrayIdLin1ELi1ELi0ELin1ELi1EEEEEEESN_EEEERKNS_9EigenBaseIT_EE, symObjAddr: 0x8EF0, symBinAddr: 0x1000098FC, symSize: 0x40 }
  - { offsetInCU: 0x8171F, offset: 0x8171F, size: 0x8, addend: 0x0, symName: __ZNK5Eigen9EigenBaseINS_13CwiseBinaryOpINS_8internal13scalar_sum_opIddEEKNS1_INS2_18scalar_quotient_opIddEEKNS_12ArrayWrapperIKNS_14CwiseNullaryOpINS2_16scalar_random_opIdEENS_6MatrixIdLin1ELi1ELi0ELin1ELi1EEEEEEEKNS8_INS2_18scalar_constant_opIdEEKNS_5ArrayIdLin1ELi1ELi0ELin1ELi1EEEEEEESN_EEE7derivedEv, symObjAddr: 0x8F30, symBinAddr: 0x10000993C, symSize: 0x14 }
  - { offsetInCU: 0x81745, offset: 0x81745, size: 0x8, addend: 0x0, symName: __ZN5Eigen15PlainObjectBaseINS_6MatrixIdLin1ELi1ELi0ELin1ELi1EEEEC2INS_13CwiseBinaryOpINS_8internal13scalar_sum_opIddEEKNS5_INS6_18scalar_quotient_opIddEEKNS_12ArrayWrapperIKNS_14CwiseNullaryOpINS6_16scalar_random_opIdEES2_EEEEKNSC_INS6_18scalar_constant_opIdEEKNS_5ArrayIdLin1ELi1ELi0ELin1ELi1EEEEEEESP_EEEERKNS_9DenseBaseIT_EE, symObjAddr: 0x8F44, symBinAddr: 0x100009950, symSize: 0x84 }
  - { offsetInCU: 0x81787, offset: 0x81787, size: 0x8, addend: 0x0, symName: __ZN5Eigen10MatrixBaseINS_6MatrixIdLin1ELi1ELi0ELin1ELi1EEEEC2Ev, symObjAddr: 0x8FC8, symBinAddr: 0x1000099D4, symSize: 0x2C }
  - { offsetInCU: 0x817B1, offset: 0x817B1, size: 0x8, addend: 0x0, symName: __ZN5Eigen12DenseStorageIdLin1ELin1ELi1ELi0EEC1Ev, symObjAddr: 0x8FF4, symBinAddr: 0x100009A00, symSize: 0x2C }
  - { offsetInCU: 0x817DB, offset: 0x817DB, size: 0x8, addend: 0x0, symName: __ZN5Eigen15PlainObjectBaseINS_6MatrixIdLin1ELi1ELi0ELin1ELi1EEEE22_check_template_paramsEv, symObjAddr: 0x9020, symBinAddr: 0x100009A2C, symSize: 0x4 }
  - { offsetInCU: 0x817EF, offset: 0x817EF, size: 0x8, addend: 0x0, symName: __ZN5Eigen15PlainObjectBaseINS_6MatrixIdLin1ELi1ELi0ELin1ELi1EEEE10resizeLikeINS_13CwiseBinaryOpINS_8internal13scalar_sum_opIddEEKNS5_INS6_18scalar_quotient_opIddEEKNS_12ArrayWrapperIKNS_14CwiseNullaryOpINS6_16scalar_random_opIdEES2_EEEEKNSC_INS6_18scalar_constant_opIdEEKNS_5ArrayIdLin1ELi1ELi0ELin1ELi1EEEEEEESP_EEEEvRKNS_9EigenBaseIT_EE, symObjAddr: 0x9024, symBinAddr: 0x100009A30, symSize: 0x170 }
  - { offsetInCU: 0x81883, offset: 0x81883, size: 0x8, addend: 0x0, symName: __ZN5Eigen15PlainObjectBaseINS_6MatrixIdLin1ELi1ELi0ELin1ELi1EEEE12_set_noaliasINS_13CwiseBinaryOpINS_8internal13scalar_sum_opIddEEKNS5_INS6_18scalar_quotient_opIddEEKNS_12ArrayWrapperIKNS_14CwiseNullaryOpINS6_16scalar_random_opIdEES2_EEEEKNSC_INS6_18scalar_constant_opIdEEKNS_5ArrayIdLin1ELi1ELi0ELin1ELi1EEEEEEESP_EEEERS2_RKNS_9DenseBaseIT_EE, symObjAddr: 0x9194, symBinAddr: 0x100009BA0, symSize: 0x60 }
  - { offsetInCU: 0x818C1, offset: 0x818C1, size: 0x8, addend: 0x0, symName: __ZN5Eigen9DenseBaseINS_6MatrixIdLin1ELi1ELi0ELin1ELi1EEEEC2Ev, symObjAddr: 0x91F4, symBinAddr: 0x100009C00, symSize: 0x14 }
  - { offsetInCU: 0x818EB, offset: 0x818EB, size: 0x8, addend: 0x0, symName: __ZN5Eigen12DenseStorageIdLin1ELin1ELi1ELi0EEC2Ev, symObjAddr: 0x9208, symBinAddr: 0x100009C14, symSize: 0x1C }
  - { offsetInCU: 0x81915, offset: 0x81915, size: 0x8, addend: 0x0, symName: __ZNK5Eigen13CwiseBinaryOpINS_8internal13scalar_sum_opIddEEKNS0_INS1_18scalar_quotient_opIddEEKNS_12ArrayWrapperIKNS_14CwiseNullaryOpINS1_16scalar_random_opIdEENS_6MatrixIdLin1ELi1ELi0ELin1ELi1EEEEEEEKNS7_INS1_18scalar_constant_opIdEEKNS_5ArrayIdLin1ELi1ELi0ELin1ELi1EEEEEEESM_E4rowsEv, symObjAddr: 0x9224, symBinAddr: 0x100009C30, symSize: 0x28 }
  - { offsetInCU: 0x8193B, offset: 0x8193B, size: 0x8, addend: 0x0, symName: __ZNK5Eigen13CwiseBinaryOpINS_8internal13scalar_sum_opIddEEKNS0_INS1_18scalar_quotient_opIddEEKNS_12ArrayWrapperIKNS_14CwiseNullaryOpINS1_16scalar_random_opIdEENS_6MatrixIdLin1ELi1ELi0ELin1ELi1EEEEEEEKNS7_INS1_18scalar_constant_opIdEEKNS_5ArrayIdLin1ELi1ELi0ELin1ELi1EEEEEEESM_E4colsEv, symObjAddr: 0x924C, symBinAddr: 0x100009C58, symSize: 0x28 }
  - { offsetInCU: 0x81961, offset: 0x81961, size: 0x8, addend: 0x0, symName: __ZN5Eigen15PlainObjectBaseINS_6MatrixIdLin1ELi1ELi0ELin1ELi1EEEE6resizeEll, symObjAddr: 0x9274, symBinAddr: 0x100009C80, symSize: 0x168 }
  - { offsetInCU: 0x819DD, offset: 0x819DD, size: 0x8, addend: 0x0, symName: __ZN5Eigen12DenseStorageIdLin1ELin1ELi1ELi0EE6resizeElll, symObjAddr: 0x93DC, symBinAddr: 0x100009DE8, symSize: 0xA4 }
  - { offsetInCU: 0x81A2C, offset: 0x81A2C, size: 0x8, addend: 0x0, symName: __ZN5Eigen9EigenBaseINS_6MatrixIdLin1ELi1ELi0ELin1ELi1EEEE7derivedEv, symObjAddr: 0x9540, symBinAddr: 0x100009F4C, symSize: 0x14 }
  - { offsetInCU: 0x81A52, offset: 0x81A52, size: 0x8, addend: 0x0, symName: __ZN5Eigen8internal9assign_opIddEC1Ev, symObjAddr: 0x9554, symBinAddr: 0x100009F60, symSize: 0x2C }
  - { offsetInCU: 0x81A7C, offset: 0x81A7C, size: 0x8, addend: 0x0, symName: __ZN5Eigen8internal10AssignmentINS_6MatrixIdLin1ELi1ELi0ELin1ELi1EEENS_13CwiseBinaryOpINS0_13scalar_sum_opIddEEKNS4_INS0_18scalar_quotient_opIddEEKNS_12ArrayWrapperIKNS_14CwiseNullaryOpINS0_16scalar_random_opIdEES3_EEEEKNSA_INS0_18scalar_constant_opIdEEKNS_5ArrayIdLin1ELi1ELi0ELin1ELi1EEEEEEESN_EENS0_9assign_opIddEENS0_11Dense2DenseEvE3runERS3_RKSQ_RKSS_, symObjAddr: 0x9580, symBinAddr: 0x100009F8C, symSize: 0x40 }
  - { offsetInCU: 0x81BDB, offset: 0x81BDB, size: 0x8, addend: 0x0, symName: __ZN5Eigen8internal9evaluatorINS_13CwiseBinaryOpINS0_13scalar_sum_opIddEEKNS2_INS0_18scalar_quotient_opIddEEKNS_12ArrayWrapperIKNS_14CwiseNullaryOpINS0_16scalar_random_opIdEENS_6MatrixIdLin1ELi1ELi0ELin1ELi1EEEEEEEKNS8_INS0_18scalar_constant_opIdEEKNS_5ArrayIdLin1ELi1ELi0ELin1ELi1EEEEEEESN_EEEC1ERKSQ_, symObjAddr: 0x96B4, symBinAddr: 0x10000A0C0, symSize: 0x34 }
  - { offsetInCU: 0x81C14, offset: 0x81C14, size: 0x8, addend: 0x0, symName: __ZNK5Eigen9EigenBaseINS_6MatrixIdLin1ELi1ELi0ELin1ELi1EEEE18const_cast_derivedEv, symObjAddr: 0x97E0, symBinAddr: 0x10000A1EC, symSize: 0x14 }
  - { offsetInCU: 0x81C67, offset: 0x81C67, size: 0x8, addend: 0x0, symName: __ZN5Eigen8internal31generic_dense_assignment_kernelINS0_9evaluatorINS_6MatrixIdLin1ELi1ELi0ELin1ELi1EEEEENS2_INS_13CwiseBinaryOpINS0_13scalar_sum_opIddEEKNS6_INS0_18scalar_quotient_opIddEEKNS_12ArrayWrapperIKNS_14CwiseNullaryOpINS0_16scalar_random_opIdEES4_EEEEKNSC_INS0_18scalar_constant_opIdEEKNS_5ArrayIdLin1ELi1ELi0ELin1ELi1EEEEEEESP_EEEENS0_9assign_opIddEELi0EEC1ERS5_RKST_RKSV_RS4_, symObjAddr: 0x97F4, symBinAddr: 0x10000A200, symSize: 0x4C }
  - { offsetInCU: 0x81CD2, offset: 0x81CD2, size: 0x8, addend: 0x0, symName: __ZN5Eigen8internal21dense_assignment_loopINS0_31generic_dense_assignment_kernelINS0_9evaluatorINS_6MatrixIdLin1ELi1ELi0ELin1ELi1EEEEENS3_INS_13CwiseBinaryOpINS0_13scalar_sum_opIddEEKNS7_INS0_18scalar_quotient_opIddEEKNS_12ArrayWrapperIKNS_14CwiseNullaryOpINS0_16scalar_random_opIdEES5_EEEEKNSD_INS0_18scalar_constant_opIdEEKNS_5ArrayIdLin1ELi1ELi0ELin1ELi1EEEEEEESQ_EEEENS0_9assign_opIddEELi0EEELi1ELi0EE3runERSX_, symObjAddr: 0x9840, symBinAddr: 0x10000A24C, symSize: 0x68 }
  - { offsetInCU: 0x81D22, offset: 0x81D22, size: 0x8, addend: 0x0, symName: __ZN5Eigen8internal9evaluatorINS_13CwiseBinaryOpINS0_13scalar_sum_opIddEEKNS2_INS0_18scalar_quotient_opIddEEKNS_12ArrayWrapperIKNS_14CwiseNullaryOpINS0_16scalar_random_opIdEENS_6MatrixIdLin1ELi1ELi0ELin1ELi1EEEEEEEKNS8_INS0_18scalar_constant_opIdEEKNS_5ArrayIdLin1ELi1ELi0ELin1ELi1EEEEEEESN_EEED1Ev, symObjAddr: 0x98A8, symBinAddr: 0x10000A2B4, symSize: 0x2C }
  - { offsetInCU: 0x81D4F, offset: 0x81D4F, size: 0x8, addend: 0x0, symName: __ZN5Eigen8internal9evaluatorINS_13CwiseBinaryOpINS0_13scalar_sum_opIddEEKNS2_INS0_18scalar_quotient_opIddEEKNS_12ArrayWrapperIKNS_14CwiseNullaryOpINS0_16scalar_random_opIdEENS_6MatrixIdLin1ELi1ELi0ELin1ELi1EEEEEEEKNS8_INS0_18scalar_constant_opIdEEKNS_5ArrayIdLin1ELi1ELi0ELin1ELi1EEEEEEESN_EEEC2ERKSQ_, symObjAddr: 0x98D4, symBinAddr: 0x10000A2E0, symSize: 0x34 }
  - { offsetInCU: 0x81D88, offset: 0x81D88, size: 0x8, addend: 0x0, symName: __ZN5Eigen8internal16binary_evaluatorINS_13CwiseBinaryOpINS0_13scalar_sum_opIddEEKNS2_INS0_18scalar_quotient_opIddEEKNS_12ArrayWrapperIKNS_14CwiseNullaryOpINS0_16scalar_random_opIdEENS_6MatrixIdLin1ELi1ELi0ELin1ELi1EEEEEEEKNS8_INS0_18scalar_constant_opIdEEKNS_5ArrayIdLin1ELi1ELi0ELin1ELi1EEEEEEESN_EENS0_10IndexBasedESR_ddEC2ERKSQ_, symObjAddr: 0x9908, symBinAddr: 0x10000A314, symSize: 0x64 }
  - { offsetInCU: 0x81DC1, offset: 0x81DC1, size: 0x8, addend: 0x0, symName: __ZN5Eigen8internal14evaluator_baseINS_13CwiseBinaryOpINS0_13scalar_sum_opIddEEKNS2_INS0_18scalar_quotient_opIddEEKNS_12ArrayWrapperIKNS_14CwiseNullaryOpINS0_16scalar_random_opIdEENS_6MatrixIdLin1ELi1ELi0ELin1ELi1EEEEEEEKNS8_INS0_18scalar_constant_opIdEEKNS_5ArrayIdLin1ELi1ELi0ELin1ELi1EEEEEEESN_EEEC2Ev, symObjAddr: 0x996C, symBinAddr: 0x10000A378, symSize: 0x14 }
  - { offsetInCU: 0x81DEB, offset: 0x81DEB, size: 0x8, addend: 0x0, symName: __ZN5Eigen8internal16binary_evaluatorINS_13CwiseBinaryOpINS0_13scalar_sum_opIddEEKNS2_INS0_18scalar_quotient_opIddEEKNS_12ArrayWrapperIKNS_14CwiseNullaryOpINS0_16scalar_random_opIdEENS_6MatrixIdLin1ELi1ELi0ELin1ELi1EEEEEEEKNS8_INS0_18scalar_constant_opIdEEKNS_5ArrayIdLin1ELi1ELi0ELin1ELi1EEEEEEESN_EENS0_10IndexBasedESR_ddE4DataC1ERKSQ_, symObjAddr: 0x9980, symBinAddr: 0x10000A38C, symSize: 0x34 }
  - { offsetInCU: 0x81E24, offset: 0x81E24, size: 0x8, addend: 0x0, symName: __ZN5Eigen8internal14evaluator_baseINS_13CwiseBinaryOpINS0_13scalar_sum_opIddEEKNS2_INS0_18scalar_quotient_opIddEEKNS_12ArrayWrapperIKNS_14CwiseNullaryOpINS0_16scalar_random_opIdEENS_6MatrixIdLin1ELi1ELi0ELin1ELi1EEEEEEEKNS8_INS0_18scalar_constant_opIdEEKNS_5ArrayIdLin1ELi1ELi0ELin1ELi1EEEEEEESN_EEED2Ev, symObjAddr: 0x99B4, symBinAddr: 0x10000A3C0, symSize: 0x14 }
  - { offsetInCU: 0x81E4E, offset: 0x81E4E, size: 0x8, addend: 0x0, symName: __ZN5Eigen8internal16binary_evaluatorINS_13CwiseBinaryOpINS0_13scalar_sum_opIddEEKNS2_INS0_18scalar_quotient_opIddEEKNS_12ArrayWrapperIKNS_14CwiseNullaryOpINS0_16scalar_random_opIdEENS_6MatrixIdLin1ELi1ELi0ELin1ELi1EEEEEEEKNS8_INS0_18scalar_constant_opIdEEKNS_5ArrayIdLin1ELi1ELi0ELin1ELi1EEEEEEESN_EENS0_10IndexBasedESR_ddE4DataC2ERKSQ_, symObjAddr: 0x99C8, symBinAddr: 0x10000A3D4, symSize: 0xA8 }
  - { offsetInCU: 0x81E87, offset: 0x81E87, size: 0x8, addend: 0x0, symName: __ZNK5Eigen13CwiseBinaryOpINS_8internal13scalar_sum_opIddEEKNS0_INS1_18scalar_quotient_opIddEEKNS_12ArrayWrapperIKNS_14CwiseNullaryOpINS1_16scalar_random_opIdEENS_6MatrixIdLin1ELi1ELi0ELin1ELi1EEEEEEEKNS7_INS1_18scalar_constant_opIdEEKNS_5ArrayIdLin1ELi1ELi0ELin1ELi1EEEEEEESM_E7functorEv, symObjAddr: 0x9A70, symBinAddr: 0x10000A47C, symSize: 0x18 }
  - { offsetInCU: 0x81EAD, offset: 0x81EAD, size: 0x8, addend: 0x0, symName: __ZNK5Eigen13CwiseBinaryOpINS_8internal13scalar_sum_opIddEEKNS0_INS1_18scalar_quotient_opIddEEKNS_12ArrayWrapperIKNS_14CwiseNullaryOpINS1_16scalar_random_opIdEENS_6MatrixIdLin1ELi1ELi0ELin1ELi1EEEEEEEKNS7_INS1_18scalar_constant_opIdEEKNS_5ArrayIdLin1ELi1ELi0ELin1ELi1EEEEEEESM_E3lhsEv, symObjAddr: 0x9A88, symBinAddr: 0x10000A494, symSize: 0x18 }
  - { offsetInCU: 0x81ED3, offset: 0x81ED3, size: 0x8, addend: 0x0, symName: __ZN5Eigen8internal9evaluatorIKNS_13CwiseBinaryOpINS0_18scalar_quotient_opIddEEKNS_12ArrayWrapperIKNS_14CwiseNullaryOpINS0_16scalar_random_opIdEENS_6MatrixIdLin1ELi1ELi0ELin1ELi1EEEEEEEKNS6_INS0_18scalar_constant_opIdEEKNS_5ArrayIdLin1ELi1ELi0ELin1ELi1EEEEEEEEC1ERSN_, symObjAddr: 0x9AA0, symBinAddr: 0x10000A4AC, symSize: 0x34 }
  - { offsetInCU: 0x81F0B, offset: 0x81F0B, size: 0x8, addend: 0x0, symName: __ZNK5Eigen13CwiseBinaryOpINS_8internal13scalar_sum_opIddEEKNS0_INS1_18scalar_quotient_opIddEEKNS_12ArrayWrapperIKNS_14CwiseNullaryOpINS1_16scalar_random_opIdEENS_6MatrixIdLin1ELi1ELi0ELin1ELi1EEEEEEEKNS7_INS1_18scalar_constant_opIdEEKNS_5ArrayIdLin1ELi1ELi0ELin1ELi1EEEEEEESM_E3rhsEv, symObjAddr: 0x9AD4, symBinAddr: 0x10000A4E0, symSize: 0x18 }
  - { offsetInCU: 0x81F31, offset: 0x81F31, size: 0x8, addend: 0x0, symName: __ZN5Eigen8internal9evaluatorIKNS_14CwiseNullaryOpINS0_18scalar_constant_opIdEEKNS_5ArrayIdLin1ELi1ELi0ELin1ELi1EEEEEEC1ERS9_, symObjAddr: 0x9AEC, symBinAddr: 0x10000A4F8, symSize: 0x34 }
  - { offsetInCU: 0x81F69, offset: 0x81F69, size: 0x8, addend: 0x0, symName: __ZN5Eigen8internal9evaluatorIKNS_13CwiseBinaryOpINS0_18scalar_quotient_opIddEEKNS_12ArrayWrapperIKNS_14CwiseNullaryOpINS0_16scalar_random_opIdEENS_6MatrixIdLin1ELi1ELi0ELin1ELi1EEEEEEEKNS6_INS0_18scalar_constant_opIdEEKNS_5ArrayIdLin1ELi1ELi0ELin1ELi1EEEEEEEED1Ev, symObjAddr: 0x9B20, symBinAddr: 0x10000A52C, symSize: 0x2C }
  - { offsetInCU: 0x81F95, offset: 0x81F95, size: 0x8, addend: 0x0, symName: __ZN5Eigen8internal9evaluatorIKNS_13CwiseBinaryOpINS0_18scalar_quotient_opIddEEKNS_12ArrayWrapperIKNS_14CwiseNullaryOpINS0_16scalar_random_opIdEENS_6MatrixIdLin1ELi1ELi0ELin1ELi1EEEEEEEKNS6_INS0_18scalar_constant_opIdEEKNS_5ArrayIdLin1ELi1ELi0ELin1ELi1EEEEEEEEC2ERSN_, symObjAddr: 0x9B4C, symBinAddr: 0x10000A558, symSize: 0x34 }
  - { offsetInCU: 0x81FCD, offset: 0x81FCD, size: 0x8, addend: 0x0, symName: __ZN5Eigen8internal9evaluatorINS_13CwiseBinaryOpINS0_18scalar_quotient_opIddEEKNS_12ArrayWrapperIKNS_14CwiseNullaryOpINS0_16scalar_random_opIdEENS_6MatrixIdLin1ELi1ELi0ELin1ELi1EEEEEEEKNS6_INS0_18scalar_constant_opIdEEKNS_5ArrayIdLin1ELi1ELi0ELin1ELi1EEEEEEEEC2ERKSM_, symObjAddr: 0x9B80, symBinAddr: 0x10000A58C, symSize: 0x34 }
  - { offsetInCU: 0x82006, offset: 0x82006, size: 0x8, addend: 0x0, symName: __ZN5Eigen8internal16binary_evaluatorINS_13CwiseBinaryOpINS0_18scalar_quotient_opIddEEKNS_12ArrayWrapperIKNS_14CwiseNullaryOpINS0_16scalar_random_opIdEENS_6MatrixIdLin1ELi1ELi0ELin1ELi1EEEEEEEKNS6_INS0_18scalar_constant_opIdEEKNS_5ArrayIdLin1ELi1ELi0ELin1ELi1EEEEEEENS0_10IndexBasedESN_ddEC2ERKSM_, symObjAddr: 0x9BB4, symBinAddr: 0x10000A5C0, symSize: 0x64 }
  - { offsetInCU: 0x8203F, offset: 0x8203F, size: 0x8, addend: 0x0, symName: __ZN5Eigen8internal14evaluator_baseINS_13CwiseBinaryOpINS0_18scalar_quotient_opIddEEKNS_12ArrayWrapperIKNS_14CwiseNullaryOpINS0_16scalar_random_opIdEENS_6MatrixIdLin1ELi1ELi0ELin1ELi1EEEEEEEKNS6_INS0_18scalar_constant_opIdEEKNS_5ArrayIdLin1ELi1ELi0ELin1ELi1EEEEEEEEC2Ev, symObjAddr: 0x9C18, symBinAddr: 0x10000A624, symSize: 0x14 }
  - { offsetInCU: 0x82069, offset: 0x82069, size: 0x8, addend: 0x0, symName: __ZN5Eigen8internal16binary_evaluatorINS_13CwiseBinaryOpINS0_18scalar_quotient_opIddEEKNS_12ArrayWrapperIKNS_14CwiseNullaryOpINS0_16scalar_random_opIdEENS_6MatrixIdLin1ELi1ELi0ELin1ELi1EEEEEEEKNS6_INS0_18scalar_constant_opIdEEKNS_5ArrayIdLin1ELi1ELi0ELin1ELi1EEEEEEENS0_10IndexBasedESN_ddE4DataC1ERKSM_, symObjAddr: 0x9C2C, symBinAddr: 0x10000A638, symSize: 0x34 }
  - { offsetInCU: 0x820A2, offset: 0x820A2, size: 0x8, addend: 0x0, symName: __ZN5Eigen8internal14evaluator_baseINS_13CwiseBinaryOpINS0_18scalar_quotient_opIddEEKNS_12ArrayWrapperIKNS_14CwiseNullaryOpINS0_16scalar_random_opIdEENS_6MatrixIdLin1ELi1ELi0ELin1ELi1EEEEEEEKNS6_INS0_18scalar_constant_opIdEEKNS_5ArrayIdLin1ELi1ELi0ELin1ELi1EEEEEEEED2Ev, symObjAddr: 0x9C60, symBinAddr: 0x10000A66C, symSize: 0x14 }
  - { offsetInCU: 0x820CC, offset: 0x820CC, size: 0x8, addend: 0x0, symName: __ZN5Eigen8internal16binary_evaluatorINS_13CwiseBinaryOpINS0_18scalar_quotient_opIddEEKNS_12ArrayWrapperIKNS_14CwiseNullaryOpINS0_16scalar_random_opIdEENS_6MatrixIdLin1ELi1ELi0ELin1ELi1EEEEEEEKNS6_INS0_18scalar_constant_opIdEEKNS_5ArrayIdLin1ELi1ELi0ELin1ELi1EEEEEEENS0_10IndexBasedESN_ddE4DataC2ERKSM_, symObjAddr: 0x9C74, symBinAddr: 0x10000A680, symSize: 0xA8 }
  - { offsetInCU: 0x82105, offset: 0x82105, size: 0x8, addend: 0x0, symName: __ZNK5Eigen13CwiseBinaryOpINS_8internal18scalar_quotient_opIddEEKNS_12ArrayWrapperIKNS_14CwiseNullaryOpINS1_16scalar_random_opIdEENS_6MatrixIdLin1ELi1ELi0ELin1ELi1EEEEEEEKNS5_INS1_18scalar_constant_opIdEEKNS_5ArrayIdLin1ELi1ELi0ELin1ELi1EEEEEE7functorEv, symObjAddr: 0x9D1C, symBinAddr: 0x10000A728, symSize: 0x18 }
  - { offsetInCU: 0x8212B, offset: 0x8212B, size: 0x8, addend: 0x0, symName: __ZNK5Eigen13CwiseBinaryOpINS_8internal18scalar_quotient_opIddEEKNS_12ArrayWrapperIKNS_14CwiseNullaryOpINS1_16scalar_random_opIdEENS_6MatrixIdLin1ELi1ELi0ELin1ELi1EEEEEEEKNS5_INS1_18scalar_constant_opIdEEKNS_5ArrayIdLin1ELi1ELi0ELin1ELi1EEEEEE3lhsEv, symObjAddr: 0x9D34, symBinAddr: 0x10000A740, symSize: 0x18 }
  - { offsetInCU: 0x82151, offset: 0x82151, size: 0x8, addend: 0x0, symName: __ZN5Eigen8internal9evaluatorIKNS_12ArrayWrapperIKNS_14CwiseNullaryOpINS0_16scalar_random_opIdEENS_6MatrixIdLin1ELi1ELi0ELin1ELi1EEEEEEEEC1ERSB_, symObjAddr: 0x9D4C, symBinAddr: 0x10000A758, symSize: 0x34 }
  - { offsetInCU: 0x82189, offset: 0x82189, size: 0x8, addend: 0x0, symName: __ZNK5Eigen13CwiseBinaryOpINS_8internal18scalar_quotient_opIddEEKNS_12ArrayWrapperIKNS_14CwiseNullaryOpINS1_16scalar_random_opIdEENS_6MatrixIdLin1ELi1ELi0ELin1ELi1EEEEEEEKNS5_INS1_18scalar_constant_opIdEEKNS_5ArrayIdLin1ELi1ELi0ELin1ELi1EEEEEE3rhsEv, symObjAddr: 0x9D80, symBinAddr: 0x10000A78C, symSize: 0x18 }
  - { offsetInCU: 0x821AF, offset: 0x821AF, size: 0x8, addend: 0x0, symName: __ZN5Eigen8internal9evaluatorIKNS_12ArrayWrapperIKNS_14CwiseNullaryOpINS0_16scalar_random_opIdEENS_6MatrixIdLin1ELi1ELi0ELin1ELi1EEEEEEEED1Ev, symObjAddr: 0x9D98, symBinAddr: 0x10000A7A4, symSize: 0x2C }
  - { offsetInCU: 0x821DB, offset: 0x821DB, size: 0x8, addend: 0x0, symName: __ZN5Eigen8internal9evaluatorIKNS_12ArrayWrapperIKNS_14CwiseNullaryOpINS0_16scalar_random_opIdEENS_6MatrixIdLin1ELi1ELi0ELin1ELi1EEEEEEEEC2ERSB_, symObjAddr: 0x9DC4, symBinAddr: 0x10000A7D0, symSize: 0x34 }
  - { offsetInCU: 0x82213, offset: 0x82213, size: 0x8, addend: 0x0, symName: __ZN5Eigen8internal9evaluatorINS_12ArrayWrapperIKNS_14CwiseNullaryOpINS0_16scalar_random_opIdEENS_6MatrixIdLin1ELi1ELi0ELin1ELi1EEEEEEEEC2ERKSA_, symObjAddr: 0x9DF8, symBinAddr: 0x10000A804, symSize: 0x34 }
  - { offsetInCU: 0x8224B, offset: 0x8224B, size: 0x8, addend: 0x0, symName: __ZN5Eigen8internal15unary_evaluatorINS_12ArrayWrapperIKNS_14CwiseNullaryOpINS0_16scalar_random_opIdEENS_6MatrixIdLin1ELi1ELi0ELin1ELi1EEEEEEENS0_10IndexBasedEdEC2ERKSA_, symObjAddr: 0x9E2C, symBinAddr: 0x10000A838, symSize: 0x40 }
  - { offsetInCU: 0x82284, offset: 0x82284, size: 0x8, addend: 0x0, symName: __ZNK5Eigen12ArrayWrapperIKNS_14CwiseNullaryOpINS_8internal16scalar_random_opIdEENS_6MatrixIdLin1ELi1ELi0ELin1ELi1EEEEEE16nestedExpressionEv, symObjAddr: 0x9E6C, symBinAddr: 0x10000A878, symSize: 0x14 }
  - { offsetInCU: 0x822AA, offset: 0x822AA, size: 0x8, addend: 0x0, symName: __ZN5Eigen8internal22evaluator_wrapper_baseINS_12ArrayWrapperIKNS_14CwiseNullaryOpINS0_16scalar_random_opIdEENS_6MatrixIdLin1ELi1ELi0ELin1ELi1EEEEEEEEC2ERS9_, symObjAddr: 0x9E80, symBinAddr: 0x10000A88C, symSize: 0x64 }
  - { offsetInCU: 0x822E3, offset: 0x822E3, size: 0x8, addend: 0x0, symName: __ZN5Eigen8internal14evaluator_baseINS_12ArrayWrapperIKNS_14CwiseNullaryOpINS0_16scalar_random_opIdEENS_6MatrixIdLin1ELi1ELi0ELin1ELi1EEEEEEEEC2Ev, symObjAddr: 0x9EE4, symBinAddr: 0x10000A8F0, symSize: 0x14 }
  - { offsetInCU: 0x8230D, offset: 0x8230D, size: 0x8, addend: 0x0, symName: __ZN5Eigen8internal9evaluatorINS_14CwiseNullaryOpINS0_16scalar_random_opIdEENS_6MatrixIdLin1ELi1ELi0ELin1ELi1EEEEEEC1ERKS7_, symObjAddr: 0x9EF8, symBinAddr: 0x10000A904, symSize: 0x34 }
  - { offsetInCU: 0x82346, offset: 0x82346, size: 0x8, addend: 0x0, symName: __ZN5Eigen8internal14evaluator_baseINS_12ArrayWrapperIKNS_14CwiseNullaryOpINS0_16scalar_random_opIdEENS_6MatrixIdLin1ELi1ELi0ELin1ELi1EEEEEEEED2Ev, symObjAddr: 0x9F2C, symBinAddr: 0x10000A938, symSize: 0x14 }
  - { offsetInCU: 0x82370, offset: 0x82370, size: 0x8, addend: 0x0, symName: __ZN5Eigen8internal9evaluatorINS_14CwiseNullaryOpINS0_16scalar_random_opIdEENS_6MatrixIdLin1ELi1ELi0ELin1ELi1EEEEEEC2ERKS7_, symObjAddr: 0x9F40, symBinAddr: 0x10000A94C, symSize: 0x74 }
  - { offsetInCU: 0x823A9, offset: 0x823A9, size: 0x8, addend: 0x0, symName: __ZN5Eigen8internal14evaluator_baseINS_14CwiseNullaryOpINS0_16scalar_random_opIdEENS_6MatrixIdLin1ELi1ELi0ELin1ELi1EEEEEEC2Ev, symObjAddr: 0x9FB4, symBinAddr: 0x10000A9C0, symSize: 0x14 }
  - { offsetInCU: 0x823D3, offset: 0x823D3, size: 0x8, addend: 0x0, symName: __ZNK5Eigen14CwiseNullaryOpINS_8internal16scalar_random_opIdEENS_6MatrixIdLin1ELi1ELi0ELin1ELi1EEEE7functorEv, symObjAddr: 0x9FC8, symBinAddr: 0x10000A9D4, symSize: 0x18 }
  - { offsetInCU: 0x823F9, offset: 0x823F9, size: 0x8, addend: 0x0, symName: __ZN5Eigen8internal14evaluator_baseINS_14CwiseNullaryOpINS0_16scalar_random_opIdEENS_6MatrixIdLin1ELi1ELi0ELin1ELi1EEEEEED2Ev, symObjAddr: 0x9FE0, symBinAddr: 0x10000A9EC, symSize: 0x14 }
  - { offsetInCU: 0x82423, offset: 0x82423, size: 0x8, addend: 0x0, symName: __ZN5Eigen8internal9evaluatorIKNS_12ArrayWrapperIKNS_14CwiseNullaryOpINS0_16scalar_random_opIdEENS_6MatrixIdLin1ELi1ELi0ELin1ELi1EEEEEEEED2Ev, symObjAddr: 0x9FF4, symBinAddr: 0x10000AA00, symSize: 0x2C }
  - { offsetInCU: 0x8244F, offset: 0x8244F, size: 0x8, addend: 0x0, symName: __ZN5Eigen8internal9evaluatorINS_12ArrayWrapperIKNS_14CwiseNullaryOpINS0_16scalar_random_opIdEENS_6MatrixIdLin1ELi1ELi0ELin1ELi1EEEEEEEED2Ev, symObjAddr: 0xA020, symBinAddr: 0x10000AA2C, symSize: 0x2C }
  - { offsetInCU: 0x8247B, offset: 0x8247B, size: 0x8, addend: 0x0, symName: __ZN5Eigen8internal15unary_evaluatorINS_12ArrayWrapperIKNS_14CwiseNullaryOpINS0_16scalar_random_opIdEENS_6MatrixIdLin1ELi1ELi0ELin1ELi1EEEEEEENS0_10IndexBasedEdED2Ev, symObjAddr: 0xA04C, symBinAddr: 0x10000AA58, symSize: 0x2C }
  - { offsetInCU: 0x824A8, offset: 0x824A8, size: 0x8, addend: 0x0, symName: __ZN5Eigen8internal22evaluator_wrapper_baseINS_12ArrayWrapperIKNS_14CwiseNullaryOpINS0_16scalar_random_opIdEENS_6MatrixIdLin1ELi1ELi0ELin1ELi1EEEEEEEED2Ev, symObjAddr: 0xA078, symBinAddr: 0x10000AA84, symSize: 0x34 }
  - { offsetInCU: 0x824D5, offset: 0x824D5, size: 0x8, addend: 0x0, symName: __ZN5Eigen8internal9evaluatorINS_14CwiseNullaryOpINS0_16scalar_random_opIdEENS_6MatrixIdLin1ELi1ELi0ELin1ELi1EEEEEED1Ev, symObjAddr: 0xA0AC, symBinAddr: 0x10000AAB8, symSize: 0x2C }
  - { offsetInCU: 0x82501, offset: 0x82501, size: 0x8, addend: 0x0, symName: __ZN5Eigen8internal9evaluatorINS_14CwiseNullaryOpINS0_16scalar_random_opIdEENS_6MatrixIdLin1ELi1ELi0ELin1ELi1EEEEEED2Ev, symObjAddr: 0xA0D8, symBinAddr: 0x10000AAE4, symSize: 0x2C }
  - { offsetInCU: 0x8252D, offset: 0x8252D, size: 0x8, addend: 0x0, symName: __ZN5Eigen8internal9evaluatorIKNS_14CwiseNullaryOpINS0_18scalar_constant_opIdEEKNS_5ArrayIdLin1ELi1ELi0ELin1ELi1EEEEEEC2ERS9_, symObjAddr: 0xA104, symBinAddr: 0x10000AB10, symSize: 0x34 }
  - { offsetInCU: 0x82565, offset: 0x82565, size: 0x8, addend: 0x0, symName: __ZN5Eigen8internal9evaluatorINS_14CwiseNullaryOpINS0_18scalar_constant_opIdEEKNS_5ArrayIdLin1ELi1ELi0ELin1ELi1EEEEEEC2ERKS8_, symObjAddr: 0xA138, symBinAddr: 0x10000AB44, symSize: 0x74 }
  - { offsetInCU: 0x8259E, offset: 0x8259E, size: 0x8, addend: 0x0, symName: __ZN5Eigen8internal14evaluator_baseINS_14CwiseNullaryOpINS0_18scalar_constant_opIdEEKNS_5ArrayIdLin1ELi1ELi0ELin1ELi1EEEEEEC2Ev, symObjAddr: 0xA1AC, symBinAddr: 0x10000ABB8, symSize: 0x14 }
  - { offsetInCU: 0x825C8, offset: 0x825C8, size: 0x8, addend: 0x0, symName: __ZNK5Eigen14CwiseNullaryOpINS_8internal18scalar_constant_opIdEEKNS_5ArrayIdLin1ELi1ELi0ELin1ELi1EEEE7functorEv, symObjAddr: 0xA1C0, symBinAddr: 0x10000ABCC, symSize: 0x18 }
  - { offsetInCU: 0x825EE, offset: 0x825EE, size: 0x8, addend: 0x0, symName: __ZN5Eigen8internal14evaluator_baseINS_14CwiseNullaryOpINS0_18scalar_constant_opIdEEKNS_5ArrayIdLin1ELi1ELi0ELin1ELi1EEEEEED2Ev, symObjAddr: 0xA1D8, symBinAddr: 0x10000ABE4, symSize: 0x14 }
  - { offsetInCU: 0x82618, offset: 0x82618, size: 0x8, addend: 0x0, symName: __ZN5Eigen8internal9evaluatorIKNS_13CwiseBinaryOpINS0_18scalar_quotient_opIddEEKNS_12ArrayWrapperIKNS_14CwiseNullaryOpINS0_16scalar_random_opIdEENS_6MatrixIdLin1ELi1ELi0ELin1ELi1EEEEEEEKNS6_INS0_18scalar_constant_opIdEEKNS_5ArrayIdLin1ELi1ELi0ELin1ELi1EEEEEEEED2Ev, symObjAddr: 0xA1EC, symBinAddr: 0x10000ABF8, symSize: 0x2C }
  - { offsetInCU: 0x82644, offset: 0x82644, size: 0x8, addend: 0x0, symName: __ZN5Eigen8internal9evaluatorINS_13CwiseBinaryOpINS0_18scalar_quotient_opIddEEKNS_12ArrayWrapperIKNS_14CwiseNullaryOpINS0_16scalar_random_opIdEENS_6MatrixIdLin1ELi1ELi0ELin1ELi1EEEEEEEKNS6_INS0_18scalar_constant_opIdEEKNS_5ArrayIdLin1ELi1ELi0ELin1ELi1EEEEEEEED2Ev, symObjAddr: 0xA218, symBinAddr: 0x10000AC24, symSize: 0x2C }
  - { offsetInCU: 0x82671, offset: 0x82671, size: 0x8, addend: 0x0, symName: __ZN5Eigen8internal16binary_evaluatorINS_13CwiseBinaryOpINS0_18scalar_quotient_opIddEEKNS_12ArrayWrapperIKNS_14CwiseNullaryOpINS0_16scalar_random_opIdEENS_6MatrixIdLin1ELi1ELi0ELin1ELi1EEEEEEEKNS6_INS0_18scalar_constant_opIdEEKNS_5ArrayIdLin1ELi1ELi0ELin1ELi1EEEEEEENS0_10IndexBasedESN_ddED2Ev, symObjAddr: 0xA244, symBinAddr: 0x10000AC50, symSize: 0x34 }
  - { offsetInCU: 0x8269D, offset: 0x8269D, size: 0x8, addend: 0x0, symName: __ZN5Eigen8internal16binary_evaluatorINS_13CwiseBinaryOpINS0_18scalar_quotient_opIddEEKNS_12ArrayWrapperIKNS_14CwiseNullaryOpINS0_16scalar_random_opIdEENS_6MatrixIdLin1ELi1ELi0ELin1ELi1EEEEEEEKNS6_INS0_18scalar_constant_opIdEEKNS_5ArrayIdLin1ELi1ELi0ELin1ELi1EEEEEEENS0_10IndexBasedESN_ddE4DataD1Ev, symObjAddr: 0xA278, symBinAddr: 0x10000AC84, symSize: 0x2C }
  - { offsetInCU: 0x826CA, offset: 0x826CA, size: 0x8, addend: 0x0, symName: __ZN5Eigen8internal16binary_evaluatorINS_13CwiseBinaryOpINS0_18scalar_quotient_opIddEEKNS_12ArrayWrapperIKNS_14CwiseNullaryOpINS0_16scalar_random_opIdEENS_6MatrixIdLin1ELi1ELi0ELin1ELi1EEEEEEEKNS6_INS0_18scalar_constant_opIdEEKNS_5ArrayIdLin1ELi1ELi0ELin1ELi1EEEEEEENS0_10IndexBasedESN_ddE4DataD2Ev, symObjAddr: 0xA2A4, symBinAddr: 0x10000ACB0, symSize: 0x3C }
  - { offsetInCU: 0x826F7, offset: 0x826F7, size: 0x8, addend: 0x0, symName: __ZN5Eigen8internal9evaluatorIKNS_14CwiseNullaryOpINS0_18scalar_constant_opIdEEKNS_5ArrayIdLin1ELi1ELi0ELin1ELi1EEEEEED1Ev, symObjAddr: 0xA2E0, symBinAddr: 0x10000ACEC, symSize: 0x2C }
  - { offsetInCU: 0x82723, offset: 0x82723, size: 0x8, addend: 0x0, symName: __ZN5Eigen8internal9evaluatorIKNS_14CwiseNullaryOpINS0_18scalar_constant_opIdEEKNS_5ArrayIdLin1ELi1ELi0ELin1ELi1EEEEEED2Ev, symObjAddr: 0xA30C, symBinAddr: 0x10000AD18, symSize: 0x2C }
  - { offsetInCU: 0x8274F, offset: 0x8274F, size: 0x8, addend: 0x0, symName: __ZN5Eigen8internal9evaluatorINS_14CwiseNullaryOpINS0_18scalar_constant_opIdEEKNS_5ArrayIdLin1ELi1ELi0ELin1ELi1EEEEEED2Ev, symObjAddr: 0xA338, symBinAddr: 0x10000AD44, symSize: 0x2C }
  - { offsetInCU: 0x8277B, offset: 0x8277B, size: 0x8, addend: 0x0, symName: __ZN5Eigen8internal31generic_dense_assignment_kernelINS0_9evaluatorINS_6MatrixIdLin1ELi1ELi0ELin1ELi1EEEEENS2_INS_13CwiseBinaryOpINS0_13scalar_sum_opIddEEKNS6_INS0_18scalar_quotient_opIddEEKNS_12ArrayWrapperIKNS_14CwiseNullaryOpINS0_16scalar_random_opIdEES4_EEEEKNSC_INS0_18scalar_constant_opIdEEKNS_5ArrayIdLin1ELi1ELi0ELin1ELi1EEEEEEESP_EEEENS0_9assign_opIddEELi0EEC2ERS5_RKST_RKSV_RS4_, symObjAddr: 0xA364, symBinAddr: 0x10000AD70, symSize: 0x44 }
  - { offsetInCU: 0x827E1, offset: 0x827E1, size: 0x8, addend: 0x0, symName: __ZNK5Eigen8internal31generic_dense_assignment_kernelINS0_9evaluatorINS_6MatrixIdLin1ELi1ELi0ELin1ELi1EEEEENS2_INS_13CwiseBinaryOpINS0_13scalar_sum_opIddEEKNS6_INS0_18scalar_quotient_opIddEEKNS_12ArrayWrapperIKNS_14CwiseNullaryOpINS0_16scalar_random_opIdEES4_EEEEKNSC_INS0_18scalar_constant_opIdEEKNS_5ArrayIdLin1ELi1ELi0ELin1ELi1EEEEEEESP_EEEENS0_9assign_opIddEELi0EE4sizeEv, symObjAddr: 0xA3A8, symBinAddr: 0x10000ADB4, symSize: 0x28 }
  - { offsetInCU: 0x82807, offset: 0x82807, size: 0x8, addend: 0x0, symName: __ZN5Eigen8internal31generic_dense_assignment_kernelINS0_9evaluatorINS_6MatrixIdLin1ELi1ELi0ELin1ELi1EEEEENS2_INS_13CwiseBinaryOpINS0_13scalar_sum_opIddEEKNS6_INS0_18scalar_quotient_opIddEEKNS_12ArrayWrapperIKNS_14CwiseNullaryOpINS0_16scalar_random_opIdEES4_EEEEKNSC_INS0_18scalar_constant_opIdEEKNS_5ArrayIdLin1ELi1ELi0ELin1ELi1EEEEEEESP_EEEENS0_9assign_opIddEELi0EE11assignCoeffEl, symObjAddr: 0xA3D0, symBinAddr: 0x10000ADDC, symSize: 0x64 }
  - { offsetInCU: 0x8283C, offset: 0x8283C, size: 0x8, addend: 0x0, symName: __ZNK5Eigen8internal9assign_opIddE11assignCoeffERdRKd, symObjAddr: 0xA434, symBinAddr: 0x10000AE40, symSize: 0x28 }
  - { offsetInCU: 0x8287E, offset: 0x8287E, size: 0x8, addend: 0x0, symName: __ZN5Eigen8internal9evaluatorINS_15PlainObjectBaseINS_6MatrixIdLin1ELi1ELi0ELin1ELi1EEEEEE8coeffRefEl, symObjAddr: 0xA45C, symBinAddr: 0x10000AE68, symSize: 0x24 }
  - { offsetInCU: 0x828B2, offset: 0x828B2, size: 0x8, addend: 0x0, symName: __ZNK5Eigen8internal16binary_evaluatorINS_13CwiseBinaryOpINS0_13scalar_sum_opIddEEKNS2_INS0_18scalar_quotient_opIddEEKNS_12ArrayWrapperIKNS_14CwiseNullaryOpINS0_16scalar_random_opIdEENS_6MatrixIdLin1ELi1ELi0ELin1ELi1EEEEEEEKNS8_INS0_18scalar_constant_opIdEEKNS_5ArrayIdLin1ELi1ELi0ELin1ELi1EEEEEEESN_EENS0_10IndexBasedESR_ddE5coeffEl, symObjAddr: 0xA480, symBinAddr: 0x10000AE8C, symSize: 0x70 }
  - { offsetInCU: 0x828E7, offset: 0x828E7, size: 0x8, addend: 0x0, symName: __ZNK5Eigen8internal16binary_evaluatorINS_13CwiseBinaryOpINS0_13scalar_sum_opIddEEKNS2_INS0_18scalar_quotient_opIddEEKNS_12ArrayWrapperIKNS_14CwiseNullaryOpINS0_16scalar_random_opIdEENS_6MatrixIdLin1ELi1ELi0ELin1ELi1EEEEEEEKNS8_INS0_18scalar_constant_opIdEEKNS_5ArrayIdLin1ELi1ELi0ELin1ELi1EEEEEEESN_EENS0_10IndexBasedESR_ddE4Data4funcEv, symObjAddr: 0xA4F0, symBinAddr: 0x10000AEFC, symSize: 0x14 }
  - { offsetInCU: 0x8290D, offset: 0x8290D, size: 0x8, addend: 0x0, symName: __ZNK5Eigen8internal13scalar_sum_opIddEclERKdS4_, symObjAddr: 0xA504, symBinAddr: 0x10000AF10, symSize: 0x2C }
  - { offsetInCU: 0x8294F, offset: 0x8294F, size: 0x8, addend: 0x0, symName: __ZNK5Eigen8internal16binary_evaluatorINS_13CwiseBinaryOpINS0_18scalar_quotient_opIddEEKNS_12ArrayWrapperIKNS_14CwiseNullaryOpINS0_16scalar_random_opIdEENS_6MatrixIdLin1ELi1ELi0ELin1ELi1EEEEEEEKNS6_INS0_18scalar_constant_opIdEEKNS_5ArrayIdLin1ELi1ELi0ELin1ELi1EEEEEEENS0_10IndexBasedESN_ddE5coeffEl, symObjAddr: 0xA530, symBinAddr: 0x10000AF3C, symSize: 0x70 }
  - { offsetInCU: 0x8298E, offset: 0x8298E, size: 0x8, addend: 0x0, symName: __ZNK5Eigen8internal9evaluatorINS_14CwiseNullaryOpINS0_18scalar_constant_opIdEEKNS_5ArrayIdLin1ELi1ELi0ELin1ELi1EEEEEE5coeffIlEEdT_, symObjAddr: 0xA5A0, symBinAddr: 0x10000AFAC, symSize: 0x38 }
  - { offsetInCU: 0x829CC, offset: 0x829CC, size: 0x8, addend: 0x0, symName: __ZNK5Eigen8internal16binary_evaluatorINS_13CwiseBinaryOpINS0_18scalar_quotient_opIddEEKNS_12ArrayWrapperIKNS_14CwiseNullaryOpINS0_16scalar_random_opIdEENS_6MatrixIdLin1ELi1ELi0ELin1ELi1EEEEEEEKNS6_INS0_18scalar_constant_opIdEEKNS_5ArrayIdLin1ELi1ELi0ELin1ELi1EEEEEEENS0_10IndexBasedESN_ddE4Data4funcEv, symObjAddr: 0xA5D8, symBinAddr: 0x10000AFE4, symSize: 0x14 }
  - { offsetInCU: 0x829F2, offset: 0x829F2, size: 0x8, addend: 0x0, symName: __ZNK5Eigen8internal18scalar_quotient_opIddEclERKdS4_, symObjAddr: 0xA5EC, symBinAddr: 0x10000AFF8, symSize: 0x2C }
  - { offsetInCU: 0x82A36, offset: 0x82A36, size: 0x8, addend: 0x0, symName: __ZNK5Eigen8internal22evaluator_wrapper_baseINS_12ArrayWrapperIKNS_14CwiseNullaryOpINS0_16scalar_random_opIdEENS_6MatrixIdLin1ELi1ELi0ELin1ELi1EEEEEEEE5coeffEl, symObjAddr: 0xA618, symBinAddr: 0x10000B024, symSize: 0x2C }
  - { offsetInCU: 0x82A75, offset: 0x82A75, size: 0x8, addend: 0x0, symName: __ZNK5Eigen8internal9evaluatorINS_14CwiseNullaryOpINS0_16scalar_random_opIdEENS_6MatrixIdLin1ELi1ELi0ELin1ELi1EEEEEE5coeffIlEEdT_, symObjAddr: 0xA644, symBinAddr: 0x10000B050, symSize: 0x38 }
  - { offsetInCU: 0x82AB8, offset: 0x82AB8, size: 0x8, addend: 0x0, symName: __ZNK5Eigen8internal15nullary_wrapperIdNS0_16scalar_random_opIdEELb1ELb0ELb0EEclIlEEdRKS3_T_S8_, symObjAddr: 0xA67C, symBinAddr: 0x10000B088, symSize: 0x30 }
  - { offsetInCU: 0x82B0C, offset: 0x82B0C, size: 0x8, addend: 0x0, symName: __ZNK5Eigen8internal16scalar_random_opIdEclEv, symObjAddr: 0xA6AC, symBinAddr: 0x10000B0B8, symSize: 0x20 }
  - { offsetInCU: 0x82B32, offset: 0x82B32, size: 0x8, addend: 0x0, symName: __ZN5Eigen8internal19random_default_implIdLb0ELb0EE3runEv, symObjAddr: 0xA6E0, symBinAddr: 0x10000B0EC, symSize: 0x34 }
  - { offsetInCU: 0x82B46, offset: 0x82B46, size: 0x8, addend: 0x0, symName: __ZN5Eigen8internal19random_default_implIdLb0ELb0EE3runERKdS4_, symObjAddr: 0xA714, symBinAddr: 0x10000B120, symSize: 0x68 }
  - { offsetInCU: 0x82B7E, offset: 0x82B7E, size: 0x8, addend: 0x0, symName: __ZNK5Eigen8internal15nullary_wrapperIdNS0_18scalar_constant_opIdEELb1ELb0ELb0EEclIlEEdRKS3_T_S8_, symObjAddr: 0xA77C, symBinAddr: 0x10000B188, symSize: 0x30 }
  - { offsetInCU: 0x82BD2, offset: 0x82BD2, size: 0x8, addend: 0x0, symName: __ZNK5Eigen8internal18scalar_constant_opIdEclEv, symObjAddr: 0xA7AC, symBinAddr: 0x10000B1B8, symSize: 0x18 }
  - { offsetInCU: 0x82BF8, offset: 0x82BF8, size: 0x8, addend: 0x0, symName: __ZN5Eigen8internal9evaluatorINS_13CwiseBinaryOpINS0_13scalar_sum_opIddEEKNS2_INS0_18scalar_quotient_opIddEEKNS_12ArrayWrapperIKNS_14CwiseNullaryOpINS0_16scalar_random_opIdEENS_6MatrixIdLin1ELi1ELi0ELin1ELi1EEEEEEEKNS8_INS0_18scalar_constant_opIdEEKNS_5ArrayIdLin1ELi1ELi0ELin1ELi1EEEEEEESN_EEED2Ev, symObjAddr: 0xA7C4, symBinAddr: 0x10000B1D0, symSize: 0x2C }
  - { offsetInCU: 0x82C25, offset: 0x82C25, size: 0x8, addend: 0x0, symName: __ZN5Eigen8internal16binary_evaluatorINS_13CwiseBinaryOpINS0_13scalar_sum_opIddEEKNS2_INS0_18scalar_quotient_opIddEEKNS_12ArrayWrapperIKNS_14CwiseNullaryOpINS0_16scalar_random_opIdEENS_6MatrixIdLin1ELi1ELi0ELin1ELi1EEEEEEEKNS8_INS0_18scalar_constant_opIdEEKNS_5ArrayIdLin1ELi1ELi0ELin1ELi1EEEEEEESN_EENS0_10IndexBasedESR_ddED2Ev, symObjAddr: 0xA7F0, symBinAddr: 0x10000B1FC, symSize: 0x34 }
  - { offsetInCU: 0x82C51, offset: 0x82C51, size: 0x8, addend: 0x0, symName: __ZN5Eigen8internal16binary_evaluatorINS_13CwiseBinaryOpINS0_13scalar_sum_opIddEEKNS2_INS0_18scalar_quotient_opIddEEKNS_12ArrayWrapperIKNS_14CwiseNullaryOpINS0_16scalar_random_opIdEENS_6MatrixIdLin1ELi1ELi0ELin1ELi1EEEEEEEKNS8_INS0_18scalar_constant_opIdEEKNS_5ArrayIdLin1ELi1ELi0ELin1ELi1EEEEEEESN_EENS0_10IndexBasedESR_ddE4DataD1Ev, symObjAddr: 0xA824, symBinAddr: 0x10000B230, symSize: 0x2C }
  - { offsetInCU: 0x82C7E, offset: 0x82C7E, size: 0x8, addend: 0x0, symName: __ZN5Eigen8internal16binary_evaluatorINS_13CwiseBinaryOpINS0_13scalar_sum_opIddEEKNS2_INS0_18scalar_quotient_opIddEEKNS_12ArrayWrapperIKNS_14CwiseNullaryOpINS0_16scalar_random_opIdEENS_6MatrixIdLin1ELi1ELi0ELin1ELi1EEEEEEEKNS8_INS0_18scalar_constant_opIdEEKNS_5ArrayIdLin1ELi1ELi0ELin1ELi1EEEEEEESN_EENS0_10IndexBasedESR_ddE4DataD2Ev, symObjAddr: 0xA850, symBinAddr: 0x10000B25C, symSize: 0x3C }
  - { offsetInCU: 0x82CAB, offset: 0x82CAB, size: 0x8, addend: 0x0, symName: __ZN5Eigen8internal9assign_opIddEC2Ev, symObjAddr: 0xA88C, symBinAddr: 0x10000B298, symSize: 0x14 }
  - { offsetInCU: 0x82CD5, offset: 0x82CD5, size: 0x8, addend: 0x0, symName: __ZN5Eigen9TransposeINS_6MatrixIdLin1ELi1ELi0ELin1ELi1EEEEC1ERS2_, symObjAddr: 0xA8A0, symBinAddr: 0x10000B2AC, symSize: 0x34 }
  - { offsetInCU: 0x82D0D, offset: 0x82D0D, size: 0x8, addend: 0x0, symName: __ZN5Eigen9TransposeINS_6MatrixIdLin1ELi1ELi0ELin1ELi1EEEEC2ERS2_, symObjAddr: 0xA8D4, symBinAddr: 0x10000B2E0, symSize: 0x38 }
  - { offsetInCU: 0x82D45, offset: 0x82D45, size: 0x8, addend: 0x0, symName: __ZN5Eigen13TransposeImplINS_6MatrixIdLin1ELi1ELi0ELin1ELi1EEENS_5DenseEEC2Ev, symObjAddr: 0xA90C, symBinAddr: 0x10000B318, symSize: 0x2C }
  - { offsetInCU: 0x82D6F, offset: 0x82D6F, size: 0x8, addend: 0x0, symName: __ZN5Eigen10MatrixBaseINS_9TransposeINS_6MatrixIdLin1ELi1ELi0ELin1ELi1EEEEEEC2Ev, symObjAddr: 0xA938, symBinAddr: 0x10000B344, symSize: 0x2C }
  - { offsetInCU: 0x82D99, offset: 0x82D99, size: 0x8, addend: 0x0, symName: __ZN5Eigen9DenseBaseINS_9TransposeINS_6MatrixIdLin1ELi1ELi0ELin1ELi1EEEEEEC2Ev, symObjAddr: 0xA964, symBinAddr: 0x10000B370, symSize: 0x14 }
  - { offsetInCU: 0x82DC3, offset: 0x82DC3, size: 0x8, addend: 0x0, symName: __ZNK5Eigen9EigenBaseINS_9TransposeINS_6MatrixIdLin1ELi1ELi0ELin1ELi1EEEEEE7derivedEv, symObjAddr: 0xA978, symBinAddr: 0x10000B384, symSize: 0x14 }
  - { offsetInCU: 0x82DE9, offset: 0x82DE9, size: 0x8, addend: 0x0, symName: __ZNK5Eigen9EigenBaseINS_5BlockINS_6MatrixIdLin1ELin1ELi0ELin1ELin1EEELi1ELin1ELb0EEEE7derivedEv, symObjAddr: 0xA98C, symBinAddr: 0x10000B398, symSize: 0x14 }
  - { offsetInCU: 0x82E0F, offset: 0x82E0F, size: 0x8, addend: 0x0, symName: __ZN5Eigen8internal17scalar_product_opIddEC1Ev, symObjAddr: 0xA9A0, symBinAddr: 0x10000B3AC, symSize: 0x2C }
  - { offsetInCU: 0x82E39, offset: 0x82E39, size: 0x8, addend: 0x0, symName: __ZN5Eigen13CwiseBinaryOpINS_8internal17scalar_product_opIddEEKNS_9TransposeINS_6MatrixIdLin1ELi1ELi0ELin1ELi1EEEEEKNS_5BlockINS5_IdLin1ELin1ELi0ELin1ELin1EEELi1ELin1ELb0EEEEC1ERS8_RSC_RKS3_, symObjAddr: 0xA9CC, symBinAddr: 0x10000B3D8, symSize: 0x44 }
  - { offsetInCU: 0x82E8D, offset: 0x82E8D, size: 0x8, addend: 0x0, symName: __ZN5Eigen8internal17scalar_product_opIddEC2Ev, symObjAddr: 0xAA10, symBinAddr: 0x10000B41C, symSize: 0x14 }
  - { offsetInCU: 0x82EB7, offset: 0x82EB7, size: 0x8, addend: 0x0, symName: __ZN5Eigen13CwiseBinaryOpINS_8internal17scalar_product_opIddEEKNS_9TransposeINS_6MatrixIdLin1ELi1ELi0ELin1ELi1EEEEEKNS_5BlockINS5_IdLin1ELin1ELi0ELin1ELin1EEELi1ELin1ELb0EEEEC2ERS8_RSC_RKS3_, symObjAddr: 0xAA24, symBinAddr: 0x10000B430, symSize: 0x100 }
  - { offsetInCU: 0x82F10, offset: 0x82F10, size: 0x8, addend: 0x0, symName: __ZN5Eigen17CwiseBinaryOpImplINS_8internal17scalar_product_opIddEEKNS_9TransposeINS_6MatrixIdLin1ELi1ELi0ELin1ELi1EEEEEKNS_5BlockINS5_IdLin1ELin1ELi0ELin1ELin1EEELi1ELin1ELb0EEENS_5DenseEEC2Ev, symObjAddr: 0xAB24, symBinAddr: 0x10000B530, symSize: 0x2C }
  - { offsetInCU: 0x82F3C, offset: 0x82F3C, size: 0x8, addend: 0x0, symName: __ZN5Eigen8internal17scalar_product_opIddEC1ERKS2_, symObjAddr: 0xAB50, symBinAddr: 0x10000B55C, symSize: 0x34 }
  - { offsetInCU: 0x82F71, offset: 0x82F71, size: 0x8, addend: 0x0, symName: __ZNK5Eigen9TransposeINS_6MatrixIdLin1ELi1ELi0ELin1ELi1EEEE4rowsEv, symObjAddr: 0xAB84, symBinAddr: 0x10000B590, symSize: 0x28 }
  - { offsetInCU: 0x82F97, offset: 0x82F97, size: 0x8, addend: 0x0, symName: __ZNK5Eigen7MapBaseINS_5BlockINS_6MatrixIdLin1ELin1ELi0ELin1ELin1EEELi1ELin1ELb0EEELi0EE4rowsEv, symObjAddr: 0xABAC, symBinAddr: 0x10000B5B8, symSize: 0x20 }
  - { offsetInCU: 0x82FBD, offset: 0x82FBD, size: 0x8, addend: 0x0, symName: __ZNK5Eigen9TransposeINS_6MatrixIdLin1ELi1ELi0ELin1ELi1EEEE4colsEv, symObjAddr: 0xABCC, symBinAddr: 0x10000B5D8, symSize: 0x28 }
  - { offsetInCU: 0x82FE3, offset: 0x82FE3, size: 0x8, addend: 0x0, symName: __ZNK5Eigen7MapBaseINS_5BlockINS_6MatrixIdLin1ELin1ELi0ELin1ELin1EEELi1ELin1ELb0EEELi0EE4colsEv, symObjAddr: 0xABF4, symBinAddr: 0x10000B600, symSize: 0x28 }
  - { offsetInCU: 0x83009, offset: 0x83009, size: 0x8, addend: 0x0, symName: __ZN5Eigen10MatrixBaseINS_13CwiseBinaryOpINS_8internal17scalar_product_opIddEEKNS_9TransposeINS_6MatrixIdLin1ELi1ELi0ELin1ELi1EEEEEKNS_5BlockINS6_IdLin1ELin1ELi0ELin1ELin1EEELi1ELin1ELb0EEEEEEC2Ev, symObjAddr: 0xAC1C, symBinAddr: 0x10000B628, symSize: 0x2C }
  - { offsetInCU: 0x83033, offset: 0x83033, size: 0x8, addend: 0x0, symName: __ZN5Eigen9DenseBaseINS_13CwiseBinaryOpINS_8internal17scalar_product_opIddEEKNS_9TransposeINS_6MatrixIdLin1ELi1ELi0ELin1ELi1EEEEEKNS_5BlockINS6_IdLin1ELin1ELi0ELin1ELin1EEELi1ELin1ELb0EEEEEEC2Ev, symObjAddr: 0xAC48, symBinAddr: 0x10000B654, symSize: 0x14 }
  - { offsetInCU: 0x8305D, offset: 0x8305D, size: 0x8, addend: 0x0, symName: __ZN5Eigen8internal17scalar_product_opIddEC2ERKS2_, symObjAddr: 0xAC5C, symBinAddr: 0x10000B668, symSize: 0x18 }
  - { offsetInCU: 0x83092, offset: 0x83092, size: 0x8, addend: 0x0, symName: __ZN5Eigen15DenseCoeffsBaseINS_6MatrixIiLin1ELi1ELi0ELin1ELi1EEELi1EE8coeffRefEl, symObjAddr: 0xAC74, symBinAddr: 0x10000B680, symSize: 0x58 }
  - { offsetInCU: 0x830C7, offset: 0x830C7, size: 0x8, addend: 0x0, symName: __ZNK5Eigen9EigenBaseINS_13CwiseBinaryOpINS_8internal17scalar_product_opIddEEKNS_9TransposeINS_6MatrixIdLin1ELi1ELi0ELin1ELi1EEEEEKNS_5BlockINS6_IdLin1ELin1ELi0ELin1ELin1EEELi1ELin1ELb0EEEEEE7derivedEv, symObjAddr: 0xACCC, symBinAddr: 0x10000B6D8, symSize: 0x14 }
  - { offsetInCU: 0x830ED, offset: 0x830ED, size: 0x8, addend: 0x0, symName: __ZNK5Eigen9EigenBaseINS_13CwiseBinaryOpINS_8internal17scalar_product_opIddEEKNS_9TransposeINS_6MatrixIdLin1ELi1ELi0ELin1ELi1EEEEEKNS1_INS2_20scalar_difference_opIddEEKNS_5BlockINS6_IdLin1ELin1ELi0ELin1ELin1EEELi1ELin1ELb0EEESF_EEEEE7derivedEv, symObjAddr: 0xACE0, symBinAddr: 0x10000B6EC, symSize: 0x14 }
  - { offsetInCU: 0x83113, offset: 0x83113, size: 0x8, addend: 0x0, symName: __ZN5Eigen13CwiseBinaryOpINS_8internal13scalar_sum_opIddEEKNS0_INS1_17scalar_product_opIddEEKNS_9TransposeINS_6MatrixIdLin1ELi1ELi0ELin1ELi1EEEEEKNS_5BlockINS7_IdLin1ELin1ELi0ELin1ELin1EEELi1ELin1ELb0EEEEEKNS0_IS5_SA_KNS0_INS1_20scalar_difference_opIddEESE_SE_EEEEEC1ERSG_RSM_RKS3_, symObjAddr: 0xACF4, symBinAddr: 0x10000B700, symSize: 0x44 }
  - { offsetInCU: 0x83167, offset: 0x83167, size: 0x8, addend: 0x0, symName: __ZN5Eigen13CwiseBinaryOpINS_8internal13scalar_sum_opIddEEKNS0_INS1_17scalar_product_opIddEEKNS_9TransposeINS_6MatrixIdLin1ELi1ELi0ELin1ELi1EEEEEKNS_5BlockINS7_IdLin1ELin1ELi0ELin1ELin1EEELi1ELin1ELb0EEEEEKNS0_IS5_SA_KNS0_INS1_20scalar_difference_opIddEESE_SE_EEEEEC2ERSG_RSM_RKS3_, symObjAddr: 0xAD38, symBinAddr: 0x10000B744, symSize: 0xFC }
  - { offsetInCU: 0x831C0, offset: 0x831C0, size: 0x8, addend: 0x0, symName: __ZN5Eigen17CwiseBinaryOpImplINS_8internal13scalar_sum_opIddEEKNS_13CwiseBinaryOpINS1_17scalar_product_opIddEEKNS_9TransposeINS_6MatrixIdLin1ELi1ELi0ELin1ELi1EEEEEKNS_5BlockINS8_IdLin1ELin1ELi0ELin1ELin1EEELi1ELin1ELb0EEEEEKNS4_IS6_SB_KNS4_INS1_20scalar_difference_opIddEESF_SF_EEEENS_5DenseEEC2Ev, symObjAddr: 0xAE34, symBinAddr: 0x10000B840, symSize: 0x2C }
  - { offsetInCU: 0x831EC, offset: 0x831EC, size: 0x8, addend: 0x0, symName: __ZN5Eigen13CwiseBinaryOpINS_8internal17scalar_product_opIddEEKNS_9TransposeINS_6MatrixIdLin1ELi1ELi0ELin1ELi1EEEEEKNS_5BlockINS5_IdLin1ELin1ELi0ELin1ELin1EEELi1ELin1ELb0EEEEC1ERKSD_, symObjAddr: 0xAE60, symBinAddr: 0x10000B86C, symSize: 0x34 }
  - { offsetInCU: 0x83221, offset: 0x83221, size: 0x8, addend: 0x0, symName: __ZN5Eigen13CwiseBinaryOpINS_8internal17scalar_product_opIddEEKNS_9TransposeINS_6MatrixIdLin1ELi1ELi0ELin1ELi1EEEEEKNS0_INS1_20scalar_difference_opIddEEKNS_5BlockINS5_IdLin1ELin1ELi0ELin1ELin1EEELi1ELin1ELb0EEESE_EEEC1ERKSH_, symObjAddr: 0xAE94, symBinAddr: 0x10000B8A0, symSize: 0x34 }
  - { offsetInCU: 0x83256, offset: 0x83256, size: 0x8, addend: 0x0, symName: __ZNK5Eigen13CwiseBinaryOpINS_8internal17scalar_product_opIddEEKNS_9TransposeINS_6MatrixIdLin1ELi1ELi0ELin1ELi1EEEEEKNS_5BlockINS5_IdLin1ELin1ELi0ELin1ELin1EEELi1ELin1ELb0EEEE4rowsEv, symObjAddr: 0xAEC8, symBinAddr: 0x10000B8D4, symSize: 0x24 }
  - { offsetInCU: 0x8327C, offset: 0x8327C, size: 0x8, addend: 0x0, symName: __ZNK5Eigen13CwiseBinaryOpINS_8internal17scalar_product_opIddEEKNS_9TransposeINS_6MatrixIdLin1ELi1ELi0ELin1ELi1EEEEEKNS0_INS1_20scalar_difference_opIddEEKNS_5BlockINS5_IdLin1ELin1ELi0ELin1ELin1EEELi1ELin1ELb0EEESE_EEE4rowsEv, symObjAddr: 0xAEEC, symBinAddr: 0x10000B8F8, symSize: 0x24 }
  - { offsetInCU: 0x832A2, offset: 0x832A2, size: 0x8, addend: 0x0, symName: __ZNK5Eigen13CwiseBinaryOpINS_8internal17scalar_product_opIddEEKNS_9TransposeINS_6MatrixIdLin1ELi1ELi0ELin1ELi1EEEEEKNS_5BlockINS5_IdLin1ELin1ELi0ELin1ELin1EEELi1ELin1ELb0EEEE4colsEv, symObjAddr: 0xAF10, symBinAddr: 0x10000B91C, symSize: 0x28 }
  - { offsetInCU: 0x832C8, offset: 0x832C8, size: 0x8, addend: 0x0, symName: __ZNK5Eigen13CwiseBinaryOpINS_8internal17scalar_product_opIddEEKNS_9TransposeINS_6MatrixIdLin1ELi1ELi0ELin1ELi1EEEEEKNS0_INS1_20scalar_difference_opIddEEKNS_5BlockINS5_IdLin1ELin1ELi0ELin1ELin1EEELi1ELin1ELb0EEESE_EEE4colsEv, symObjAddr: 0xAF38, symBinAddr: 0x10000B944, symSize: 0x28 }
  - { offsetInCU: 0x832EE, offset: 0x832EE, size: 0x8, addend: 0x0, symName: __ZN5Eigen10MatrixBaseINS_13CwiseBinaryOpINS_8internal13scalar_sum_opIddEEKNS1_INS2_17scalar_product_opIddEEKNS_9TransposeINS_6MatrixIdLin1ELi1ELi0ELin1ELi1EEEEEKNS_5BlockINS8_IdLin1ELin1ELi0ELin1ELin1EEELi1ELin1ELb0EEEEEKNS1_IS6_SB_KNS1_INS2_20scalar_difference_opIddEESF_SF_EEEEEEEC2Ev, symObjAddr: 0xAF60, symBinAddr: 0x10000B96C, symSize: 0x2C }
  - { offsetInCU: 0x83318, offset: 0x83318, size: 0x8, addend: 0x0, symName: __ZN5Eigen9DenseBaseINS_13CwiseBinaryOpINS_8internal13scalar_sum_opIddEEKNS1_INS2_17scalar_product_opIddEEKNS_9TransposeINS_6MatrixIdLin1ELi1ELi0ELin1ELi1EEEEEKNS_5BlockINS8_IdLin1ELin1ELi0ELin1ELin1EEELi1ELin1ELb0EEEEEKNS1_IS6_SB_KNS1_INS2_20scalar_difference_opIddEESF_SF_EEEEEEEC2Ev, symObjAddr: 0xAF8C, symBinAddr: 0x10000B998, symSize: 0x14 }
  - { offsetInCU: 0x83342, offset: 0x83342, size: 0x8, addend: 0x0, symName: __ZN5Eigen13CwiseBinaryOpINS_8internal17scalar_product_opIddEEKNS_9TransposeINS_6MatrixIdLin1ELi1ELi0ELin1ELi1EEEEEKNS_5BlockINS5_IdLin1ELin1ELi0ELin1ELin1EEELi1ELin1ELb0EEEEC2ERKSD_, symObjAddr: 0xAFA0, symBinAddr: 0x10000B9AC, symSize: 0x4C }
  - { offsetInCU: 0x83377, offset: 0x83377, size: 0x8, addend: 0x0, symName: __ZN5Eigen13CwiseBinaryOpINS_8internal17scalar_product_opIddEEKNS_9TransposeINS_6MatrixIdLin1ELi1ELi0ELin1ELi1EEEEEKNS0_INS1_20scalar_difference_opIddEEKNS_5BlockINS5_IdLin1ELin1ELi0ELin1ELin1EEELi1ELin1ELb0EEESE_EEEC2ERKSH_, symObjAddr: 0xAFEC, symBinAddr: 0x10000B9F8, symSize: 0x5C }
  - { offsetInCU: 0x833AC, offset: 0x833AC, size: 0x8, addend: 0x0, symName: __ZN5Eigen13CwiseBinaryOpINS_8internal20scalar_difference_opIddEEKNS_5BlockINS_6MatrixIdLin1ELin1ELi0ELin1ELin1EEELi1ELin1ELb0EEES8_EC1ERKS9_, symObjAddr: 0xB048, symBinAddr: 0x10000BA54, symSize: 0x34 }
  - { offsetInCU: 0x833E1, offset: 0x833E1, size: 0x8, addend: 0x0, symName: __ZN5Eigen13CwiseBinaryOpINS_8internal20scalar_difference_opIddEEKNS_5BlockINS_6MatrixIdLin1ELin1ELi0ELin1ELin1EEELi1ELin1ELb0EEES8_EC2ERKS9_, symObjAddr: 0xB07C, symBinAddr: 0x10000BA88, symSize: 0x4C }
  - { offsetInCU: 0x83416, offset: 0x83416, size: 0x8, addend: 0x0, symName: __ZN5Eigen8internal20scalar_difference_opIddEC1ERKS2_, symObjAddr: 0xB0C8, symBinAddr: 0x10000BAD4, symSize: 0x34 }
  - { offsetInCU: 0x8344B, offset: 0x8344B, size: 0x8, addend: 0x0, symName: __ZN5Eigen8internal20scalar_difference_opIddEC2ERKS2_, symObjAddr: 0xB0FC, symBinAddr: 0x10000BB08, symSize: 0x18 }
  - { offsetInCU: 0x83480, offset: 0x83480, size: 0x8, addend: 0x0, symName: __ZNK5Eigen13CwiseBinaryOpINS_8internal20scalar_difference_opIddEEKNS_5BlockINS_6MatrixIdLin1ELin1ELi0ELin1ELin1EEELi1ELin1ELb0EEES8_E4colsEv, symObjAddr: 0xB114, symBinAddr: 0x10000BB20, symSize: 0x28 }
  - { offsetInCU: 0x834A6, offset: 0x834A6, size: 0x8, addend: 0x0, symName: __ZNK5Eigen9EigenBaseINS_13CwiseBinaryOpINS_8internal20scalar_difference_opIddEEKNS_5BlockINS_6MatrixIdLin1ELin1ELi0ELin1ELin1EEELi1ELin1ELb0EEES9_EEE7derivedEv, symObjAddr: 0xB13C, symBinAddr: 0x10000BB48, symSize: 0x14 }
  - { offsetInCU: 0x834CC, offset: 0x834CC, size: 0x8, addend: 0x0, symName: __ZN5Eigen13CwiseBinaryOpINS_8internal17scalar_product_opIddEEKNS_9TransposeINS_6MatrixIdLin1ELi1ELi0ELin1ELi1EEEEEKNS0_INS1_20scalar_difference_opIddEEKNS_5BlockINS5_IdLin1ELin1ELi0ELin1ELin1EEELi1ELin1ELb0EEESE_EEEC1ERS8_RSG_RKS3_, symObjAddr: 0xB150, symBinAddr: 0x10000BB5C, symSize: 0x44 }
  - { offsetInCU: 0x83520, offset: 0x83520, size: 0x8, addend: 0x0, symName: __ZN5Eigen13CwiseBinaryOpINS_8internal17scalar_product_opIddEEKNS_9TransposeINS_6MatrixIdLin1ELi1ELi0ELin1ELi1EEEEEKNS0_INS1_20scalar_difference_opIddEEKNS_5BlockINS5_IdLin1ELin1ELi0ELin1ELin1EEELi1ELin1ELb0EEESE_EEEC2ERS8_RSG_RKS3_, symObjAddr: 0xB194, symBinAddr: 0x10000BBA0, symSize: 0xFC }
  - { offsetInCU: 0x83579, offset: 0x83579, size: 0x8, addend: 0x0, symName: __ZN5Eigen17CwiseBinaryOpImplINS_8internal17scalar_product_opIddEEKNS_9TransposeINS_6MatrixIdLin1ELi1ELi0ELin1ELi1EEEEEKNS_13CwiseBinaryOpINS1_20scalar_difference_opIddEEKNS_5BlockINS5_IdLin1ELin1ELi0ELin1ELin1EEELi1ELin1ELb0EEESF_EENS_5DenseEEC2Ev, symObjAddr: 0xB290, symBinAddr: 0x10000BC9C, symSize: 0x2C }
  - { offsetInCU: 0x835A5, offset: 0x835A5, size: 0x8, addend: 0x0, symName: __ZNK5Eigen13CwiseBinaryOpINS_8internal20scalar_difference_opIddEEKNS_5BlockINS_6MatrixIdLin1ELin1ELi0ELin1ELin1EEELi1ELin1ELb0EEES8_E4rowsEv, symObjAddr: 0xB2BC, symBinAddr: 0x10000BCC8, symSize: 0x24 }
  - { offsetInCU: 0x835CB, offset: 0x835CB, size: 0x8, addend: 0x0, symName: __ZN5Eigen10MatrixBaseINS_13CwiseBinaryOpINS_8internal17scalar_product_opIddEEKNS_9TransposeINS_6MatrixIdLin1ELi1ELi0ELin1ELi1EEEEEKNS1_INS2_20scalar_difference_opIddEEKNS_5BlockINS6_IdLin1ELin1ELi0ELin1ELin1EEELi1ELin1ELb0EEESF_EEEEEC2Ev, symObjAddr: 0xB2E0, symBinAddr: 0x10000BCEC, symSize: 0x2C }
  - { offsetInCU: 0x835F5, offset: 0x835F5, size: 0x8, addend: 0x0, symName: __ZN5Eigen9DenseBaseINS_13CwiseBinaryOpINS_8internal17scalar_product_opIddEEKNS_9TransposeINS_6MatrixIdLin1ELi1ELi0ELin1ELi1EEEEEKNS1_INS2_20scalar_difference_opIddEEKNS_5BlockINS6_IdLin1ELin1ELi0ELin1ELin1EEELi1ELin1ELb0EEESF_EEEEEC2Ev, symObjAddr: 0xB30C, symBinAddr: 0x10000BD18, symSize: 0x14 }
  - { offsetInCU: 0x8361F, offset: 0x8361F, size: 0x8, addend: 0x0, symName: __ZN5Eigen8internal20scalar_difference_opIddEC1Ev, symObjAddr: 0xB320, symBinAddr: 0x10000BD2C, symSize: 0x2C }
  - { offsetInCU: 0x83649, offset: 0x83649, size: 0x8, addend: 0x0, symName: __ZN5Eigen13CwiseBinaryOpINS_8internal20scalar_difference_opIddEEKNS_5BlockINS_6MatrixIdLin1ELin1ELi0ELin1ELin1EEELi1ELin1ELb0EEES8_EC1ERS8_SA_RKS3_, symObjAddr: 0xB34C, symBinAddr: 0x10000BD58, symSize: 0x44 }
  - { offsetInCU: 0x8369D, offset: 0x8369D, size: 0x8, addend: 0x0, symName: __ZN5Eigen8internal20scalar_difference_opIddEC2Ev, symObjAddr: 0xB390, symBinAddr: 0x10000BD9C, symSize: 0x14 }
  - { offsetInCU: 0x836C7, offset: 0x836C7, size: 0x8, addend: 0x0, symName: __ZN5Eigen13CwiseBinaryOpINS_8internal20scalar_difference_opIddEEKNS_5BlockINS_6MatrixIdLin1ELin1ELi0ELin1ELin1EEELi1ELin1ELb0EEES8_EC2ERS8_SA_RKS3_, symObjAddr: 0xB3A4, symBinAddr: 0x10000BDB0, symSize: 0x104 }
  - { offsetInCU: 0x83720, offset: 0x83720, size: 0x8, addend: 0x0, symName: __ZN5Eigen17CwiseBinaryOpImplINS_8internal20scalar_difference_opIddEEKNS_5BlockINS_6MatrixIdLin1ELin1ELi0ELin1ELin1EEELi1ELin1ELb0EEES8_NS_5DenseEEC2Ev, symObjAddr: 0xB4A8, symBinAddr: 0x10000BEB4, symSize: 0x2C }
  - { offsetInCU: 0x8374C, offset: 0x8374C, size: 0x8, addend: 0x0, symName: __ZN5Eigen10MatrixBaseINS_13CwiseBinaryOpINS_8internal20scalar_difference_opIddEEKNS_5BlockINS_6MatrixIdLin1ELin1ELi0ELin1ELin1EEELi1ELin1ELb0EEES9_EEEC2Ev, symObjAddr: 0xB4D4, symBinAddr: 0x10000BEE0, symSize: 0x2C }
  - { offsetInCU: 0x83776, offset: 0x83776, size: 0x8, addend: 0x0, symName: __ZN5Eigen9DenseBaseINS_13CwiseBinaryOpINS_8internal20scalar_difference_opIddEEKNS_5BlockINS_6MatrixIdLin1ELin1ELi0ELin1ELin1EEELi1ELin1ELb0EEES9_EEEC2Ev, symObjAddr: 0xB500, symBinAddr: 0x10000BF0C, symSize: 0x14 }
  - { offsetInCU: 0x837A0, offset: 0x837A0, size: 0x8, addend: 0x0, symName: __ZNK5Eigen9EigenBaseINS_13CwiseBinaryOpINS_8internal13scalar_sum_opIddEEKNS1_INS2_17scalar_product_opIddEEKNS_9TransposeINS_6MatrixIdLin1ELi1ELi0ELin1ELi1EEEEEKNS_5BlockINS8_IdLin1ELin1ELi0ELin1ELin1EEELi1ELin1ELb0EEEEEKNS1_IS6_SB_KNS1_INS2_20scalar_difference_opIddEESF_SF_EEEEEEE7derivedEv, symObjAddr: 0xB514, symBinAddr: 0x10000BF20, symSize: 0x14 }
  - { offsetInCU: 0x837C6, offset: 0x837C6, size: 0x8, addend: 0x0, symName: __ZNK5Eigen9EigenBaseINS_13CwiseBinaryOpINS_8internal17scalar_product_opIddEEKNS1_IS4_KNS_9TransposeINS_6MatrixIdLin1ELi1ELi0ELin1ELi1EEEEEKNS1_INS2_20scalar_difference_opIddEEKNS_5BlockINS6_IdLin1ELin1ELi0ELin1ELin1EEELi1ELin1ELb0EEESF_EEEEKNS_14CwiseNullaryOpINS2_18scalar_constant_opIdEEKNS6_IdLi1ELin1ELi1ELi1ELin1EEEEEEEE7derivedEv, symObjAddr: 0xB528, symBinAddr: 0x10000BF34, symSize: 0x14 }
  - { offsetInCU: 0x837EC, offset: 0x837EC, size: 0x8, addend: 0x0, symName: __ZN5Eigen13CwiseBinaryOpINS_8internal13scalar_sum_opIddEEKNS0_IS3_KNS0_INS1_17scalar_product_opIddEEKNS_9TransposeINS_6MatrixIdLin1ELi1ELi0ELin1ELi1EEEEEKNS_5BlockINS7_IdLin1ELin1ELi0ELin1ELin1EEELi1ELin1ELb0EEEEEKNS0_IS5_SA_KNS0_INS1_20scalar_difference_opIddEESE_SE_EEEEEEKNS0_IS5_SM_KNS_14CwiseNullaryOpINS1_18scalar_constant_opIdEEKNS7_IdLi1ELin1ELi1ELi1ELin1EEEEEEEEC1ERSO_RSX_RKS3_, symObjAddr: 0xB53C, symBinAddr: 0x10000BF48, symSize: 0x44 }
  - { offsetInCU: 0x83840, offset: 0x83840, size: 0x8, addend: 0x0, symName: __ZN5Eigen13CwiseBinaryOpINS_8internal13scalar_sum_opIddEEKNS0_IS3_KNS0_INS1_17scalar_product_opIddEEKNS_9TransposeINS_6MatrixIdLin1ELi1ELi0ELin1ELi1EEEEEKNS_5BlockINS7_IdLin1ELin1ELi0ELin1ELin1EEELi1ELin1ELb0EEEEEKNS0_IS5_SA_KNS0_INS1_20scalar_difference_opIddEESE_SE_EEEEEEKNS0_IS5_SM_KNS_14CwiseNullaryOpINS1_18scalar_constant_opIdEEKNS7_IdLi1ELin1ELi1ELi1ELin1EEEEEEEEC2ERSO_RSX_RKS3_, symObjAddr: 0xB580, symBinAddr: 0x10000BF8C, symSize: 0xFC }
  - { offsetInCU: 0x83899, offset: 0x83899, size: 0x8, addend: 0x0, symName: __ZN5Eigen17CwiseBinaryOpImplINS_8internal13scalar_sum_opIddEEKNS_13CwiseBinaryOpIS3_KNS4_INS1_17scalar_product_opIddEEKNS_9TransposeINS_6MatrixIdLin1ELi1ELi0ELin1ELi1EEEEEKNS_5BlockINS8_IdLin1ELin1ELi0ELin1ELin1EEELi1ELin1ELb0EEEEEKNS4_IS6_SB_KNS4_INS1_20scalar_difference_opIddEESF_SF_EEEEEEKNS4_IS6_SN_KNS_14CwiseNullaryOpINS1_18scalar_constant_opIdEEKNS8_IdLi1ELin1ELi1ELi1ELin1EEEEEEENS_5DenseEEC2Ev, symObjAddr: 0xB67C, symBinAddr: 0x10000C088, symSize: 0x2C }
  - { offsetInCU: 0x838C5, offset: 0x838C5, size: 0x8, addend: 0x0, symName: __ZN5Eigen13CwiseBinaryOpINS_8internal13scalar_sum_opIddEEKNS0_INS1_17scalar_product_opIddEEKNS_9TransposeINS_6MatrixIdLin1ELi1ELi0ELin1ELi1EEEEEKNS_5BlockINS7_IdLin1ELin1ELi0ELin1ELin1EEELi1ELin1ELb0EEEEEKNS0_IS5_SA_KNS0_INS1_20scalar_difference_opIddEESE_SE_EEEEEC1ERKSN_, symObjAddr: 0xB6A8, symBinAddr: 0x10000C0B4, symSize: 0x34 }
  - { offsetInCU: 0x838FA, offset: 0x838FA, size: 0x8, addend: 0x0, symName: __ZN5Eigen13CwiseBinaryOpINS_8internal17scalar_product_opIddEEKNS0_IS3_KNS_9TransposeINS_6MatrixIdLin1ELi1ELi0ELin1ELi1EEEEEKNS0_INS1_20scalar_difference_opIddEEKNS_5BlockINS5_IdLin1ELin1ELi0ELin1ELin1EEELi1ELin1ELb0EEESE_EEEEKNS_14CwiseNullaryOpINS1_18scalar_constant_opIdEEKNS5_IdLi1ELin1ELi1ELi1ELin1EEEEEEC1ERKSQ_, symObjAddr: 0xB6DC, symBinAddr: 0x10000C0E8, symSize: 0x34 }
  - { offsetInCU: 0x8392F, offset: 0x8392F, size: 0x8, addend: 0x0, symName: __ZNK5Eigen13CwiseBinaryOpINS_8internal13scalar_sum_opIddEEKNS0_INS1_17scalar_product_opIddEEKNS_9TransposeINS_6MatrixIdLin1ELi1ELi0ELin1ELi1EEEEEKNS_5BlockINS7_IdLin1ELin1ELi0ELin1ELin1EEELi1ELin1ELb0EEEEEKNS0_IS5_SA_KNS0_INS1_20scalar_difference_opIddEESE_SE_EEEEE4rowsEv, symObjAddr: 0xB710, symBinAddr: 0x10000C11C, symSize: 0x28 }
  - { offsetInCU: 0x83955, offset: 0x83955, size: 0x8, addend: 0x0, symName: __ZNK5Eigen13CwiseBinaryOpINS_8internal17scalar_product_opIddEEKNS0_IS3_KNS_9TransposeINS_6MatrixIdLin1ELi1ELi0ELin1ELi1EEEEEKNS0_INS1_20scalar_difference_opIddEEKNS_5BlockINS5_IdLin1ELin1ELi0ELin1ELin1EEELi1ELin1ELb0EEESE_EEEEKNS_14CwiseNullaryOpINS1_18scalar_constant_opIdEEKNS5_IdLi1ELin1ELi1ELi1ELin1EEEEEE4rowsEv, symObjAddr: 0xB738, symBinAddr: 0x10000C144, symSize: 0x28 }
  - { offsetInCU: 0x8397B, offset: 0x8397B, size: 0x8, addend: 0x0, symName: __ZNK5Eigen13CwiseBinaryOpINS_8internal13scalar_sum_opIddEEKNS0_INS1_17scalar_product_opIddEEKNS_9TransposeINS_6MatrixIdLin1ELi1ELi0ELin1ELi1EEEEEKNS_5BlockINS7_IdLin1ELin1ELi0ELin1ELin1EEELi1ELin1ELb0EEEEEKNS0_IS5_SA_KNS0_INS1_20scalar_difference_opIddEESE_SE_EEEEE4colsEv, symObjAddr: 0xB760, symBinAddr: 0x10000C16C, symSize: 0x28 }
  - { offsetInCU: 0x839A1, offset: 0x839A1, size: 0x8, addend: 0x0, symName: __ZNK5Eigen13CwiseBinaryOpINS_8internal17scalar_product_opIddEEKNS0_IS3_KNS_9TransposeINS_6MatrixIdLin1ELi1ELi0ELin1ELi1EEEEEKNS0_INS1_20scalar_difference_opIddEEKNS_5BlockINS5_IdLin1ELin1ELi0ELin1ELin1EEELi1ELin1ELb0EEESE_EEEEKNS_14CwiseNullaryOpINS1_18scalar_constant_opIdEEKNS5_IdLi1ELin1ELi1ELi1ELin1EEEEEE4colsEv, symObjAddr: 0xB788, symBinAddr: 0x10000C194, symSize: 0x38 }
  - { offsetInCU: 0x839C7, offset: 0x839C7, size: 0x8, addend: 0x0, symName: __ZN5Eigen10MatrixBaseINS_13CwiseBinaryOpINS_8internal13scalar_sum_opIddEEKNS1_IS4_KNS1_INS2_17scalar_product_opIddEEKNS_9TransposeINS_6MatrixIdLin1ELi1ELi0ELin1ELi1EEEEEKNS_5BlockINS8_IdLin1ELin1ELi0ELin1ELin1EEELi1ELin1ELb0EEEEEKNS1_IS6_SB_KNS1_INS2_20scalar_difference_opIddEESF_SF_EEEEEEKNS1_IS6_SN_KNS_14CwiseNullaryOpINS2_18scalar_constant_opIdEEKNS8_IdLi1ELin1ELi1ELi1ELin1EEEEEEEEEEC2Ev, symObjAddr: 0xB7C0, symBinAddr: 0x10000C1CC, symSize: 0x2C }
  - { offsetInCU: 0x839F1, offset: 0x839F1, size: 0x8, addend: 0x0, symName: __ZN5Eigen9DenseBaseINS_13CwiseBinaryOpINS_8internal13scalar_sum_opIddEEKNS1_IS4_KNS1_INS2_17scalar_product_opIddEEKNS_9TransposeINS_6MatrixIdLin1ELi1ELi0ELin1ELi1EEEEEKNS_5BlockINS8_IdLin1ELin1ELi0ELin1ELin1EEELi1ELin1ELb0EEEEEKNS1_IS6_SB_KNS1_INS2_20scalar_difference_opIddEESF_SF_EEEEEEKNS1_IS6_SN_KNS_14CwiseNullaryOpINS2_18scalar_constant_opIdEEKNS8_IdLi1ELin1ELi1ELi1ELin1EEEEEEEEEEC2Ev, symObjAddr: 0xB7EC, symBinAddr: 0x10000C1F8, symSize: 0x14 }
  - { offsetInCU: 0x83A1B, offset: 0x83A1B, size: 0x8, addend: 0x0, symName: __ZN5Eigen13CwiseBinaryOpINS_8internal13scalar_sum_opIddEEKNS0_INS1_17scalar_product_opIddEEKNS_9TransposeINS_6MatrixIdLin1ELi1ELi0ELin1ELi1EEEEEKNS_5BlockINS7_IdLin1ELin1ELi0ELin1ELin1EEELi1ELin1ELb0EEEEEKNS0_IS5_SA_KNS0_INS1_20scalar_difference_opIddEESE_SE_EEEEEC2ERKSN_, symObjAddr: 0xB800, symBinAddr: 0x10000C20C, symSize: 0x64 }
  - { offsetInCU: 0x83A50, offset: 0x83A50, size: 0x8, addend: 0x0, symName: __ZN5Eigen13CwiseBinaryOpINS_8internal17scalar_product_opIddEEKNS0_IS3_KNS_9TransposeINS_6MatrixIdLin1ELi1ELi0ELin1ELi1EEEEEKNS0_INS1_20scalar_difference_opIddEEKNS_5BlockINS5_IdLin1ELin1ELi0ELin1ELin1EEELi1ELin1ELb0EEESE_EEEEKNS_14CwiseNullaryOpINS1_18scalar_constant_opIdEEKNS5_IdLi1ELin1ELi1ELi1ELin1EEEEEEC2ERKSQ_, symObjAddr: 0xB864, symBinAddr: 0x10000C270, symSize: 0x64 }
  - { offsetInCU: 0x83A85, offset: 0x83A85, size: 0x8, addend: 0x0, symName: __ZN5Eigen14CwiseNullaryOpINS_8internal18scalar_constant_opIdEEKNS_6MatrixIdLi1ELin1ELi1ELi1ELin1EEEEC1ERKS7_, symObjAddr: 0xB8C8, symBinAddr: 0x10000C2D4, symSize: 0x34 }
  - { offsetInCU: 0x83ABA, offset: 0x83ABA, size: 0x8, addend: 0x0, symName: __ZN5Eigen14CwiseNullaryOpINS_8internal18scalar_constant_opIdEEKNS_6MatrixIdLi1ELin1ELi1ELi1ELin1EEEEC2ERKS7_, symObjAddr: 0xB8FC, symBinAddr: 0x10000C308, symSize: 0x48 }
  - { offsetInCU: 0x83AEF, offset: 0x83AEF, size: 0x8, addend: 0x0, symName: __ZNK5Eigen14CwiseNullaryOpINS_8internal18scalar_constant_opIdEEKNS_6MatrixIdLi1ELin1ELi1ELi1ELin1EEEE4colsEv, symObjAddr: 0xB944, symBinAddr: 0x10000C350, symSize: 0x28 }
  - { offsetInCU: 0x83B15, offset: 0x83B15, size: 0x8, addend: 0x0, symName: __ZN5Eigen14CwiseNullaryOpINS_8internal18scalar_constant_opIdEEKNS_6MatrixIdLi1ELin1ELi1ELi1ELin1EEEEC1EllRKS3_, symObjAddr: 0xB96C, symBinAddr: 0x10000C378, symSize: 0x44 }
  - { offsetInCU: 0x83B69, offset: 0x83B69, size: 0x8, addend: 0x0, symName: __ZN5Eigen13CwiseBinaryOpINS_8internal17scalar_product_opIddEEKNS0_IS3_KNS_9TransposeINS_6MatrixIdLin1ELi1ELi0ELin1ELi1EEEEEKNS0_INS1_20scalar_difference_opIddEEKNS_5BlockINS5_IdLin1ELin1ELi0ELin1ELin1EEELi1ELin1ELb0EEESE_EEEEKNS_14CwiseNullaryOpINS1_18scalar_constant_opIdEEKNS5_IdLi1ELin1ELi1ELi1ELin1EEEEEEC1ERSI_RSP_RKS3_, symObjAddr: 0xB9B0, symBinAddr: 0x10000C3BC, symSize: 0x44 }
  - { offsetInCU: 0x83BBD, offset: 0x83BBD, size: 0x8, addend: 0x0, symName: __ZN5Eigen14CwiseNullaryOpINS_8internal18scalar_constant_opIdEEKNS_6MatrixIdLi1ELin1ELi1ELi1ELin1EEEEC2EllRKS3_, symObjAddr: 0xB9F4, symBinAddr: 0x10000C400, symSize: 0xFC }
  - { offsetInCU: 0x83C11, offset: 0x83C11, size: 0x8, addend: 0x0, symName: __ZN5Eigen10MatrixBaseINS_14CwiseNullaryOpINS_8internal18scalar_constant_opIdEEKNS_6MatrixIdLi1ELin1ELi1ELi1ELin1EEEEEEC2Ev, symObjAddr: 0xBAF0, symBinAddr: 0x10000C4FC, symSize: 0x2C }
  - { offsetInCU: 0x83C3B, offset: 0x83C3B, size: 0x8, addend: 0x0, symName: __ZN5Eigen9DenseBaseINS_14CwiseNullaryOpINS_8internal18scalar_constant_opIdEEKNS_6MatrixIdLi1ELin1ELi1ELi1ELin1EEEEEEC2Ev, symObjAddr: 0xBB1C, symBinAddr: 0x10000C528, symSize: 0x14 }
  - { offsetInCU: 0x83C65, offset: 0x83C65, size: 0x8, addend: 0x0, symName: __ZN5Eigen13CwiseBinaryOpINS_8internal17scalar_product_opIddEEKNS0_IS3_KNS_9TransposeINS_6MatrixIdLin1ELi1ELi0ELin1ELi1EEEEEKNS0_INS1_20scalar_difference_opIddEEKNS_5BlockINS5_IdLin1ELin1ELi0ELin1ELin1EEELi1ELin1ELb0EEESE_EEEEKNS_14CwiseNullaryOpINS1_18scalar_constant_opIdEEKNS5_IdLi1ELin1ELi1ELi1ELin1EEEEEEC2ERSI_RSP_RKS3_, symObjAddr: 0xBB30, symBinAddr: 0x10000C53C, symSize: 0xFC }
  - { offsetInCU: 0x83CBE, offset: 0x83CBE, size: 0x8, addend: 0x0, symName: __ZN5Eigen17CwiseBinaryOpImplINS_8internal17scalar_product_opIddEEKNS_13CwiseBinaryOpIS3_KNS_9TransposeINS_6MatrixIdLin1ELi1ELi0ELin1ELi1EEEEEKNS4_INS1_20scalar_difference_opIddEEKNS_5BlockINS6_IdLin1ELin1ELi0ELin1ELin1EEELi1ELin1ELb0EEESF_EEEEKNS_14CwiseNullaryOpINS1_18scalar_constant_opIdEEKNS6_IdLi1ELin1ELi1ELi1ELin1EEEEENS_5DenseEEC2Ev, symObjAddr: 0xBC2C, symBinAddr: 0x10000C638, symSize: 0x2C }
  - { offsetInCU: 0x83CEA, offset: 0x83CEA, size: 0x8, addend: 0x0, symName: __ZNK5Eigen14CwiseNullaryOpINS_8internal18scalar_constant_opIdEEKNS_6MatrixIdLi1ELin1ELi1ELi1ELin1EEEE4rowsEv, symObjAddr: 0xBC58, symBinAddr: 0x10000C664, symSize: 0x20 }
  - { offsetInCU: 0x83D10, offset: 0x83D10, size: 0x8, addend: 0x0, symName: __ZN5Eigen10MatrixBaseINS_13CwiseBinaryOpINS_8internal17scalar_product_opIddEEKNS1_IS4_KNS_9TransposeINS_6MatrixIdLin1ELi1ELi0ELin1ELi1EEEEEKNS1_INS2_20scalar_difference_opIddEEKNS_5BlockINS6_IdLin1ELin1ELi0ELin1ELin1EEELi1ELin1ELb0EEESF_EEEEKNS_14CwiseNullaryOpINS2_18scalar_constant_opIdEEKNS6_IdLi1ELin1ELi1ELi1ELin1EEEEEEEEC2Ev, symObjAddr: 0xBC78, symBinAddr: 0x10000C684, symSize: 0x2C }
  - { offsetInCU: 0x83D3A, offset: 0x83D3A, size: 0x8, addend: 0x0, symName: __ZN5Eigen9DenseBaseINS_13CwiseBinaryOpINS_8internal17scalar_product_opIddEEKNS1_IS4_KNS_9TransposeINS_6MatrixIdLin1ELi1ELi0ELin1ELi1EEEEEKNS1_INS2_20scalar_difference_opIddEEKNS_5BlockINS6_IdLin1ELin1ELi0ELin1ELin1EEELi1ELin1ELb0EEESF_EEEEKNS_14CwiseNullaryOpINS2_18scalar_constant_opIdEEKNS6_IdLi1ELin1ELi1ELi1ELin1EEEEEEEEC2Ev, symObjAddr: 0xBCA4, symBinAddr: 0x10000C6B0, symSize: 0x14 }
  - { offsetInCU: 0x83D64, offset: 0x83D64, size: 0x8, addend: 0x0, symName: __ZN5Eigen9BlockImplINS_6MatrixIdLin1ELin1ELi0ELin1ELin1EEELi1ELin1ELb0ENS_5DenseEEaSINS_13CwiseBinaryOpINS_8internal13scalar_sum_opIddEEKNS6_IS9_KNS6_INS7_17scalar_product_opIddEEKNS_9TransposeINS1_IdLin1ELi1ELi0ELin1ELi1EEEEEKNS_5BlockIS2_Li1ELin1ELb0EEEEEKNS6_ISB_SF_KNS6_INS7_20scalar_difference_opIddEESI_SI_EEEEEEKNS6_ISB_SQ_KNS_14CwiseNullaryOpINS7_18scalar_constant_opIdEEKNS1_IdLi1ELin1ELi1ELi1ELin1EEEEEEEEEEERS4_RKNS_9DenseBaseIT_EE, symObjAddr: 0xBCB8, symBinAddr: 0x10000C6C4, symSize: 0x40 }
  - { offsetInCU: 0x83DA1, offset: 0x83DA1, size: 0x8, addend: 0x0, symName: __ZNK5Eigen9EigenBaseINS_13CwiseBinaryOpINS_8internal13scalar_sum_opIddEEKNS1_IS4_KNS1_INS2_17scalar_product_opIddEEKNS_9TransposeINS_6MatrixIdLin1ELi1ELi0ELin1ELi1EEEEEKNS_5BlockINS8_IdLin1ELin1ELi0ELin1ELin1EEELi1ELin1ELb0EEEEEKNS1_IS6_SB_KNS1_INS2_20scalar_difference_opIddEESF_SF_EEEEEEKNS1_IS6_SN_KNS_14CwiseNullaryOpINS2_18scalar_constant_opIdEEKNS8_IdLi1ELin1ELi1ELi1ELin1EEEEEEEEEE7derivedEv, symObjAddr: 0xBCF8, symBinAddr: 0x10000C704, symSize: 0x14 }
  - { offsetInCU: 0x83DC7, offset: 0x83DC7, size: 0x8, addend: 0x0, symName: __ZN5Eigen8internal15BlockImpl_denseINS_6MatrixIdLin1ELin1ELi0ELin1ELin1EEELi1ELin1ELb0ELb1EEaSINS_13CwiseBinaryOpINS0_13scalar_sum_opIddEEKNS6_IS8_KNS6_INS0_17scalar_product_opIddEEKNS_9TransposeINS2_IdLin1ELi1ELi0ELin1ELi1EEEEEKNS_5BlockIS3_Li1ELin1ELb0EEEEEKNS6_ISA_SE_KNS6_INS0_20scalar_difference_opIddEESH_SH_EEEEEEKNS6_ISA_SP_KNS_14CwiseNullaryOpINS0_18scalar_constant_opIdEEKNS2_IdLi1ELin1ELi1ELi1ELin1EEEEEEEEEEERS4_RKNS_9DenseBaseIT_EE, symObjAddr: 0xBD0C, symBinAddr: 0x10000C718, symSize: 0x40 }
  - { offsetInCU: 0x83E05, offset: 0x83E05, size: 0x8, addend: 0x0, symName: __ZN5Eigen10MatrixBaseINS_5BlockINS_6MatrixIdLin1ELin1ELi0ELin1ELin1EEELi1ELin1ELb0EEEEaSINS_13CwiseBinaryOpINS_8internal13scalar_sum_opIddEEKNS7_ISA_KNS7_INS8_17scalar_product_opIddEEKNS_9TransposeINS2_IdLin1ELi1ELi0ELin1ELi1EEEEEKS4_EEKNS7_ISC_SG_KNS7_INS8_20scalar_difference_opIddEESH_SH_EEEEEEKNS7_ISC_SP_KNS_14CwiseNullaryOpINS8_18scalar_constant_opIdEEKNS2_IdLi1ELin1ELi1ELi1ELin1EEEEEEEEEEERS4_RKNS_9DenseBaseIT_EE, symObjAddr: 0xBD4C, symBinAddr: 0x10000C758, symSize: 0x4C }
  - { offsetInCU: 0x83E44, offset: 0x83E44, size: 0x8, addend: 0x0, symName: __ZN5Eigen9EigenBaseINS_5BlockINS_6MatrixIdLin1ELin1ELi0ELin1ELin1EEELi1ELin1ELb0EEEE7derivedEv, symObjAddr: 0xBDE8, symBinAddr: 0x10000C7F4, symSize: 0x14 }
  - { offsetInCU: 0x83E6A, offset: 0x83E6A, size: 0x8, addend: 0x0, symName: __ZN5Eigen8internal10AssignmentINS_5BlockINS_6MatrixIdLin1ELin1ELi0ELin1ELin1EEELi1ELin1ELb0EEENS_13CwiseBinaryOpINS0_13scalar_sum_opIddEEKNS6_IS8_KNS6_INS0_17scalar_product_opIddEEKNS_9TransposeINS3_IdLin1ELi1ELi0ELin1ELi1EEEEEKS5_EEKNS6_ISA_SE_KNS6_INS0_20scalar_difference_opIddEESF_SF_EEEEEEKNS6_ISA_SN_KNS_14CwiseNullaryOpINS0_18scalar_constant_opIdEEKNS3_IdLi1ELin1ELi1ELi1ELin1EEEEEEEEENS0_9assign_opIddEENS0_11Dense2DenseEvE3runERS5_RKSZ_RKS11_, symObjAddr: 0xBE70, symBinAddr: 0x10000C87C, symSize: 0x40 }
  - { offsetInCU: 0x840EB, offset: 0x840EB, size: 0x8, addend: 0x0, symName: __ZN5Eigen8internal9evaluatorINS_13CwiseBinaryOpINS0_13scalar_sum_opIddEEKNS2_IS4_KNS2_INS0_17scalar_product_opIddEEKNS_9TransposeINS_6MatrixIdLin1ELi1ELi0ELin1ELi1EEEEEKNS_5BlockINS8_IdLin1ELin1ELi0ELin1ELin1EEELi1ELin1ELb0EEEEEKNS2_IS6_SB_KNS2_INS0_20scalar_difference_opIddEESF_SF_EEEEEEKNS2_IS6_SN_KNS_14CwiseNullaryOpINS0_18scalar_constant_opIdEEKNS8_IdLi1ELin1ELi1ELi1ELin1EEEEEEEEEEC1ERKSZ_, symObjAddr: 0xBFAC, symBinAddr: 0x10000C9B8, symSize: 0x34 }
  - { offsetInCU: 0x84124, offset: 0x84124, size: 0x8, addend: 0x0, symName: __ZN5Eigen8internal9evaluatorINS_5BlockINS_6MatrixIdLin1ELin1ELi0ELin1ELin1EEELi1ELin1ELb0EEEEC1ERKS5_, symObjAddr: 0xC0D8, symBinAddr: 0x10000CAE4, symSize: 0x34 }
  - { offsetInCU: 0x8415D, offset: 0x8415D, size: 0x8, addend: 0x0, symName: __ZNK5Eigen9EigenBaseINS_5BlockINS_6MatrixIdLin1ELin1ELi0ELin1ELin1EEELi1ELin1ELb0EEEE18const_cast_derivedEv, symObjAddr: 0xC10C, symBinAddr: 0x10000CB18, symSize: 0x14 }
  - { offsetInCU: 0x841B0, offset: 0x841B0, size: 0x8, addend: 0x0, symName: __ZN5Eigen8internal31generic_dense_assignment_kernelINS0_9evaluatorINS_5BlockINS_6MatrixIdLin1ELin1ELi0ELin1ELin1EEELi1ELin1ELb0EEEEENS2_INS_13CwiseBinaryOpINS0_13scalar_sum_opIddEEKNS8_ISA_KNS8_INS0_17scalar_product_opIddEEKNS_9TransposeINS4_IdLin1ELi1ELi0ELin1ELi1EEEEEKS6_EEKNS8_ISC_SG_KNS8_INS0_20scalar_difference_opIddEESH_SH_EEEEEEKNS8_ISC_SP_KNS_14CwiseNullaryOpINS0_18scalar_constant_opIdEEKNS4_IdLi1ELin1ELi1ELi1ELin1EEEEEEEEEEENS0_9assign_opIddEELi0EEC1ERS7_RKS12_RKS14_RS6_, symObjAddr: 0xC120, symBinAddr: 0x10000CB2C, symSize: 0x4C }
  - { offsetInCU: 0x8421B, offset: 0x8421B, size: 0x8, addend: 0x0, symName: __ZN5Eigen8internal21dense_assignment_loopINS0_31generic_dense_assignment_kernelINS0_9evaluatorINS_5BlockINS_6MatrixIdLin1ELin1ELi0ELin1ELin1EEELi1ELin1ELb0EEEEENS3_INS_13CwiseBinaryOpINS0_13scalar_sum_opIddEEKNS9_ISB_KNS9_INS0_17scalar_product_opIddEEKNS_9TransposeINS5_IdLin1ELi1ELi0ELin1ELi1EEEEEKS7_EEKNS9_ISD_SH_KNS9_INS0_20scalar_difference_opIddEESI_SI_EEEEEEKNS9_ISD_SQ_KNS_14CwiseNullaryOpINS0_18scalar_constant_opIdEEKNS5_IdLi1ELin1ELi1ELi1ELin1EEEEEEEEEEENS0_9assign_opIddEELi0EEELi1ELi0EE3runERS16_, symObjAddr: 0xC16C, symBinAddr: 0x10000CB78, symSize: 0x68 }
  - { offsetInCU: 0x8426B, offset: 0x8426B, size: 0x8, addend: 0x0, symName: __ZN5Eigen8internal9evaluatorINS_5BlockINS_6MatrixIdLin1ELin1ELi0ELin1ELin1EEELi1ELin1ELb0EEEED1Ev, symObjAddr: 0xC1D4, symBinAddr: 0x10000CBE0, symSize: 0x2C }
  - { offsetInCU: 0x84298, offset: 0x84298, size: 0x8, addend: 0x0, symName: __ZN5Eigen8internal9evaluatorINS_13CwiseBinaryOpINS0_13scalar_sum_opIddEEKNS2_IS4_KNS2_INS0_17scalar_product_opIddEEKNS_9TransposeINS_6MatrixIdLin1ELi1ELi0ELin1ELi1EEEEEKNS_5BlockINS8_IdLin1ELin1ELi0ELin1ELin1EEELi1ELin1ELb0EEEEEKNS2_IS6_SB_KNS2_INS0_20scalar_difference_opIddEESF_SF_EEEEEEKNS2_IS6_SN_KNS_14CwiseNullaryOpINS0_18scalar_constant_opIdEEKNS8_IdLi1ELin1ELi1ELi1ELin1EEEEEEEEEED1Ev, symObjAddr: 0xC200, symBinAddr: 0x10000CC0C, symSize: 0x2C }
  - { offsetInCU: 0x842C5, offset: 0x842C5, size: 0x8, addend: 0x0, symName: __ZN5Eigen8internal9evaluatorINS_13CwiseBinaryOpINS0_13scalar_sum_opIddEEKNS2_IS4_KNS2_INS0_17scalar_product_opIddEEKNS_9TransposeINS_6MatrixIdLin1ELi1ELi0ELin1ELi1EEEEEKNS_5BlockINS8_IdLin1ELin1ELi0ELin1ELin1EEELi1ELin1ELb0EEEEEKNS2_IS6_SB_KNS2_INS0_20scalar_difference_opIddEESF_SF_EEEEEEKNS2_IS6_SN_KNS_14CwiseNullaryOpINS0_18scalar_constant_opIdEEKNS8_IdLi1ELin1ELi1ELi1ELin1EEEEEEEEEEC2ERKSZ_, symObjAddr: 0xC22C, symBinAddr: 0x10000CC38, symSize: 0x34 }
  - { offsetInCU: 0x842FE, offset: 0x842FE, size: 0x8, addend: 0x0, symName: __ZN5Eigen8internal16binary_evaluatorINS_13CwiseBinaryOpINS0_13scalar_sum_opIddEEKNS2_IS4_KNS2_INS0_17scalar_product_opIddEEKNS_9TransposeINS_6MatrixIdLin1ELi1ELi0ELin1ELi1EEEEEKNS_5BlockINS8_IdLin1ELin1ELi0ELin1ELin1EEELi1ELin1ELb0EEEEEKNS2_IS6_SB_KNS2_INS0_20scalar_difference_opIddEESF_SF_EEEEEEKNS2_IS6_SN_KNS_14CwiseNullaryOpINS0_18scalar_constant_opIdEEKNS8_IdLi1ELin1ELi1ELi1ELin1EEEEEEEEENS0_10IndexBasedES10_ddEC2ERKSZ_, symObjAddr: 0xC260, symBinAddr: 0x10000CC6C, symSize: 0x64 }
  - { offsetInCU: 0x84337, offset: 0x84337, size: 0x8, addend: 0x0, symName: __ZN5Eigen8internal14evaluator_baseINS_13CwiseBinaryOpINS0_13scalar_sum_opIddEEKNS2_IS4_KNS2_INS0_17scalar_product_opIddEEKNS_9TransposeINS_6MatrixIdLin1ELi1ELi0ELin1ELi1EEEEEKNS_5BlockINS8_IdLin1ELin1ELi0ELin1ELin1EEELi1ELin1ELb0EEEEEKNS2_IS6_SB_KNS2_INS0_20scalar_difference_opIddEESF_SF_EEEEEEKNS2_IS6_SN_KNS_14CwiseNullaryOpINS0_18scalar_constant_opIdEEKNS8_IdLi1ELin1ELi1ELi1ELin1EEEEEEEEEEC2Ev, symObjAddr: 0xC2C4, symBinAddr: 0x10000CCD0, symSize: 0x14 }
  - { offsetInCU: 0x84361, offset: 0x84361, size: 0x8, addend: 0x0, symName: __ZN5Eigen8internal16binary_evaluatorINS_13CwiseBinaryOpINS0_13scalar_sum_opIddEEKNS2_IS4_KNS2_INS0_17scalar_product_opIddEEKNS_9TransposeINS_6MatrixIdLin1ELi1ELi0ELin1ELi1EEEEEKNS_5BlockINS8_IdLin1ELin1ELi0ELin1ELin1EEELi1ELin1ELb0EEEEEKNS2_IS6_SB_KNS2_INS0_20scalar_difference_opIddEESF_SF_EEEEEEKNS2_IS6_SN_KNS_14CwiseNullaryOpINS0_18scalar_constant_opIdEEKNS8_IdLi1ELin1ELi1ELi1ELin1EEEEEEEEENS0_10IndexBasedES10_ddE4DataC1ERKSZ_, symObjAddr: 0xC2D8, symBinAddr: 0x10000CCE4, symSize: 0x34 }
  - { offsetInCU: 0x8439A, offset: 0x8439A, size: 0x8, addend: 0x0, symName: __ZN5Eigen8internal14evaluator_baseINS_13CwiseBinaryOpINS0_13scalar_sum_opIddEEKNS2_IS4_KNS2_INS0_17scalar_product_opIddEEKNS_9TransposeINS_6MatrixIdLin1ELi1ELi0ELin1ELi1EEEEEKNS_5BlockINS8_IdLin1ELin1ELi0ELin1ELin1EEELi1ELin1ELb0EEEEEKNS2_IS6_SB_KNS2_INS0_20scalar_difference_opIddEESF_SF_EEEEEEKNS2_IS6_SN_KNS_14CwiseNullaryOpINS0_18scalar_constant_opIdEEKNS8_IdLi1ELin1ELi1ELi1ELin1EEEEEEEEEED2Ev, symObjAddr: 0xC30C, symBinAddr: 0x10000CD18, symSize: 0x14 }
  - { offsetInCU: 0x843C4, offset: 0x843C4, size: 0x8, addend: 0x0, symName: __ZN5Eigen8internal16binary_evaluatorINS_13CwiseBinaryOpINS0_13scalar_sum_opIddEEKNS2_IS4_KNS2_INS0_17scalar_product_opIddEEKNS_9TransposeINS_6MatrixIdLin1ELi1ELi0ELin1ELi1EEEEEKNS_5BlockINS8_IdLin1ELin1ELi0ELin1ELin1EEELi1ELin1ELb0EEEEEKNS2_IS6_SB_KNS2_INS0_20scalar_difference_opIddEESF_SF_EEEEEEKNS2_IS6_SN_KNS_14CwiseNullaryOpINS0_18scalar_constant_opIdEEKNS8_IdLi1ELin1ELi1ELi1ELin1EEEEEEEEENS0_10IndexBasedES10_ddE4DataC2ERKSZ_, symObjAddr: 0xC320, symBinAddr: 0x10000CD2C, symSize: 0xA8 }
  - { offsetInCU: 0x843FD, offset: 0x843FD, size: 0x8, addend: 0x0, symName: __ZNK5Eigen13CwiseBinaryOpINS_8internal13scalar_sum_opIddEEKNS0_IS3_KNS0_INS1_17scalar_product_opIddEEKNS_9TransposeINS_6MatrixIdLin1ELi1ELi0ELin1ELi1EEEEEKNS_5BlockINS7_IdLin1ELin1ELi0ELin1ELin1EEELi1ELin1ELb0EEEEEKNS0_IS5_SA_KNS0_INS1_20scalar_difference_opIddEESE_SE_EEEEEEKNS0_IS5_SM_KNS_14CwiseNullaryOpINS1_18scalar_constant_opIdEEKNS7_IdLi1ELin1ELi1ELi1ELin1EEEEEEEE7functorEv, symObjAddr: 0xC3C8, symBinAddr: 0x10000CDD4, symSize: 0x18 }
  - { offsetInCU: 0x84423, offset: 0x84423, size: 0x8, addend: 0x0, symName: __ZNK5Eigen13CwiseBinaryOpINS_8internal13scalar_sum_opIddEEKNS0_IS3_KNS0_INS1_17scalar_product_opIddEEKNS_9TransposeINS_6MatrixIdLin1ELi1ELi0ELin1ELi1EEEEEKNS_5BlockINS7_IdLin1ELin1ELi0ELin1ELin1EEELi1ELin1ELb0EEEEEKNS0_IS5_SA_KNS0_INS1_20scalar_difference_opIddEESE_SE_EEEEEEKNS0_IS5_SM_KNS_14CwiseNullaryOpINS1_18scalar_constant_opIdEEKNS7_IdLi1ELin1ELi1ELi1ELin1EEEEEEEE3lhsEv, symObjAddr: 0xC3E0, symBinAddr: 0x10000CDEC, symSize: 0x18 }
  - { offsetInCU: 0x84449, offset: 0x84449, size: 0x8, addend: 0x0, symName: __ZN5Eigen8internal9evaluatorIKNS_13CwiseBinaryOpINS0_13scalar_sum_opIddEEKNS2_INS0_17scalar_product_opIddEEKNS_9TransposeINS_6MatrixIdLin1ELi1ELi0ELin1ELi1EEEEEKNS_5BlockINS8_IdLin1ELin1ELi0ELin1ELin1EEELi1ELin1ELb0EEEEEKNS2_IS6_SB_KNS2_INS0_20scalar_difference_opIddEESF_SF_EEEEEEEC1ERSP_, symObjAddr: 0xC3F8, symBinAddr: 0x10000CE04, symSize: 0x34 }
  - { offsetInCU: 0x84481, offset: 0x84481, size: 0x8, addend: 0x0, symName: __ZNK5Eigen13CwiseBinaryOpINS_8internal13scalar_sum_opIddEEKNS0_IS3_KNS0_INS1_17scalar_product_opIddEEKNS_9TransposeINS_6MatrixIdLin1ELi1ELi0ELin1ELi1EEEEEKNS_5BlockINS7_IdLin1ELin1ELi0ELin1ELin1EEELi1ELin1ELb0EEEEEKNS0_IS5_SA_KNS0_INS1_20scalar_difference_opIddEESE_SE_EEEEEEKNS0_IS5_SM_KNS_14CwiseNullaryOpINS1_18scalar_constant_opIdEEKNS7_IdLi1ELin1ELi1ELi1ELin1EEEEEEEE3rhsEv, symObjAddr: 0xC42C, symBinAddr: 0x10000CE38, symSize: 0x18 }
  - { offsetInCU: 0x844A7, offset: 0x844A7, size: 0x8, addend: 0x0, symName: __ZN5Eigen8internal9evaluatorIKNS_13CwiseBinaryOpINS0_17scalar_product_opIddEEKNS2_IS4_KNS_9TransposeINS_6MatrixIdLin1ELi1ELi0ELin1ELi1EEEEEKNS2_INS0_20scalar_difference_opIddEEKNS_5BlockINS6_IdLin1ELin1ELi0ELin1ELin1EEELi1ELin1ELb0EEESF_EEEEKNS_14CwiseNullaryOpINS0_18scalar_constant_opIdEEKNS6_IdLi1ELin1ELi1ELi1ELin1EEEEEEEEC1ERSS_, symObjAddr: 0xC444, symBinAddr: 0x10000CE50, symSize: 0x34 }
  - { offsetInCU: 0x844DF, offset: 0x844DF, size: 0x8, addend: 0x0, symName: __ZN5Eigen8internal9evaluatorIKNS_13CwiseBinaryOpINS0_13scalar_sum_opIddEEKNS2_INS0_17scalar_product_opIddEEKNS_9TransposeINS_6MatrixIdLin1ELi1ELi0ELin1ELi1EEEEEKNS_5BlockINS8_IdLin1ELin1ELi0ELin1ELin1EEELi1ELin1ELb0EEEEEKNS2_IS6_SB_KNS2_INS0_20scalar_difference_opIddEESF_SF_EEEEEEED1Ev, symObjAddr: 0xC478, symBinAddr: 0x10000CE84, symSize: 0x2C }
  - { offsetInCU: 0x8450B, offset: 0x8450B, size: 0x8, addend: 0x0, symName: __ZN5Eigen8internal9evaluatorIKNS_13CwiseBinaryOpINS0_13scalar_sum_opIddEEKNS2_INS0_17scalar_product_opIddEEKNS_9TransposeINS_6MatrixIdLin1ELi1ELi0ELin1ELi1EEEEEKNS_5BlockINS8_IdLin1ELin1ELi0ELin1ELin1EEELi1ELin1ELb0EEEEEKNS2_IS6_SB_KNS2_INS0_20scalar_difference_opIddEESF_SF_EEEEEEEC2ERSP_, symObjAddr: 0xC4A4, symBinAddr: 0x10000CEB0, symSize: 0x34 }
  - { offsetInCU: 0x84543, offset: 0x84543, size: 0x8, addend: 0x0, symName: __ZN5Eigen8internal9evaluatorINS_13CwiseBinaryOpINS0_13scalar_sum_opIddEEKNS2_INS0_17scalar_product_opIddEEKNS_9TransposeINS_6MatrixIdLin1ELi1ELi0ELin1ELi1EEEEEKNS_5BlockINS8_IdLin1ELin1ELi0ELin1ELin1EEELi1ELin1ELb0EEEEEKNS2_IS6_SB_KNS2_INS0_20scalar_difference_opIddEESF_SF_EEEEEEEC2ERKSO_, symObjAddr: 0xC4D8, symBinAddr: 0x10000CEE4, symSize: 0x34 }
  - { offsetInCU: 0x8457C, offset: 0x8457C, size: 0x8, addend: 0x0, symName: __ZN5Eigen8internal16binary_evaluatorINS_13CwiseBinaryOpINS0_13scalar_sum_opIddEEKNS2_INS0_17scalar_product_opIddEEKNS_9TransposeINS_6MatrixIdLin1ELi1ELi0ELin1ELi1EEEEEKNS_5BlockINS8_IdLin1ELin1ELi0ELin1ELin1EEELi1ELin1ELb0EEEEEKNS2_IS6_SB_KNS2_INS0_20scalar_difference_opIddEESF_SF_EEEEEENS0_10IndexBasedESP_ddEC2ERKSO_, symObjAddr: 0xC50C, symBinAddr: 0x10000CF18, symSize: 0x64 }
  - { offsetInCU: 0x845B5, offset: 0x845B5, size: 0x8, addend: 0x0, symName: __ZN5Eigen8internal14evaluator_baseINS_13CwiseBinaryOpINS0_13scalar_sum_opIddEEKNS2_INS0_17scalar_product_opIddEEKNS_9TransposeINS_6MatrixIdLin1ELi1ELi0ELin1ELi1EEEEEKNS_5BlockINS8_IdLin1ELin1ELi0ELin1ELin1EEELi1ELin1ELb0EEEEEKNS2_IS6_SB_KNS2_INS0_20scalar_difference_opIddEESF_SF_EEEEEEEC2Ev, symObjAddr: 0xC570, symBinAddr: 0x10000CF7C, symSize: 0x14 }
  - { offsetInCU: 0x845DF, offset: 0x845DF, size: 0x8, addend: 0x0, symName: __ZN5Eigen8internal16binary_evaluatorINS_13CwiseBinaryOpINS0_13scalar_sum_opIddEEKNS2_INS0_17scalar_product_opIddEEKNS_9TransposeINS_6MatrixIdLin1ELi1ELi0ELin1ELi1EEEEEKNS_5BlockINS8_IdLin1ELin1ELi0ELin1ELin1EEELi1ELin1ELb0EEEEEKNS2_IS6_SB_KNS2_INS0_20scalar_difference_opIddEESF_SF_EEEEEENS0_10IndexBasedESP_ddE4DataC1ERKSO_, symObjAddr: 0xC584, symBinAddr: 0x10000CF90, symSize: 0x34 }
  - { offsetInCU: 0x84618, offset: 0x84618, size: 0x8, addend: 0x0, symName: __ZN5Eigen8internal14evaluator_baseINS_13CwiseBinaryOpINS0_13scalar_sum_opIddEEKNS2_INS0_17scalar_product_opIddEEKNS_9TransposeINS_6MatrixIdLin1ELi1ELi0ELin1ELi1EEEEEKNS_5BlockINS8_IdLin1ELin1ELi0ELin1ELin1EEELi1ELin1ELb0EEEEEKNS2_IS6_SB_KNS2_INS0_20scalar_difference_opIddEESF_SF_EEEEEEED2Ev, symObjAddr: 0xC5B8, symBinAddr: 0x10000CFC4, symSize: 0x14 }
  - { offsetInCU: 0x84642, offset: 0x84642, size: 0x8, addend: 0x0, symName: __ZN5Eigen8internal16binary_evaluatorINS_13CwiseBinaryOpINS0_13scalar_sum_opIddEEKNS2_INS0_17scalar_product_opIddEEKNS_9TransposeINS_6MatrixIdLin1ELi1ELi0ELin1ELi1EEEEEKNS_5BlockINS8_IdLin1ELin1ELi0ELin1ELin1EEELi1ELin1ELb0EEEEEKNS2_IS6_SB_KNS2_INS0_20scalar_difference_opIddEESF_SF_EEEEEENS0_10IndexBasedESP_ddE4DataC2ERKSO_, symObjAddr: 0xC5CC, symBinAddr: 0x10000CFD8, symSize: 0xA8 }
  - { offsetInCU: 0x8467B, offset: 0x8467B, size: 0x8, addend: 0x0, symName: __ZNK5Eigen13CwiseBinaryOpINS_8internal13scalar_sum_opIddEEKNS0_INS1_17scalar_product_opIddEEKNS_9TransposeINS_6MatrixIdLin1ELi1ELi0ELin1ELi1EEEEEKNS_5BlockINS7_IdLin1ELin1ELi0ELin1ELin1EEELi1ELin1ELb0EEEEEKNS0_IS5_SA_KNS0_INS1_20scalar_difference_opIddEESE_SE_EEEEE7functorEv, symObjAddr: 0xC674, symBinAddr: 0x10000D080, symSize: 0x18 }
  - { offsetInCU: 0x846A1, offset: 0x846A1, size: 0x8, addend: 0x0, symName: __ZNK5Eigen13CwiseBinaryOpINS_8internal13scalar_sum_opIddEEKNS0_INS1_17scalar_product_opIddEEKNS_9TransposeINS_6MatrixIdLin1ELi1ELi0ELin1ELi1EEEEEKNS_5BlockINS7_IdLin1ELin1ELi0ELin1ELin1EEELi1ELin1ELb0EEEEEKNS0_IS5_SA_KNS0_INS1_20scalar_difference_opIddEESE_SE_EEEEE3lhsEv, symObjAddr: 0xC68C, symBinAddr: 0x10000D098, symSize: 0x18 }
  - { offsetInCU: 0x846C7, offset: 0x846C7, size: 0x8, addend: 0x0, symName: __ZN5Eigen8internal9evaluatorIKNS_13CwiseBinaryOpINS0_17scalar_product_opIddEEKNS_9TransposeINS_6MatrixIdLin1ELi1ELi0ELin1ELi1EEEEEKNS_5BlockINS6_IdLin1ELin1ELi0ELin1ELin1EEELi1ELin1ELb0EEEEEEC1ERSF_, symObjAddr: 0xC6A4, symBinAddr: 0x10000D0B0, symSize: 0x34 }
  - { offsetInCU: 0x846FF, offset: 0x846FF, size: 0x8, addend: 0x0, symName: __ZNK5Eigen13CwiseBinaryOpINS_8internal13scalar_sum_opIddEEKNS0_INS1_17scalar_product_opIddEEKNS_9TransposeINS_6MatrixIdLin1ELi1ELi0ELin1ELi1EEEEEKNS_5BlockINS7_IdLin1ELin1ELi0ELin1ELin1EEELi1ELin1ELb0EEEEEKNS0_IS5_SA_KNS0_INS1_20scalar_difference_opIddEESE_SE_EEEEE3rhsEv, symObjAddr: 0xC6D8, symBinAddr: 0x10000D0E4, symSize: 0x18 }
  - { offsetInCU: 0x84725, offset: 0x84725, size: 0x8, addend: 0x0, symName: __ZN5Eigen8internal9evaluatorIKNS_13CwiseBinaryOpINS0_17scalar_product_opIddEEKNS_9TransposeINS_6MatrixIdLin1ELi1ELi0ELin1ELi1EEEEEKNS2_INS0_20scalar_difference_opIddEEKNS_5BlockINS6_IdLin1ELin1ELi0ELin1ELin1EEELi1ELin1ELb0EEESF_EEEEEC1ERSJ_, symObjAddr: 0xC6F0, symBinAddr: 0x10000D0FC, symSize: 0x34 }
  - { offsetInCU: 0x8475D, offset: 0x8475D, size: 0x8, addend: 0x0, symName: __ZN5Eigen8internal9evaluatorIKNS_13CwiseBinaryOpINS0_17scalar_product_opIddEEKNS_9TransposeINS_6MatrixIdLin1ELi1ELi0ELin1ELi1EEEEEKNS_5BlockINS6_IdLin1ELin1ELi0ELin1ELin1EEELi1ELin1ELb0EEEEEED1Ev, symObjAddr: 0xC724, symBinAddr: 0x10000D130, symSize: 0x2C }
  - { offsetInCU: 0x84789, offset: 0x84789, size: 0x8, addend: 0x0, symName: __ZN5Eigen8internal9evaluatorIKNS_13CwiseBinaryOpINS0_17scalar_product_opIddEEKNS_9TransposeINS_6MatrixIdLin1ELi1ELi0ELin1ELi1EEEEEKNS_5BlockINS6_IdLin1ELin1ELi0ELin1ELin1EEELi1ELin1ELb0EEEEEEC2ERSF_, symObjAddr: 0xC750, symBinAddr: 0x10000D15C, symSize: 0x34 }
  - { offsetInCU: 0x847C1, offset: 0x847C1, size: 0x8, addend: 0x0, symName: __ZN5Eigen8internal9evaluatorINS_13CwiseBinaryOpINS0_17scalar_product_opIddEEKNS_9TransposeINS_6MatrixIdLin1ELi1ELi0ELin1ELi1EEEEEKNS_5BlockINS6_IdLin1ELin1ELi0ELin1ELin1EEELi1ELin1ELb0EEEEEEC2ERKSE_, symObjAddr: 0xC784, symBinAddr: 0x10000D190, symSize: 0x34 }
  - { offsetInCU: 0x847FA, offset: 0x847FA, size: 0x8, addend: 0x0, symName: __ZN5Eigen8internal16binary_evaluatorINS_13CwiseBinaryOpINS0_17scalar_product_opIddEEKNS_9TransposeINS_6MatrixIdLin1ELi1ELi0ELin1ELi1EEEEEKNS_5BlockINS6_IdLin1ELin1ELi0ELin1ELin1EEELi1ELin1ELb0EEEEENS0_10IndexBasedESF_ddEC2ERKSE_, symObjAddr: 0xC7B8, symBinAddr: 0x10000D1C4, symSize: 0x64 }
  - { offsetInCU: 0x84833, offset: 0x84833, size: 0x8, addend: 0x0, symName: __ZN5Eigen8internal14evaluator_baseINS_13CwiseBinaryOpINS0_17scalar_product_opIddEEKNS_9TransposeINS_6MatrixIdLin1ELi1ELi0ELin1ELi1EEEEEKNS_5BlockINS6_IdLin1ELin1ELi0ELin1ELin1EEELi1ELin1ELb0EEEEEEC2Ev, symObjAddr: 0xC81C, symBinAddr: 0x10000D228, symSize: 0x14 }
  - { offsetInCU: 0x8485D, offset: 0x8485D, size: 0x8, addend: 0x0, symName: __ZN5Eigen8internal16binary_evaluatorINS_13CwiseBinaryOpINS0_17scalar_product_opIddEEKNS_9TransposeINS_6MatrixIdLin1ELi1ELi0ELin1ELi1EEEEEKNS_5BlockINS6_IdLin1ELin1ELi0ELin1ELin1EEELi1ELin1ELb0EEEEENS0_10IndexBasedESF_ddE4DataC1ERKSE_, symObjAddr: 0xC830, symBinAddr: 0x10000D23C, symSize: 0x34 }
  - { offsetInCU: 0x84896, offset: 0x84896, size: 0x8, addend: 0x0, symName: __ZN5Eigen8internal14evaluator_baseINS_13CwiseBinaryOpINS0_17scalar_product_opIddEEKNS_9TransposeINS_6MatrixIdLin1ELi1ELi0ELin1ELi1EEEEEKNS_5BlockINS6_IdLin1ELin1ELi0ELin1ELin1EEELi1ELin1ELb0EEEEEED2Ev, symObjAddr: 0xC864, symBinAddr: 0x10000D270, symSize: 0x14 }
  - { offsetInCU: 0x848C0, offset: 0x848C0, size: 0x8, addend: 0x0, symName: __ZN5Eigen8internal16binary_evaluatorINS_13CwiseBinaryOpINS0_17scalar_product_opIddEEKNS_9TransposeINS_6MatrixIdLin1ELi1ELi0ELin1ELi1EEEEEKNS_5BlockINS6_IdLin1ELin1ELi0ELin1ELin1EEELi1ELin1ELb0EEEEENS0_10IndexBasedESF_ddE4DataC2ERKSE_, symObjAddr: 0xC878, symBinAddr: 0x10000D284, symSize: 0xA8 }
  - { offsetInCU: 0x848F9, offset: 0x848F9, size: 0x8, addend: 0x0, symName: __ZNK5Eigen13CwiseBinaryOpINS_8internal17scalar_product_opIddEEKNS_9TransposeINS_6MatrixIdLin1ELi1ELi0ELin1ELi1EEEEEKNS_5BlockINS5_IdLin1ELin1ELi0ELin1ELin1EEELi1ELin1ELb0EEEE7functorEv, symObjAddr: 0xC920, symBinAddr: 0x10000D32C, symSize: 0x18 }
  - { offsetInCU: 0x8491F, offset: 0x8491F, size: 0x8, addend: 0x0, symName: __ZNK5Eigen13CwiseBinaryOpINS_8internal17scalar_product_opIddEEKNS_9TransposeINS_6MatrixIdLin1ELi1ELi0ELin1ELi1EEEEEKNS_5BlockINS5_IdLin1ELin1ELi0ELin1ELin1EEELi1ELin1ELb0EEEE3lhsEv, symObjAddr: 0xC938, symBinAddr: 0x10000D344, symSize: 0x14 }
  - { offsetInCU: 0x84945, offset: 0x84945, size: 0x8, addend: 0x0, symName: __ZN5Eigen8internal9evaluatorIKNS_9TransposeINS_6MatrixIdLin1ELi1ELi0ELin1ELi1EEEEEEC1ERS6_, symObjAddr: 0xC94C, symBinAddr: 0x10000D358, symSize: 0x34 }
  - { offsetInCU: 0x8497D, offset: 0x8497D, size: 0x8, addend: 0x0, symName: __ZNK5Eigen13CwiseBinaryOpINS_8internal17scalar_product_opIddEEKNS_9TransposeINS_6MatrixIdLin1ELi1ELi0ELin1ELi1EEEEEKNS_5BlockINS5_IdLin1ELin1ELi0ELin1ELin1EEELi1ELin1ELb0EEEE3rhsEv, symObjAddr: 0xC980, symBinAddr: 0x10000D38C, symSize: 0x18 }
  - { offsetInCU: 0x849A3, offset: 0x849A3, size: 0x8, addend: 0x0, symName: __ZN5Eigen8internal9evaluatorIKNS_5BlockINS_6MatrixIdLin1ELin1ELi0ELin1ELin1EEELi1ELin1ELb0EEEEC1ERS6_, symObjAddr: 0xC998, symBinAddr: 0x10000D3A4, symSize: 0x34 }
  - { offsetInCU: 0x849DB, offset: 0x849DB, size: 0x8, addend: 0x0, symName: __ZN5Eigen8internal9evaluatorIKNS_9TransposeINS_6MatrixIdLin1ELi1ELi0ELin1ELi1EEEEEED1Ev, symObjAddr: 0xC9CC, symBinAddr: 0x10000D3D8, symSize: 0x2C }
  - { offsetInCU: 0x84A07, offset: 0x84A07, size: 0x8, addend: 0x0, symName: __ZN5Eigen8internal9evaluatorIKNS_9TransposeINS_6MatrixIdLin1ELi1ELi0ELin1ELi1EEEEEEC2ERS6_, symObjAddr: 0xC9F8, symBinAddr: 0x10000D404, symSize: 0x34 }
  - { offsetInCU: 0x84A3F, offset: 0x84A3F, size: 0x8, addend: 0x0, symName: __ZN5Eigen8internal9evaluatorINS_9TransposeINS_6MatrixIdLin1ELi1ELi0ELin1ELi1EEEEEEC2ERKS5_, symObjAddr: 0xCA2C, symBinAddr: 0x10000D438, symSize: 0x34 }
  - { offsetInCU: 0x84A77, offset: 0x84A77, size: 0x8, addend: 0x0, symName: __ZN5Eigen8internal15unary_evaluatorINS_9TransposeINS_6MatrixIdLin1ELi1ELi0ELin1ELi1EEEEENS0_10IndexBasedEdEC2ERKS5_, symObjAddr: 0xCA60, symBinAddr: 0x10000D46C, symSize: 0x74 }
  - { offsetInCU: 0x84AB0, offset: 0x84AB0, size: 0x8, addend: 0x0, symName: __ZN5Eigen8internal14evaluator_baseINS_9TransposeINS_6MatrixIdLin1ELi1ELi0ELin1ELi1EEEEEEC2Ev, symObjAddr: 0xCAD4, symBinAddr: 0x10000D4E0, symSize: 0x14 }
  - { offsetInCU: 0x84ADA, offset: 0x84ADA, size: 0x8, addend: 0x0, symName: __ZNK5Eigen9TransposeINS_6MatrixIdLin1ELi1ELi0ELin1ELi1EEEE16nestedExpressionEv, symObjAddr: 0xCAE8, symBinAddr: 0x10000D4F4, symSize: 0x18 }
  - { offsetInCU: 0x84B00, offset: 0x84B00, size: 0x8, addend: 0x0, symName: __ZN5Eigen8internal14evaluator_baseINS_9TransposeINS_6MatrixIdLin1ELi1ELi0ELin1ELi1EEEEEED2Ev, symObjAddr: 0xCB00, symBinAddr: 0x10000D50C, symSize: 0x14 }
  - { offsetInCU: 0x84B2A, offset: 0x84B2A, size: 0x8, addend: 0x0, symName: __ZN5Eigen8internal9evaluatorIKNS_5BlockINS_6MatrixIdLin1ELin1ELi0ELin1ELin1EEELi1ELin1ELb0EEEEC2ERS6_, symObjAddr: 0xCB14, symBinAddr: 0x10000D520, symSize: 0x34 }
  - { offsetInCU: 0x84B62, offset: 0x84B62, size: 0x8, addend: 0x0, symName: __ZN5Eigen8internal9evaluatorINS_5BlockINS_6MatrixIdLin1ELin1ELi0ELin1ELin1EEELi1ELin1ELb0EEEEC2ERKS5_, symObjAddr: 0xCB48, symBinAddr: 0x10000D554, symSize: 0x34 }
  - { offsetInCU: 0x84B9B, offset: 0x84B9B, size: 0x8, addend: 0x0, symName: __ZN5Eigen8internal15block_evaluatorINS_6MatrixIdLin1ELin1ELi0ELin1ELin1EEELi1ELin1ELb0ELb1EEC2ERKNS_5BlockIS3_Li1ELin1ELb0EEE, symObjAddr: 0xCB7C, symBinAddr: 0x10000D588, symSize: 0xDC }
  - { offsetInCU: 0x84BD4, offset: 0x84BD4, size: 0x8, addend: 0x0, symName: __ZN5Eigen8internal17mapbase_evaluatorINS_5BlockINS_6MatrixIdLin1ELin1ELi0ELin1ELin1EEELi1ELin1ELb0EEENS3_IdLi1ELin1ELi1ELi1ELin1EEEEC2ERKS5_, symObjAddr: 0xCC58, symBinAddr: 0x10000D664, symSize: 0xB0 }
  - { offsetInCU: 0x84C0D, offset: 0x84C0D, size: 0x8, addend: 0x0, symName: __ZNK5Eigen7MapBaseINS_5BlockINS_6MatrixIdLin1ELin1ELi0ELin1ELin1EEELi1ELin1ELb0EEELi1EE4dataEv, symObjAddr: 0xCD08, symBinAddr: 0x10000D714, symSize: 0x18 }
  - { offsetInCU: 0x84C33, offset: 0x84C33, size: 0x8, addend: 0x0, symName: __ZN5Eigen8internal17mapbase_evaluatorINS_5BlockINS_6MatrixIdLin1ELin1ELi0ELin1ELin1EEELi1ELin1ELb0EEENS3_IdLi1ELin1ELi1ELi1ELin1EEEED2Ev, symObjAddr: 0xCD20, symBinAddr: 0x10000D72C, symSize: 0x2C }
  - { offsetInCU: 0x84C60, offset: 0x84C60, size: 0x8, addend: 0x0, symName: __ZN5Eigen8internal14evaluator_baseINS_5BlockINS_6MatrixIdLin1ELin1ELi0ELin1ELin1EEELi1ELin1ELb0EEEEC2Ev, symObjAddr: 0xCD4C, symBinAddr: 0x10000D758, symSize: 0x14 }
  - { offsetInCU: 0x84C8A, offset: 0x84C8A, size: 0x8, addend: 0x0, symName: __ZNK5Eigen8internal15BlockImpl_denseINS_6MatrixIdLin1ELin1ELi0ELin1ELin1EEELi1ELin1ELb0ELb1EE11innerStrideEv, symObjAddr: 0xCD60, symBinAddr: 0x10000D76C, symSize: 0x28 }
  - { offsetInCU: 0x84CB0, offset: 0x84CB0, size: 0x8, addend: 0x0, symName: __ZNK5Eigen8internal15BlockImpl_denseINS_6MatrixIdLin1ELin1ELi0ELin1ELin1EEELi1ELin1ELb0ELb1EE11outerStrideEv, symObjAddr: 0xCD88, symBinAddr: 0x10000D794, symSize: 0x28 }
  - { offsetInCU: 0x84CD6, offset: 0x84CD6, size: 0x8, addend: 0x0, symName: __ZN5Eigen8internal14evaluator_baseINS_5BlockINS_6MatrixIdLin1ELin1ELi0ELin1ELin1EEELi1ELin1ELb0EEEED2Ev, symObjAddr: 0xCDB0, symBinAddr: 0x10000D7BC, symSize: 0x14 }
  - { offsetInCU: 0x84D00, offset: 0x84D00, size: 0x8, addend: 0x0, symName: __ZNK5Eigen6MatrixIdLin1ELin1ELi0ELin1ELin1EE11outerStrideEv, symObjAddr: 0xCDC4, symBinAddr: 0x10000D7D0, symSize: 0x34 }
  - { offsetInCU: 0x84D26, offset: 0x84D26, size: 0x8, addend: 0x0, symName: __ZNK5Eigen9DenseBaseINS_6MatrixIdLin1ELin1ELi0ELin1ELin1EEEE9innerSizeEv, symObjAddr: 0xCDF8, symBinAddr: 0x10000D804, symSize: 0x24 }
  - { offsetInCU: 0x84D4C, offset: 0x84D4C, size: 0x8, addend: 0x0, symName: __ZNK5Eigen9EigenBaseINS_6MatrixIdLin1ELin1ELi0ELin1ELin1EEEE4rowsEv, symObjAddr: 0xCE1C, symBinAddr: 0x10000D828, symSize: 0x38 }
  - { offsetInCU: 0x84D72, offset: 0x84D72, size: 0x8, addend: 0x0, symName: __ZNK5Eigen9EigenBaseINS_6MatrixIdLin1ELin1ELi0ELin1ELin1EEEE7derivedEv, symObjAddr: 0xCE54, symBinAddr: 0x10000D860, symSize: 0x14 }
  - { offsetInCU: 0x84D98, offset: 0x84D98, size: 0x8, addend: 0x0, symName: __ZNK5Eigen6MatrixIdLin1ELin1ELi0ELin1ELin1EE11innerStrideEv, symObjAddr: 0xCE68, symBinAddr: 0x10000D874, symSize: 0x14 }
  - { offsetInCU: 0x84DBE, offset: 0x84DBE, size: 0x8, addend: 0x0, symName: __ZN5Eigen8internal9evaluatorIKNS_9TransposeINS_6MatrixIdLin1ELi1ELi0ELin1ELi1EEEEEED2Ev, symObjAddr: 0xCE7C, symBinAddr: 0x10000D888, symSize: 0x2C }
  - { offsetInCU: 0x84DEA, offset: 0x84DEA, size: 0x8, addend: 0x0, symName: __ZN5Eigen8internal9evaluatorINS_9TransposeINS_6MatrixIdLin1ELi1ELi0ELin1ELi1EEEEEED2Ev, symObjAddr: 0xCEA8, symBinAddr: 0x10000D8B4, symSize: 0x2C }
  - { offsetInCU: 0x84E16, offset: 0x84E16, size: 0x8, addend: 0x0, symName: __ZN5Eigen8internal15unary_evaluatorINS_9TransposeINS_6MatrixIdLin1ELi1ELi0ELin1ELi1EEEEENS0_10IndexBasedEdED2Ev, symObjAddr: 0xCED4, symBinAddr: 0x10000D8E0, symSize: 0x34 }
  - { offsetInCU: 0x84E42, offset: 0x84E42, size: 0x8, addend: 0x0, symName: __ZN5Eigen8internal9evaluatorIKNS_13CwiseBinaryOpINS0_17scalar_product_opIddEEKNS_9TransposeINS_6MatrixIdLin1ELi1ELi0ELin1ELi1EEEEEKNS2_INS0_20scalar_difference_opIddEEKNS_5BlockINS6_IdLin1ELin1ELi0ELin1ELin1EEELi1ELin1ELb0EEESF_EEEEEC2ERSJ_, symObjAddr: 0xCF08, symBinAddr: 0x10000D914, symSize: 0x34 }
  - { offsetInCU: 0x84E7A, offset: 0x84E7A, size: 0x8, addend: 0x0, symName: __ZN5Eigen8internal9evaluatorINS_13CwiseBinaryOpINS0_17scalar_product_opIddEEKNS_9TransposeINS_6MatrixIdLin1ELi1ELi0ELin1ELi1EEEEEKNS2_INS0_20scalar_difference_opIddEEKNS_5BlockINS6_IdLin1ELin1ELi0ELin1ELin1EEELi1ELin1ELb0EEESF_EEEEEC2ERKSI_, symObjAddr: 0xCF3C, symBinAddr: 0x10000D948, symSize: 0x34 }
  - { offsetInCU: 0x84EB3, offset: 0x84EB3, size: 0x8, addend: 0x0, symName: __ZN5Eigen8internal16binary_evaluatorINS_13CwiseBinaryOpINS0_17scalar_product_opIddEEKNS_9TransposeINS_6MatrixIdLin1ELi1ELi0ELin1ELi1EEEEEKNS2_INS0_20scalar_difference_opIddEEKNS_5BlockINS6_IdLin1ELin1ELi0ELin1ELin1EEELi1ELin1ELb0EEESF_EEEENS0_10IndexBasedESJ_ddEC2ERKSI_, symObjAddr: 0xCF70, symBinAddr: 0x10000D97C, symSize: 0x64 }
  - { offsetInCU: 0x84EEC, offset: 0x84EEC, size: 0x8, addend: 0x0, symName: __ZN5Eigen8internal14evaluator_baseINS_13CwiseBinaryOpINS0_17scalar_product_opIddEEKNS_9TransposeINS_6MatrixIdLin1ELi1ELi0ELin1ELi1EEEEEKNS2_INS0_20scalar_difference_opIddEEKNS_5BlockINS6_IdLin1ELin1ELi0ELin1ELin1EEELi1ELin1ELb0EEESF_EEEEEC2Ev, symObjAddr: 0xCFD4, symBinAddr: 0x10000D9E0, symSize: 0x14 }
  - { offsetInCU: 0x84F16, offset: 0x84F16, size: 0x8, addend: 0x0, symName: __ZN5Eigen8internal16binary_evaluatorINS_13CwiseBinaryOpINS0_17scalar_product_opIddEEKNS_9TransposeINS_6MatrixIdLin1ELi1ELi0ELin1ELi1EEEEEKNS2_INS0_20scalar_difference_opIddEEKNS_5BlockINS6_IdLin1ELin1ELi0ELin1ELin1EEELi1ELin1ELb0EEESF_EEEENS0_10IndexBasedESJ_ddE4DataC1ERKSI_, symObjAddr: 0xCFE8, symBinAddr: 0x10000D9F4, symSize: 0x34 }
  - { offsetInCU: 0x84F4F, offset: 0x84F4F, size: 0x8, addend: 0x0, symName: __ZN5Eigen8internal14evaluator_baseINS_13CwiseBinaryOpINS0_17scalar_product_opIddEEKNS_9TransposeINS_6MatrixIdLin1ELi1ELi0ELin1ELi1EEEEEKNS2_INS0_20scalar_difference_opIddEEKNS_5BlockINS6_IdLin1ELin1ELi0ELin1ELin1EEELi1ELin1ELb0EEESF_EEEEED2Ev, symObjAddr: 0xD01C, symBinAddr: 0x10000DA28, symSize: 0x14 }
  - { offsetInCU: 0x84F79, offset: 0x84F79, size: 0x8, addend: 0x0, symName: __ZN5Eigen8internal16binary_evaluatorINS_13CwiseBinaryOpINS0_17scalar_product_opIddEEKNS_9TransposeINS_6MatrixIdLin1ELi1ELi0ELin1ELi1EEEEEKNS2_INS0_20scalar_difference_opIddEEKNS_5BlockINS6_IdLin1ELin1ELi0ELin1ELin1EEELi1ELin1ELb0EEESF_EEEENS0_10IndexBasedESJ_ddE4DataC2ERKSI_, symObjAddr: 0xD030, symBinAddr: 0x10000DA3C, symSize: 0xA8 }
  - { offsetInCU: 0x84FB2, offset: 0x84FB2, size: 0x8, addend: 0x0, symName: __ZNK5Eigen13CwiseBinaryOpINS_8internal17scalar_product_opIddEEKNS_9TransposeINS_6MatrixIdLin1ELi1ELi0ELin1ELi1EEEEEKNS0_INS1_20scalar_difference_opIddEEKNS_5BlockINS5_IdLin1ELin1ELi0ELin1ELin1EEELi1ELin1ELb0EEESE_EEE7functorEv, symObjAddr: 0xD0D8, symBinAddr: 0x10000DAE4, symSize: 0x18 }
  - { offsetInCU: 0x84FD8, offset: 0x84FD8, size: 0x8, addend: 0x0, symName: __ZNK5Eigen13CwiseBinaryOpINS_8internal17scalar_product_opIddEEKNS_9TransposeINS_6MatrixIdLin1ELi1ELi0ELin1ELi1EEEEEKNS0_INS1_20scalar_difference_opIddEEKNS_5BlockINS5_IdLin1ELin1ELi0ELin1ELin1EEELi1ELin1ELb0EEESE_EEE3lhsEv, symObjAddr: 0xD0F0, symBinAddr: 0x10000DAFC, symSize: 0x14 }
  - { offsetInCU: 0x84FFE, offset: 0x84FFE, size: 0x8, addend: 0x0, symName: __ZNK5Eigen13CwiseBinaryOpINS_8internal17scalar_product_opIddEEKNS_9TransposeINS_6MatrixIdLin1ELi1ELi0ELin1ELi1EEEEEKNS0_INS1_20scalar_difference_opIddEEKNS_5BlockINS5_IdLin1ELin1ELi0ELin1ELin1EEELi1ELin1ELb0EEESE_EEE3rhsEv, symObjAddr: 0xD104, symBinAddr: 0x10000DB10, symSize: 0x18 }
  - { offsetInCU: 0x85024, offset: 0x85024, size: 0x8, addend: 0x0, symName: __ZN5Eigen8internal9evaluatorIKNS_13CwiseBinaryOpINS0_20scalar_difference_opIddEEKNS_5BlockINS_6MatrixIdLin1ELin1ELi0ELin1ELin1EEELi1ELin1ELb0EEES9_EEEC1ERSB_, symObjAddr: 0xD11C, symBinAddr: 0x10000DB28, symSize: 0x34 }
  - { offsetInCU: 0x8505C, offset: 0x8505C, size: 0x8, addend: 0x0, symName: __ZN5Eigen8internal9evaluatorIKNS_13CwiseBinaryOpINS0_20scalar_difference_opIddEEKNS_5BlockINS_6MatrixIdLin1ELin1ELi0ELin1ELin1EEELi1ELin1ELb0EEES9_EEEC2ERSB_, symObjAddr: 0xD150, symBinAddr: 0x10000DB5C, symSize: 0x34 }
  - { offsetInCU: 0x85094, offset: 0x85094, size: 0x8, addend: 0x0, symName: __ZN5Eigen8internal9evaluatorINS_13CwiseBinaryOpINS0_20scalar_difference_opIddEEKNS_5BlockINS_6MatrixIdLin1ELin1ELi0ELin1ELin1EEELi1ELin1ELb0EEES9_EEEC2ERKSA_, symObjAddr: 0xD184, symBinAddr: 0x10000DB90, symSize: 0x34 }
  - { offsetInCU: 0x850CD, offset: 0x850CD, size: 0x8, addend: 0x0, symName: __ZN5Eigen8internal16binary_evaluatorINS_13CwiseBinaryOpINS0_20scalar_difference_opIddEEKNS_5BlockINS_6MatrixIdLin1ELin1ELi0ELin1ELin1EEELi1ELin1ELb0EEES9_EENS0_10IndexBasedESB_ddEC2ERKSA_, symObjAddr: 0xD1B8, symBinAddr: 0x10000DBC4, symSize: 0x64 }
  - { offsetInCU: 0x85106, offset: 0x85106, size: 0x8, addend: 0x0, symName: __ZN5Eigen8internal14evaluator_baseINS_13CwiseBinaryOpINS0_20scalar_difference_opIddEEKNS_5BlockINS_6MatrixIdLin1ELin1ELi0ELin1ELin1EEELi1ELin1ELb0EEES9_EEEC2Ev, symObjAddr: 0xD21C, symBinAddr: 0x10000DC28, symSize: 0x14 }
  - { offsetInCU: 0x85130, offset: 0x85130, size: 0x8, addend: 0x0, symName: __ZN5Eigen8internal16binary_evaluatorINS_13CwiseBinaryOpINS0_20scalar_difference_opIddEEKNS_5BlockINS_6MatrixIdLin1ELin1ELi0ELin1ELin1EEELi1ELin1ELb0EEES9_EENS0_10IndexBasedESB_ddE4DataC1ERKSA_, symObjAddr: 0xD230, symBinAddr: 0x10000DC3C, symSize: 0x34 }
  - { offsetInCU: 0x85169, offset: 0x85169, size: 0x8, addend: 0x0, symName: __ZN5Eigen8internal14evaluator_baseINS_13CwiseBinaryOpINS0_20scalar_difference_opIddEEKNS_5BlockINS_6MatrixIdLin1ELin1ELi0ELin1ELin1EEELi1ELin1ELb0EEES9_EEED2Ev, symObjAddr: 0xD264, symBinAddr: 0x10000DC70, symSize: 0x14 }
  - { offsetInCU: 0x85193, offset: 0x85193, size: 0x8, addend: 0x0, symName: __ZN5Eigen8internal16binary_evaluatorINS_13CwiseBinaryOpINS0_20scalar_difference_opIddEEKNS_5BlockINS_6MatrixIdLin1ELin1ELi0ELin1ELin1EEELi1ELin1ELb0EEES9_EENS0_10IndexBasedESB_ddE4DataC2ERKSA_, symObjAddr: 0xD278, symBinAddr: 0x10000DC84, symSize: 0xA8 }
  - { offsetInCU: 0x851CC, offset: 0x851CC, size: 0x8, addend: 0x0, symName: __ZNK5Eigen13CwiseBinaryOpINS_8internal20scalar_difference_opIddEEKNS_5BlockINS_6MatrixIdLin1ELin1ELi0ELin1ELin1EEELi1ELin1ELb0EEES8_E7functorEv, symObjAddr: 0xD320, symBinAddr: 0x10000DD2C, symSize: 0x18 }
  - { offsetInCU: 0x851F2, offset: 0x851F2, size: 0x8, addend: 0x0, symName: __ZNK5Eigen13CwiseBinaryOpINS_8internal20scalar_difference_opIddEEKNS_5BlockINS_6MatrixIdLin1ELin1ELi0ELin1ELin1EEELi1ELin1ELb0EEES8_E3lhsEv, symObjAddr: 0xD338, symBinAddr: 0x10000DD44, symSize: 0x14 }
  - { offsetInCU: 0x85218, offset: 0x85218, size: 0x8, addend: 0x0, symName: __ZNK5Eigen13CwiseBinaryOpINS_8internal20scalar_difference_opIddEEKNS_5BlockINS_6MatrixIdLin1ELin1ELi0ELin1ELin1EEELi1ELin1ELb0EEES8_E3rhsEv, symObjAddr: 0xD34C, symBinAddr: 0x10000DD58, symSize: 0x18 }
  - { offsetInCU: 0x8523E, offset: 0x8523E, size: 0x8, addend: 0x0, symName: __ZN5Eigen8internal9evaluatorIKNS_5BlockINS_6MatrixIdLin1ELin1ELi0ELin1ELin1EEELi1ELin1ELb0EEEED1Ev, symObjAddr: 0xD364, symBinAddr: 0x10000DD70, symSize: 0x2C }
  - { offsetInCU: 0x8526A, offset: 0x8526A, size: 0x8, addend: 0x0, symName: __ZN5Eigen8internal9evaluatorIKNS_5BlockINS_6MatrixIdLin1ELin1ELi0ELin1ELin1EEELi1ELin1ELb0EEEED2Ev, symObjAddr: 0xD390, symBinAddr: 0x10000DD9C, symSize: 0x2C }
  - { offsetInCU: 0x85296, offset: 0x85296, size: 0x8, addend: 0x0, symName: __ZN5Eigen8internal9evaluatorINS_5BlockINS_6MatrixIdLin1ELin1ELi0ELin1ELin1EEELi1ELin1ELb0EEEED2Ev, symObjAddr: 0xD3BC, symBinAddr: 0x10000DDC8, symSize: 0x2C }
  - { offsetInCU: 0x852C3, offset: 0x852C3, size: 0x8, addend: 0x0, symName: __ZN5Eigen8internal15block_evaluatorINS_6MatrixIdLin1ELin1ELi0ELin1ELin1EEELi1ELin1ELb0ELb1EED2Ev, symObjAddr: 0xD3E8, symBinAddr: 0x10000DDF4, symSize: 0x2C }
  - { offsetInCU: 0x852F0, offset: 0x852F0, size: 0x8, addend: 0x0, symName: __ZN5Eigen8internal9evaluatorIKNS_13CwiseBinaryOpINS0_17scalar_product_opIddEEKNS_9TransposeINS_6MatrixIdLin1ELi1ELi0ELin1ELi1EEEEEKNS_5BlockINS6_IdLin1ELin1ELi0ELin1ELin1EEELi1ELin1ELb0EEEEEED2Ev, symObjAddr: 0xD414, symBinAddr: 0x10000DE20, symSize: 0x2C }
  - { offsetInCU: 0x8531C, offset: 0x8531C, size: 0x8, addend: 0x0, symName: __ZN5Eigen8internal9evaluatorINS_13CwiseBinaryOpINS0_17scalar_product_opIddEEKNS_9TransposeINS_6MatrixIdLin1ELi1ELi0ELin1ELi1EEEEEKNS_5BlockINS6_IdLin1ELin1ELi0ELin1ELin1EEELi1ELin1ELb0EEEEEED2Ev, symObjAddr: 0xD440, symBinAddr: 0x10000DE4C, symSize: 0x2C }
  - { offsetInCU: 0x85349, offset: 0x85349, size: 0x8, addend: 0x0, symName: __ZN5Eigen8internal16binary_evaluatorINS_13CwiseBinaryOpINS0_17scalar_product_opIddEEKNS_9TransposeINS_6MatrixIdLin1ELi1ELi0ELin1ELi1EEEEEKNS_5BlockINS6_IdLin1ELin1ELi0ELin1ELin1EEELi1ELin1ELb0EEEEENS0_10IndexBasedESF_ddED2Ev, symObjAddr: 0xD46C, symBinAddr: 0x10000DE78, symSize: 0x34 }
  - { offsetInCU: 0x85375, offset: 0x85375, size: 0x8, addend: 0x0, symName: __ZN5Eigen8internal16binary_evaluatorINS_13CwiseBinaryOpINS0_17scalar_product_opIddEEKNS_9TransposeINS_6MatrixIdLin1ELi1ELi0ELin1ELi1EEEEEKNS_5BlockINS6_IdLin1ELin1ELi0ELin1ELin1EEELi1ELin1ELb0EEEEENS0_10IndexBasedESF_ddE4DataD1Ev, symObjAddr: 0xD4A0, symBinAddr: 0x10000DEAC, symSize: 0x2C }
  - { offsetInCU: 0x853A2, offset: 0x853A2, size: 0x8, addend: 0x0, symName: __ZN5Eigen8internal16binary_evaluatorINS_13CwiseBinaryOpINS0_17scalar_product_opIddEEKNS_9TransposeINS_6MatrixIdLin1ELi1ELi0ELin1ELi1EEEEEKNS_5BlockINS6_IdLin1ELin1ELi0ELin1ELin1EEELi1ELin1ELb0EEEEENS0_10IndexBasedESF_ddE4DataD2Ev, symObjAddr: 0xD4CC, symBinAddr: 0x10000DED8, symSize: 0x3C }
  - { offsetInCU: 0x853CF, offset: 0x853CF, size: 0x8, addend: 0x0, symName: __ZN5Eigen8internal9evaluatorIKNS_13CwiseBinaryOpINS0_17scalar_product_opIddEEKNS2_IS4_KNS_9TransposeINS_6MatrixIdLin1ELi1ELi0ELin1ELi1EEEEEKNS2_INS0_20scalar_difference_opIddEEKNS_5BlockINS6_IdLin1ELin1ELi0ELin1ELin1EEELi1ELin1ELb0EEESF_EEEEKNS_14CwiseNullaryOpINS0_18scalar_constant_opIdEEKNS6_IdLi1ELin1ELi1ELi1ELin1EEEEEEEEC2ERSS_, symObjAddr: 0xD508, symBinAddr: 0x10000DF14, symSize: 0x34 }
  - { offsetInCU: 0x85407, offset: 0x85407, size: 0x8, addend: 0x0, symName: __ZN5Eigen8internal9evaluatorINS_13CwiseBinaryOpINS0_17scalar_product_opIddEEKNS2_IS4_KNS_9TransposeINS_6MatrixIdLin1ELi1ELi0ELin1ELi1EEEEEKNS2_INS0_20scalar_difference_opIddEEKNS_5BlockINS6_IdLin1ELin1ELi0ELin1ELin1EEELi1ELin1ELb0EEESF_EEEEKNS_14CwiseNullaryOpINS0_18scalar_constant_opIdEEKNS6_IdLi1ELin1ELi1ELi1ELin1EEEEEEEEC2ERKSR_, symObjAddr: 0xD53C, symBinAddr: 0x10000DF48, symSize: 0x34 }
  - { offsetInCU: 0x85440, offset: 0x85440, size: 0x8, addend: 0x0, symName: __ZN5Eigen8internal16binary_evaluatorINS_13CwiseBinaryOpINS0_17scalar_product_opIddEEKNS2_IS4_KNS_9TransposeINS_6MatrixIdLin1ELi1ELi0ELin1ELi1EEEEEKNS2_INS0_20scalar_difference_opIddEEKNS_5BlockINS6_IdLin1ELin1ELi0ELin1ELin1EEELi1ELin1ELb0EEESF_EEEEKNS_14CwiseNullaryOpINS0_18scalar_constant_opIdEEKNS6_IdLi1ELin1ELi1ELi1ELin1EEEEEEENS0_10IndexBasedESS_ddEC2ERKSR_, symObjAddr: 0xD570, symBinAddr: 0x10000DF7C, symSize: 0x64 }
  - { offsetInCU: 0x85479, offset: 0x85479, size: 0x8, addend: 0x0, symName: __ZN5Eigen8internal14evaluator_baseINS_13CwiseBinaryOpINS0_17scalar_product_opIddEEKNS2_IS4_KNS_9TransposeINS_6MatrixIdLin1ELi1ELi0ELin1ELi1EEEEEKNS2_INS0_20scalar_difference_opIddEEKNS_5BlockINS6_IdLin1ELin1ELi0ELin1ELin1EEELi1ELin1ELb0EEESF_EEEEKNS_14CwiseNullaryOpINS0_18scalar_constant_opIdEEKNS6_IdLi1ELin1ELi1ELi1ELin1EEEEEEEEC2Ev, symObjAddr: 0xD5D4, symBinAddr: 0x10000DFE0, symSize: 0x14 }
  - { offsetInCU: 0x854A3, offset: 0x854A3, size: 0x8, addend: 0x0, symName: __ZN5Eigen8internal16binary_evaluatorINS_13CwiseBinaryOpINS0_17scalar_product_opIddEEKNS2_IS4_KNS_9TransposeINS_6MatrixIdLin1ELi1ELi0ELin1ELi1EEEEEKNS2_INS0_20scalar_difference_opIddEEKNS_5BlockINS6_IdLin1ELin1ELi0ELin1ELin1EEELi1ELin1ELb0EEESF_EEEEKNS_14CwiseNullaryOpINS0_18scalar_constant_opIdEEKNS6_IdLi1ELin1ELi1ELi1ELin1EEEEEEENS0_10IndexBasedESS_ddE4DataC1ERKSR_, symObjAddr: 0xD5E8, symBinAddr: 0x10000DFF4, symSize: 0x34 }
  - { offsetInCU: 0x854DC, offset: 0x854DC, size: 0x8, addend: 0x0, symName: __ZN5Eigen8internal14evaluator_baseINS_13CwiseBinaryOpINS0_17scalar_product_opIddEEKNS2_IS4_KNS_9TransposeINS_6MatrixIdLin1ELi1ELi0ELin1ELi1EEEEEKNS2_INS0_20scalar_difference_opIddEEKNS_5BlockINS6_IdLin1ELin1ELi0ELin1ELin1EEELi1ELin1ELb0EEESF_EEEEKNS_14CwiseNullaryOpINS0_18scalar_constant_opIdEEKNS6_IdLi1ELin1ELi1ELi1ELin1EEEEEEEED2Ev, symObjAddr: 0xD61C, symBinAddr: 0x10000E028, symSize: 0x14 }
  - { offsetInCU: 0x85506, offset: 0x85506, size: 0x8, addend: 0x0, symName: __ZN5Eigen8internal16binary_evaluatorINS_13CwiseBinaryOpINS0_17scalar_product_opIddEEKNS2_IS4_KNS_9TransposeINS_6MatrixIdLin1ELi1ELi0ELin1ELi1EEEEEKNS2_INS0_20scalar_difference_opIddEEKNS_5BlockINS6_IdLin1ELin1ELi0ELin1ELin1EEELi1ELin1ELb0EEESF_EEEEKNS_14CwiseNullaryOpINS0_18scalar_constant_opIdEEKNS6_IdLi1ELin1ELi1ELi1ELin1EEEEEEENS0_10IndexBasedESS_ddE4DataC2ERKSR_, symObjAddr: 0xD630, symBinAddr: 0x10000E03C, symSize: 0xA8 }
  - { offsetInCU: 0x8553F, offset: 0x8553F, size: 0x8, addend: 0x0, symName: __ZNK5Eigen13CwiseBinaryOpINS_8internal17scalar_product_opIddEEKNS0_IS3_KNS_9TransposeINS_6MatrixIdLin1ELi1ELi0ELin1ELi1EEEEEKNS0_INS1_20scalar_difference_opIddEEKNS_5BlockINS5_IdLin1ELin1ELi0ELin1ELin1EEELi1ELin1ELb0EEESE_EEEEKNS_14CwiseNullaryOpINS1_18scalar_constant_opIdEEKNS5_IdLi1ELin1ELi1ELi1ELin1EEEEEE7functorEv, symObjAddr: 0xD6D8, symBinAddr: 0x10000E0E4, symSize: 0x18 }
  - { offsetInCU: 0x85565, offset: 0x85565, size: 0x8, addend: 0x0, symName: __ZNK5Eigen13CwiseBinaryOpINS_8internal17scalar_product_opIddEEKNS0_IS3_KNS_9TransposeINS_6MatrixIdLin1ELi1ELi0ELin1ELi1EEEEEKNS0_INS1_20scalar_difference_opIddEEKNS_5BlockINS5_IdLin1ELin1ELi0ELin1ELin1EEELi1ELin1ELb0EEESE_EEEEKNS_14CwiseNullaryOpINS1_18scalar_constant_opIdEEKNS5_IdLi1ELin1ELi1ELi1ELin1EEEEEE3lhsEv, symObjAddr: 0xD6F0, symBinAddr: 0x10000E0FC, symSize: 0x18 }
  - { offsetInCU: 0x8558B, offset: 0x8558B, size: 0x8, addend: 0x0, symName: __ZNK5Eigen13CwiseBinaryOpINS_8internal17scalar_product_opIddEEKNS0_IS3_KNS_9TransposeINS_6MatrixIdLin1ELi1ELi0ELin1ELi1EEEEEKNS0_INS1_20scalar_difference_opIddEEKNS_5BlockINS5_IdLin1ELin1ELi0ELin1ELin1EEELi1ELin1ELb0EEESE_EEEEKNS_14CwiseNullaryOpINS1_18scalar_constant_opIdEEKNS5_IdLi1ELin1ELi1ELi1ELin1EEEEEE3rhsEv, symObjAddr: 0xD708, symBinAddr: 0x10000E114, symSize: 0x18 }
  - { offsetInCU: 0x855B1, offset: 0x855B1, size: 0x8, addend: 0x0, symName: __ZN5Eigen8internal9evaluatorIKNS_14CwiseNullaryOpINS0_18scalar_constant_opIdEEKNS_6MatrixIdLi1ELin1ELi1ELi1ELin1EEEEEEC1ERS9_, symObjAddr: 0xD720, symBinAddr: 0x10000E12C, symSize: 0x34 }
  - { offsetInCU: 0x855E9, offset: 0x855E9, size: 0x8, addend: 0x0, symName: __ZN5Eigen8internal9evaluatorIKNS_13CwiseBinaryOpINS0_17scalar_product_opIddEEKNS_9TransposeINS_6MatrixIdLin1ELi1ELi0ELin1ELi1EEEEEKNS2_INS0_20scalar_difference_opIddEEKNS_5BlockINS6_IdLin1ELin1ELi0ELin1ELin1EEELi1ELin1ELb0EEESF_EEEEED1Ev, symObjAddr: 0xD754, symBinAddr: 0x10000E160, symSize: 0x2C }
  - { offsetInCU: 0x85615, offset: 0x85615, size: 0x8, addend: 0x0, symName: __ZN5Eigen8internal9evaluatorIKNS_14CwiseNullaryOpINS0_18scalar_constant_opIdEEKNS_6MatrixIdLi1ELin1ELi1ELi1ELin1EEEEEEC2ERS9_, symObjAddr: 0xD780, symBinAddr: 0x10000E18C, symSize: 0x34 }
  - { offsetInCU: 0x8564D, offset: 0x8564D, size: 0x8, addend: 0x0, symName: __ZN5Eigen8internal9evaluatorINS_14CwiseNullaryOpINS0_18scalar_constant_opIdEEKNS_6MatrixIdLi1ELin1ELi1ELi1ELin1EEEEEEC2ERKS8_, symObjAddr: 0xD7B4, symBinAddr: 0x10000E1C0, symSize: 0x74 }
  - { offsetInCU: 0x85686, offset: 0x85686, size: 0x8, addend: 0x0, symName: __ZN5Eigen8internal14evaluator_baseINS_14CwiseNullaryOpINS0_18scalar_constant_opIdEEKNS_6MatrixIdLi1ELin1ELi1ELi1ELin1EEEEEEC2Ev, symObjAddr: 0xD828, symBinAddr: 0x10000E234, symSize: 0x14 }
  - { offsetInCU: 0x856B0, offset: 0x856B0, size: 0x8, addend: 0x0, symName: __ZNK5Eigen14CwiseNullaryOpINS_8internal18scalar_constant_opIdEEKNS_6MatrixIdLi1ELin1ELi1ELi1ELin1EEEE7functorEv, symObjAddr: 0xD83C, symBinAddr: 0x10000E248, symSize: 0x18 }
  - { offsetInCU: 0x856D6, offset: 0x856D6, size: 0x8, addend: 0x0, symName: __ZN5Eigen8internal14evaluator_baseINS_14CwiseNullaryOpINS0_18scalar_constant_opIdEEKNS_6MatrixIdLi1ELin1ELi1ELi1ELin1EEEEEED2Ev, symObjAddr: 0xD854, symBinAddr: 0x10000E260, symSize: 0x14 }
  - { offsetInCU: 0x85700, offset: 0x85700, size: 0x8, addend: 0x0, symName: __ZN5Eigen8internal9evaluatorIKNS_13CwiseBinaryOpINS0_17scalar_product_opIddEEKNS_9TransposeINS_6MatrixIdLin1ELi1ELi0ELin1ELi1EEEEEKNS2_INS0_20scalar_difference_opIddEEKNS_5BlockINS6_IdLin1ELin1ELi0ELin1ELin1EEELi1ELin1ELb0EEESF_EEEEED2Ev, symObjAddr: 0xD868, symBinAddr: 0x10000E274, symSize: 0x2C }
  - { offsetInCU: 0x8572C, offset: 0x8572C, size: 0x8, addend: 0x0, symName: __ZN5Eigen8internal9evaluatorINS_13CwiseBinaryOpINS0_17scalar_product_opIddEEKNS_9TransposeINS_6MatrixIdLin1ELi1ELi0ELin1ELi1EEEEEKNS2_INS0_20scalar_difference_opIddEEKNS_5BlockINS6_IdLin1ELin1ELi0ELin1ELin1EEELi1ELin1ELb0EEESF_EEEEED2Ev, symObjAddr: 0xD894, symBinAddr: 0x10000E2A0, symSize: 0x2C }
  - { offsetInCU: 0x85759, offset: 0x85759, size: 0x8, addend: 0x0, symName: __ZN5Eigen8internal16binary_evaluatorINS_13CwiseBinaryOpINS0_17scalar_product_opIddEEKNS_9TransposeINS_6MatrixIdLin1ELi1ELi0ELin1ELi1EEEEEKNS2_INS0_20scalar_difference_opIddEEKNS_5BlockINS6_IdLin1ELin1ELi0ELin1ELin1EEELi1ELin1ELb0EEESF_EEEENS0_10IndexBasedESJ_ddED2Ev, symObjAddr: 0xD8C0, symBinAddr: 0x10000E2CC, symSize: 0x34 }
  - { offsetInCU: 0x85785, offset: 0x85785, size: 0x8, addend: 0x0, symName: __ZN5Eigen8internal16binary_evaluatorINS_13CwiseBinaryOpINS0_17scalar_product_opIddEEKNS_9TransposeINS_6MatrixIdLin1ELi1ELi0ELin1ELi1EEEEEKNS2_INS0_20scalar_difference_opIddEEKNS_5BlockINS6_IdLin1ELin1ELi0ELin1ELin1EEELi1ELin1ELb0EEESF_EEEENS0_10IndexBasedESJ_ddE4DataD1Ev, symObjAddr: 0xD8F4, symBinAddr: 0x10000E300, symSize: 0x2C }
  - { offsetInCU: 0x857B2, offset: 0x857B2, size: 0x8, addend: 0x0, symName: __ZN5Eigen8internal16binary_evaluatorINS_13CwiseBinaryOpINS0_17scalar_product_opIddEEKNS_9TransposeINS_6MatrixIdLin1ELi1ELi0ELin1ELi1EEEEEKNS2_INS0_20scalar_difference_opIddEEKNS_5BlockINS6_IdLin1ELin1ELi0ELin1ELin1EEELi1ELin1ELb0EEESF_EEEENS0_10IndexBasedESJ_ddE4DataD2Ev, symObjAddr: 0xD920, symBinAddr: 0x10000E32C, symSize: 0x3C }
  - { offsetInCU: 0x857DF, offset: 0x857DF, size: 0x8, addend: 0x0, symName: __ZN5Eigen8internal9evaluatorIKNS_13CwiseBinaryOpINS0_20scalar_difference_opIddEEKNS_5BlockINS_6MatrixIdLin1ELin1ELi0ELin1ELin1EEELi1ELin1ELb0EEES9_EEED1Ev, symObjAddr: 0xD95C, symBinAddr: 0x10000E368, symSize: 0x2C }
  - { offsetInCU: 0x8580B, offset: 0x8580B, size: 0x8, addend: 0x0, symName: __ZN5Eigen8internal9evaluatorIKNS_13CwiseBinaryOpINS0_20scalar_difference_opIddEEKNS_5BlockINS_6MatrixIdLin1ELin1ELi0ELin1ELin1EEELi1ELin1ELb0EEES9_EEED2Ev, symObjAddr: 0xD988, symBinAddr: 0x10000E394, symSize: 0x2C }
  - { offsetInCU: 0x85837, offset: 0x85837, size: 0x8, addend: 0x0, symName: __ZN5Eigen8internal9evaluatorINS_13CwiseBinaryOpINS0_20scalar_difference_opIddEEKNS_5BlockINS_6MatrixIdLin1ELin1ELi0ELin1ELin1EEELi1ELin1ELb0EEES9_EEED2Ev, symObjAddr: 0xD9B4, symBinAddr: 0x10000E3C0, symSize: 0x2C }
  - { offsetInCU: 0x85864, offset: 0x85864, size: 0x8, addend: 0x0, symName: __ZN5Eigen8internal16binary_evaluatorINS_13CwiseBinaryOpINS0_20scalar_difference_opIddEEKNS_5BlockINS_6MatrixIdLin1ELin1ELi0ELin1ELin1EEELi1ELin1ELb0EEES9_EENS0_10IndexBasedESB_ddED2Ev, symObjAddr: 0xD9E0, symBinAddr: 0x10000E3EC, symSize: 0x34 }
  - { offsetInCU: 0x85890, offset: 0x85890, size: 0x8, addend: 0x0, symName: __ZN5Eigen8internal16binary_evaluatorINS_13CwiseBinaryOpINS0_20scalar_difference_opIddEEKNS_5BlockINS_6MatrixIdLin1ELin1ELi0ELin1ELin1EEELi1ELin1ELb0EEES9_EENS0_10IndexBasedESB_ddE4DataD1Ev, symObjAddr: 0xDA14, symBinAddr: 0x10000E420, symSize: 0x2C }
  - { offsetInCU: 0x858BD, offset: 0x858BD, size: 0x8, addend: 0x0, symName: __ZN5Eigen8internal16binary_evaluatorINS_13CwiseBinaryOpINS0_20scalar_difference_opIddEEKNS_5BlockINS_6MatrixIdLin1ELin1ELi0ELin1ELin1EEELi1ELin1ELb0EEES9_EENS0_10IndexBasedESB_ddE4DataD2Ev, symObjAddr: 0xDA40, symBinAddr: 0x10000E44C, symSize: 0x3C }
  - { offsetInCU: 0x858EA, offset: 0x858EA, size: 0x8, addend: 0x0, symName: __ZN5Eigen8internal9evaluatorIKNS_13CwiseBinaryOpINS0_13scalar_sum_opIddEEKNS2_INS0_17scalar_product_opIddEEKNS_9TransposeINS_6MatrixIdLin1ELi1ELi0ELin1ELi1EEEEEKNS_5BlockINS8_IdLin1ELin1ELi0ELin1ELin1EEELi1ELin1ELb0EEEEEKNS2_IS6_SB_KNS2_INS0_20scalar_difference_opIddEESF_SF_EEEEEEED2Ev, symObjAddr: 0xDA7C, symBinAddr: 0x10000E488, symSize: 0x2C }
  - { offsetInCU: 0x85916, offset: 0x85916, size: 0x8, addend: 0x0, symName: __ZN5Eigen8internal9evaluatorINS_13CwiseBinaryOpINS0_13scalar_sum_opIddEEKNS2_INS0_17scalar_product_opIddEEKNS_9TransposeINS_6MatrixIdLin1ELi1ELi0ELin1ELi1EEEEEKNS_5BlockINS8_IdLin1ELin1ELi0ELin1ELin1EEELi1ELin1ELb0EEEEEKNS2_IS6_SB_KNS2_INS0_20scalar_difference_opIddEESF_SF_EEEEEEED2Ev, symObjAddr: 0xDAA8, symBinAddr: 0x10000E4B4, symSize: 0x2C }
  - { offsetInCU: 0x85943, offset: 0x85943, size: 0x8, addend: 0x0, symName: __ZN5Eigen8internal16binary_evaluatorINS_13CwiseBinaryOpINS0_13scalar_sum_opIddEEKNS2_INS0_17scalar_product_opIddEEKNS_9TransposeINS_6MatrixIdLin1ELi1ELi0ELin1ELi1EEEEEKNS_5BlockINS8_IdLin1ELin1ELi0ELin1ELin1EEELi1ELin1ELb0EEEEEKNS2_IS6_SB_KNS2_INS0_20scalar_difference_opIddEESF_SF_EEEEEENS0_10IndexBasedESP_ddED2Ev, symObjAddr: 0xDAD4, symBinAddr: 0x10000E4E0, symSize: 0x34 }
  - { offsetInCU: 0x8596F, offset: 0x8596F, size: 0x8, addend: 0x0, symName: __ZN5Eigen8internal16binary_evaluatorINS_13CwiseBinaryOpINS0_13scalar_sum_opIddEEKNS2_INS0_17scalar_product_opIddEEKNS_9TransposeINS_6MatrixIdLin1ELi1ELi0ELin1ELi1EEEEEKNS_5BlockINS8_IdLin1ELin1ELi0ELin1ELin1EEELi1ELin1ELb0EEEEEKNS2_IS6_SB_KNS2_INS0_20scalar_difference_opIddEESF_SF_EEEEEENS0_10IndexBasedESP_ddE4DataD1Ev, symObjAddr: 0xDB08, symBinAddr: 0x10000E514, symSize: 0x2C }
  - { offsetInCU: 0x8599C, offset: 0x8599C, size: 0x8, addend: 0x0, symName: __ZN5Eigen8internal16binary_evaluatorINS_13CwiseBinaryOpINS0_13scalar_sum_opIddEEKNS2_INS0_17scalar_product_opIddEEKNS_9TransposeINS_6MatrixIdLin1ELi1ELi0ELin1ELi1EEEEEKNS_5BlockINS8_IdLin1ELin1ELi0ELin1ELin1EEELi1ELin1ELb0EEEEEKNS2_IS6_SB_KNS2_INS0_20scalar_difference_opIddEESF_SF_EEEEEENS0_10IndexBasedESP_ddE4DataD2Ev, symObjAddr: 0xDB34, symBinAddr: 0x10000E540, symSize: 0x3C }
  - { offsetInCU: 0x859C9, offset: 0x859C9, size: 0x8, addend: 0x0, symName: __ZNK5Eigen13CwiseBinaryOpINS_8internal13scalar_sum_opIddEEKNS0_IS3_KNS0_INS1_17scalar_product_opIddEEKNS_9TransposeINS_6MatrixIdLin1ELi1ELi0ELin1ELi1EEEEEKNS_5BlockINS7_IdLin1ELin1ELi0ELin1ELin1EEELi1ELin1ELb0EEEEEKNS0_IS5_SA_KNS0_INS1_20scalar_difference_opIddEESE_SE_EEEEEEKNS0_IS5_SM_KNS_14CwiseNullaryOpINS1_18scalar_constant_opIdEEKNS7_IdLi1ELin1ELi1ELi1ELin1EEEEEEEE4rowsEv, symObjAddr: 0xDB70, symBinAddr: 0x10000E57C, symSize: 0x28 }
  - { offsetInCU: 0x859EF, offset: 0x859EF, size: 0x8, addend: 0x0, symName: __ZNK5Eigen13CwiseBinaryOpINS_8internal13scalar_sum_opIddEEKNS0_IS3_KNS0_INS1_17scalar_product_opIddEEKNS_9TransposeINS_6MatrixIdLin1ELi1ELi0ELin1ELi1EEEEEKNS_5BlockINS7_IdLin1ELin1ELi0ELin1ELin1EEELi1ELin1ELb0EEEEEKNS0_IS5_SA_KNS0_INS1_20scalar_difference_opIddEESE_SE_EEEEEEKNS0_IS5_SM_KNS_14CwiseNullaryOpINS1_18scalar_constant_opIdEEKNS7_IdLi1ELin1ELi1ELi1ELin1EEEEEEEE4colsEv, symObjAddr: 0xDB98, symBinAddr: 0x10000E5A4, symSize: 0x28 }
  - { offsetInCU: 0x85A15, offset: 0x85A15, size: 0x8, addend: 0x0, symName: __ZN5Eigen9DenseBaseINS_5BlockINS_6MatrixIdLin1ELin1ELi0ELin1ELin1EEELi1ELin1ELb0EEEE6resizeEll, symObjAddr: 0xDBC0, symBinAddr: 0x10000E5CC, symSize: 0xBC }
  - { offsetInCU: 0x85A59, offset: 0x85A59, size: 0x8, addend: 0x0, symName: __ZNK5Eigen9EigenBaseINS_5BlockINS_6MatrixIdLin1ELin1ELi0ELin1ELin1EEELi1ELin1ELb0EEEE4rowsEv, symObjAddr: 0xDC7C, symBinAddr: 0x10000E688, symSize: 0x28 }
  - { offsetInCU: 0x85A7F, offset: 0x85A7F, size: 0x8, addend: 0x0, symName: __ZNK5Eigen9EigenBaseINS_5BlockINS_6MatrixIdLin1ELin1ELi0ELin1ELin1EEELi1ELin1ELb0EEEE4colsEv, symObjAddr: 0xDCA4, symBinAddr: 0x10000E6B0, symSize: 0x28 }
  - { offsetInCU: 0x85AA5, offset: 0x85AA5, size: 0x8, addend: 0x0, symName: __ZN5Eigen8internal31generic_dense_assignment_kernelINS0_9evaluatorINS_5BlockINS_6MatrixIdLin1ELin1ELi0ELin1ELin1EEELi1ELin1ELb0EEEEENS2_INS_13CwiseBinaryOpINS0_13scalar_sum_opIddEEKNS8_ISA_KNS8_INS0_17scalar_product_opIddEEKNS_9TransposeINS4_IdLin1ELi1ELi0ELin1ELi1EEEEEKS6_EEKNS8_ISC_SG_KNS8_INS0_20scalar_difference_opIddEESH_SH_EEEEEEKNS8_ISC_SP_KNS_14CwiseNullaryOpINS0_18scalar_constant_opIdEEKNS4_IdLi1ELin1ELi1ELi1ELin1EEEEEEEEEEENS0_9assign_opIddEELi0EEC2ERS7_RKS12_RKS14_RS6_, symObjAddr: 0xDCCC, symBinAddr: 0x10000E6D8, symSize: 0x44 }
  - { offsetInCU: 0x85B0B, offset: 0x85B0B, size: 0x8, addend: 0x0, symName: __ZNK5Eigen8internal31generic_dense_assignment_kernelINS0_9evaluatorINS_5BlockINS_6MatrixIdLin1ELin1ELi0ELin1ELin1EEELi1ELin1ELb0EEEEENS2_INS_13CwiseBinaryOpINS0_13scalar_sum_opIddEEKNS8_ISA_KNS8_INS0_17scalar_product_opIddEEKNS_9TransposeINS4_IdLin1ELi1ELi0ELin1ELi1EEEEEKS6_EEKNS8_ISC_SG_KNS8_INS0_20scalar_difference_opIddEESH_SH_EEEEEEKNS8_ISC_SP_KNS_14CwiseNullaryOpINS0_18scalar_constant_opIdEEKNS4_IdLi1ELin1ELi1ELi1ELin1EEEEEEEEEEENS0_9assign_opIddEELi0EE4sizeEv, symObjAddr: 0xDD10, symBinAddr: 0x10000E71C, symSize: 0x28 }
  - { offsetInCU: 0x85B31, offset: 0x85B31, size: 0x8, addend: 0x0, symName: __ZN5Eigen8internal31generic_dense_assignment_kernelINS0_9evaluatorINS_5BlockINS_6MatrixIdLin1ELin1ELi0ELin1ELin1EEELi1ELin1ELb0EEEEENS2_INS_13CwiseBinaryOpINS0_13scalar_sum_opIddEEKNS8_ISA_KNS8_INS0_17scalar_product_opIddEEKNS_9TransposeINS4_IdLin1ELi1ELi0ELin1ELi1EEEEEKS6_EEKNS8_ISC_SG_KNS8_INS0_20scalar_difference_opIddEESH_SH_EEEEEEKNS8_ISC_SP_KNS_14CwiseNullaryOpINS0_18scalar_constant_opIdEEKNS4_IdLi1ELin1ELi1ELi1ELin1EEEEEEEEEEENS0_9assign_opIddEELi0EE11assignCoeffEl, symObjAddr: 0xDD38, symBinAddr: 0x10000E744, symSize: 0x64 }
  - { offsetInCU: 0x85B66, offset: 0x85B66, size: 0x8, addend: 0x0, symName: __ZNK5Eigen9EigenBaseINS_5BlockINS_6MatrixIdLin1ELin1ELi0ELin1ELin1EEELi1ELin1ELb0EEEE4sizeEv, symObjAddr: 0xDD9C, symBinAddr: 0x10000E7A8, symSize: 0x44 }
  - { offsetInCU: 0x85B8C, offset: 0x85B8C, size: 0x8, addend: 0x0, symName: __ZN5Eigen8internal17mapbase_evaluatorINS_5BlockINS_6MatrixIdLin1ELin1ELi0ELin1ELin1EEELi1ELin1ELb0EEENS3_IdLi1ELin1ELi1ELi1ELin1EEEE8coeffRefEl, symObjAddr: 0xDDE0, symBinAddr: 0x10000E7EC, symSize: 0x4C }
  - { offsetInCU: 0x85BC1, offset: 0x85BC1, size: 0x8, addend: 0x0, symName: __ZNK5Eigen8internal16binary_evaluatorINS_13CwiseBinaryOpINS0_13scalar_sum_opIddEEKNS2_IS4_KNS2_INS0_17scalar_product_opIddEEKNS_9TransposeINS_6MatrixIdLin1ELi1ELi0ELin1ELi1EEEEEKNS_5BlockINS8_IdLin1ELin1ELi0ELin1ELin1EEELi1ELin1ELb0EEEEEKNS2_IS6_SB_KNS2_INS0_20scalar_difference_opIddEESF_SF_EEEEEEKNS2_IS6_SN_KNS_14CwiseNullaryOpINS0_18scalar_constant_opIdEEKNS8_IdLi1ELin1ELi1ELi1ELin1EEEEEEEEENS0_10IndexBasedES10_ddE5coeffEl, symObjAddr: 0xDE2C, symBinAddr: 0x10000E838, symSize: 0x70 }
  - { offsetInCU: 0x85BF6, offset: 0x85BF6, size: 0x8, addend: 0x0, symName: __ZNK5Eigen8internal16binary_evaluatorINS_13CwiseBinaryOpINS0_13scalar_sum_opIddEEKNS2_IS4_KNS2_INS0_17scalar_product_opIddEEKNS_9TransposeINS_6MatrixIdLin1ELi1ELi0ELin1ELi1EEEEEKNS_5BlockINS8_IdLin1ELin1ELi0ELin1ELin1EEELi1ELin1ELb0EEEEEKNS2_IS6_SB_KNS2_INS0_20scalar_difference_opIddEESF_SF_EEEEEEKNS2_IS6_SN_KNS_14CwiseNullaryOpINS0_18scalar_constant_opIdEEKNS8_IdLi1ELin1ELi1ELi1ELin1EEEEEEEEENS0_10IndexBasedES10_ddE4Data4funcEv, symObjAddr: 0xDE9C, symBinAddr: 0x10000E8A8, symSize: 0x14 }
  - { offsetInCU: 0x85C1C, offset: 0x85C1C, size: 0x8, addend: 0x0, symName: __ZNK5Eigen8internal16binary_evaluatorINS_13CwiseBinaryOpINS0_13scalar_sum_opIddEEKNS2_INS0_17scalar_product_opIddEEKNS_9TransposeINS_6MatrixIdLin1ELi1ELi0ELin1ELi1EEEEEKNS_5BlockINS8_IdLin1ELin1ELi0ELin1ELin1EEELi1ELin1ELb0EEEEEKNS2_IS6_SB_KNS2_INS0_20scalar_difference_opIddEESF_SF_EEEEEENS0_10IndexBasedESP_ddE5coeffEl, symObjAddr: 0xDEB0, symBinAddr: 0x10000E8BC, symSize: 0x70 }
  - { offsetInCU: 0x85C51, offset: 0x85C51, size: 0x8, addend: 0x0, symName: __ZNK5Eigen8internal16binary_evaluatorINS_13CwiseBinaryOpINS0_17scalar_product_opIddEEKNS2_IS4_KNS_9TransposeINS_6MatrixIdLin1ELi1ELi0ELin1ELi1EEEEEKNS2_INS0_20scalar_difference_opIddEEKNS_5BlockINS6_IdLin1ELin1ELi0ELin1ELin1EEELi1ELin1ELb0EEESF_EEEEKNS_14CwiseNullaryOpINS0_18scalar_constant_opIdEEKNS6_IdLi1ELin1ELi1ELi1ELin1EEEEEEENS0_10IndexBasedESS_ddE5coeffEl, symObjAddr: 0xDF20, symBinAddr: 0x10000E92C, symSize: 0x70 }
  - { offsetInCU: 0x85C86, offset: 0x85C86, size: 0x8, addend: 0x0, symName: __ZNK5Eigen8internal16binary_evaluatorINS_13CwiseBinaryOpINS0_13scalar_sum_opIddEEKNS2_INS0_17scalar_product_opIddEEKNS_9TransposeINS_6MatrixIdLin1ELi1ELi0ELin1ELi1EEEEEKNS_5BlockINS8_IdLin1ELin1ELi0ELin1ELin1EEELi1ELin1ELb0EEEEEKNS2_IS6_SB_KNS2_INS0_20scalar_difference_opIddEESF_SF_EEEEEENS0_10IndexBasedESP_ddE4Data4funcEv, symObjAddr: 0xDF90, symBinAddr: 0x10000E99C, symSize: 0x14 }
  - { offsetInCU: 0x85CAC, offset: 0x85CAC, size: 0x8, addend: 0x0, symName: __ZNK5Eigen8internal16binary_evaluatorINS_13CwiseBinaryOpINS0_17scalar_product_opIddEEKNS_9TransposeINS_6MatrixIdLin1ELi1ELi0ELin1ELi1EEEEEKNS_5BlockINS6_IdLin1ELin1ELi0ELin1ELin1EEELi1ELin1ELb0EEEEENS0_10IndexBasedESF_ddE5coeffEl, symObjAddr: 0xDFA4, symBinAddr: 0x10000E9B0, symSize: 0x64 }
  - { offsetInCU: 0x85CE1, offset: 0x85CE1, size: 0x8, addend: 0x0, symName: __ZNK5Eigen8internal16binary_evaluatorINS_13CwiseBinaryOpINS0_17scalar_product_opIddEEKNS_9TransposeINS_6MatrixIdLin1ELi1ELi0ELin1ELi1EEEEEKNS2_INS0_20scalar_difference_opIddEEKNS_5BlockINS6_IdLin1ELin1ELi0ELin1ELin1EEELi1ELin1ELb0EEESF_EEEENS0_10IndexBasedESJ_ddE5coeffEl, symObjAddr: 0xE008, symBinAddr: 0x10000EA14, symSize: 0x68 }
  - { offsetInCU: 0x85D16, offset: 0x85D16, size: 0x8, addend: 0x0, symName: __ZNK5Eigen8internal16binary_evaluatorINS_13CwiseBinaryOpINS0_17scalar_product_opIddEEKNS_9TransposeINS_6MatrixIdLin1ELi1ELi0ELin1ELi1EEEEEKNS_5BlockINS6_IdLin1ELin1ELi0ELin1ELin1EEELi1ELin1ELb0EEEEENS0_10IndexBasedESF_ddE4Data4funcEv, symObjAddr: 0xE070, symBinAddr: 0x10000EA7C, symSize: 0x14 }
  - { offsetInCU: 0x85D3C, offset: 0x85D3C, size: 0x8, addend: 0x0, symName: __ZNK5Eigen8internal17scalar_product_opIddEclERKdS4_, symObjAddr: 0xE084, symBinAddr: 0x10000EA90, symSize: 0x2C }
  - { offsetInCU: 0x85D7E, offset: 0x85D7E, size: 0x8, addend: 0x0, symName: __ZNK5Eigen8internal15unary_evaluatorINS_9TransposeINS_6MatrixIdLin1ELi1ELi0ELin1ELi1EEEEENS0_10IndexBasedEdE5coeffEl, symObjAddr: 0xE0B0, symBinAddr: 0x10000EABC, symSize: 0x2C }
  - { offsetInCU: 0x85DB3, offset: 0x85DB3, size: 0x8, addend: 0x0, symName: __ZNK5Eigen8internal17mapbase_evaluatorINS_5BlockINS_6MatrixIdLin1ELin1ELi0ELin1ELin1EEELi1ELin1ELb0EEENS3_IdLi1ELin1ELi1ELi1ELin1EEEE5coeffEl, symObjAddr: 0xE0DC, symBinAddr: 0x10000EAE8, symSize: 0x4C }
  - { offsetInCU: 0x85DE8, offset: 0x85DE8, size: 0x8, addend: 0x0, symName: __ZNK5Eigen8internal16binary_evaluatorINS_13CwiseBinaryOpINS0_17scalar_product_opIddEEKNS_9TransposeINS_6MatrixIdLin1ELi1ELi0ELin1ELi1EEEEEKNS2_INS0_20scalar_difference_opIddEEKNS_5BlockINS6_IdLin1ELin1ELi0ELin1ELin1EEELi1ELin1ELb0EEESF_EEEENS0_10IndexBasedESJ_ddE4Data4funcEv, symObjAddr: 0xE128, symBinAddr: 0x10000EB34, symSize: 0x14 }
  - { offsetInCU: 0x85E0E, offset: 0x85E0E, size: 0x8, addend: 0x0, symName: __ZNK5Eigen8internal16binary_evaluatorINS_13CwiseBinaryOpINS0_20scalar_difference_opIddEEKNS_5BlockINS_6MatrixIdLin1ELin1ELi0ELin1ELin1EEELi1ELin1ELb0EEES9_EENS0_10IndexBasedESB_ddE5coeffEl, symObjAddr: 0xE13C, symBinAddr: 0x10000EB48, symSize: 0x64 }
  - { offsetInCU: 0x85E43, offset: 0x85E43, size: 0x8, addend: 0x0, symName: __ZNK5Eigen8internal16binary_evaluatorINS_13CwiseBinaryOpINS0_20scalar_difference_opIddEEKNS_5BlockINS_6MatrixIdLin1ELin1ELi0ELin1ELin1EEELi1ELin1ELb0EEES9_EENS0_10IndexBasedESB_ddE4Data4funcEv, symObjAddr: 0xE1A0, symBinAddr: 0x10000EBAC, symSize: 0x14 }
  - { offsetInCU: 0x85E69, offset: 0x85E69, size: 0x8, addend: 0x0, symName: __ZNK5Eigen8internal20scalar_difference_opIddEclERKdS4_, symObjAddr: 0xE1B4, symBinAddr: 0x10000EBC0, symSize: 0x2C }
  - { offsetInCU: 0x85EAD, offset: 0x85EAD, size: 0x8, addend: 0x0, symName: __ZNK5Eigen8internal16binary_evaluatorINS_13CwiseBinaryOpINS0_17scalar_product_opIddEEKNS2_IS4_KNS_9TransposeINS_6MatrixIdLin1ELi1ELi0ELin1ELi1EEEEEKNS2_INS0_20scalar_difference_opIddEEKNS_5BlockINS6_IdLin1ELin1ELi0ELin1ELin1EEELi1ELin1ELb0EEESF_EEEEKNS_14CwiseNullaryOpINS0_18scalar_constant_opIdEEKNS6_IdLi1ELin1ELi1ELi1ELin1EEEEEEENS0_10IndexBasedESS_ddE4Data4funcEv, symObjAddr: 0xE1E0, symBinAddr: 0x10000EBEC, symSize: 0x14 }
  - { offsetInCU: 0x85EDD, offset: 0x85EDD, size: 0x8, addend: 0x0, symName: __ZNK5Eigen8internal9evaluatorINS_14CwiseNullaryOpINS0_18scalar_constant_opIdEEKNS_6MatrixIdLi1ELin1ELi1ELi1ELin1EEEEEE5coeffIlEEdT_, symObjAddr: 0xE1F4, symBinAddr: 0x10000EC00, symSize: 0x38 }
  - { offsetInCU: 0x85F1B, offset: 0x85F1B, size: 0x8, addend: 0x0, symName: __ZN5Eigen8internal9evaluatorINS_13CwiseBinaryOpINS0_13scalar_sum_opIddEEKNS2_IS4_KNS2_INS0_17scalar_product_opIddEEKNS_9TransposeINS_6MatrixIdLin1ELi1ELi0ELin1ELi1EEEEEKNS_5BlockINS8_IdLin1ELin1ELi0ELin1ELin1EEELi1ELin1ELb0EEEEEKNS2_IS6_SB_KNS2_INS0_20scalar_difference_opIddEESF_SF_EEEEEEKNS2_IS6_SN_KNS_14CwiseNullaryOpINS0_18scalar_constant_opIdEEKNS8_IdLi1ELin1ELi1ELi1ELin1EEEEEEEEEED2Ev, symObjAddr: 0xE22C, symBinAddr: 0x10000EC38, symSize: 0x2C }
  - { offsetInCU: 0x85F48, offset: 0x85F48, size: 0x8, addend: 0x0, symName: __ZN5Eigen8internal16binary_evaluatorINS_13CwiseBinaryOpINS0_13scalar_sum_opIddEEKNS2_IS4_KNS2_INS0_17scalar_product_opIddEEKNS_9TransposeINS_6MatrixIdLin1ELi1ELi0ELin1ELi1EEEEEKNS_5BlockINS8_IdLin1ELin1ELi0ELin1ELin1EEELi1ELin1ELb0EEEEEKNS2_IS6_SB_KNS2_INS0_20scalar_difference_opIddEESF_SF_EEEEEEKNS2_IS6_SN_KNS_14CwiseNullaryOpINS0_18scalar_constant_opIdEEKNS8_IdLi1ELin1ELi1ELi1ELin1EEEEEEEEENS0_10IndexBasedES10_ddED2Ev, symObjAddr: 0xE258, symBinAddr: 0x10000EC64, symSize: 0x34 }
  - { offsetInCU: 0x85F74, offset: 0x85F74, size: 0x8, addend: 0x0, symName: __ZN5Eigen8internal16binary_evaluatorINS_13CwiseBinaryOpINS0_13scalar_sum_opIddEEKNS2_IS4_KNS2_INS0_17scalar_product_opIddEEKNS_9TransposeINS_6MatrixIdLin1ELi1ELi0ELin1ELi1EEEEEKNS_5BlockINS8_IdLin1ELin1ELi0ELin1ELin1EEELi1ELin1ELb0EEEEEKNS2_IS6_SB_KNS2_INS0_20scalar_difference_opIddEESF_SF_EEEEEEKNS2_IS6_SN_KNS_14CwiseNullaryOpINS0_18scalar_constant_opIdEEKNS8_IdLi1ELin1ELi1ELi1ELin1EEEEEEEEENS0_10IndexBasedES10_ddE4DataD1Ev, symObjAddr: 0xE28C, symBinAddr: 0x10000EC98, symSize: 0x2C }
  - { offsetInCU: 0x85FA1, offset: 0x85FA1, size: 0x8, addend: 0x0, symName: __ZN5Eigen8internal16binary_evaluatorINS_13CwiseBinaryOpINS0_13scalar_sum_opIddEEKNS2_IS4_KNS2_INS0_17scalar_product_opIddEEKNS_9TransposeINS_6MatrixIdLin1ELi1ELi0ELin1ELi1EEEEEKNS_5BlockINS8_IdLin1ELin1ELi0ELin1ELin1EEELi1ELin1ELb0EEEEEKNS2_IS6_SB_KNS2_INS0_20scalar_difference_opIddEESF_SF_EEEEEEKNS2_IS6_SN_KNS_14CwiseNullaryOpINS0_18scalar_constant_opIdEEKNS8_IdLi1ELin1ELi1ELi1ELin1EEEEEEEEENS0_10IndexBasedES10_ddE4DataD2Ev, symObjAddr: 0xE2B8, symBinAddr: 0x10000ECC4, symSize: 0x3C }
  - { offsetInCU: 0x85FCE, offset: 0x85FCE, size: 0x8, addend: 0x0, symName: __ZN5Eigen8internal9evaluatorIKNS_13CwiseBinaryOpINS0_17scalar_product_opIddEEKNS2_IS4_KNS_9TransposeINS_6MatrixIdLin1ELi1ELi0ELin1ELi1EEEEEKNS2_INS0_20scalar_difference_opIddEEKNS_5BlockINS6_IdLin1ELin1ELi0ELin1ELin1EEELi1ELin1ELb0EEESF_EEEEKNS_14CwiseNullaryOpINS0_18scalar_constant_opIdEEKNS6_IdLi1ELin1ELi1ELi1ELin1EEEEEEEED1Ev, symObjAddr: 0xE2F4, symBinAddr: 0x10000ED00, symSize: 0x2C }
  - { offsetInCU: 0x85FFA, offset: 0x85FFA, size: 0x8, addend: 0x0, symName: __ZN5Eigen8internal9evaluatorIKNS_13CwiseBinaryOpINS0_17scalar_product_opIddEEKNS2_IS4_KNS_9TransposeINS_6MatrixIdLin1ELi1ELi0ELin1ELi1EEEEEKNS2_INS0_20scalar_difference_opIddEEKNS_5BlockINS6_IdLin1ELin1ELi0ELin1ELin1EEELi1ELin1ELb0EEESF_EEEEKNS_14CwiseNullaryOpINS0_18scalar_constant_opIdEEKNS6_IdLi1ELin1ELi1ELi1ELin1EEEEEEEED2Ev, symObjAddr: 0xE320, symBinAddr: 0x10000ED2C, symSize: 0x2C }
  - { offsetInCU: 0x86026, offset: 0x86026, size: 0x8, addend: 0x0, symName: __ZN5Eigen8internal9evaluatorINS_13CwiseBinaryOpINS0_17scalar_product_opIddEEKNS2_IS4_KNS_9TransposeINS_6MatrixIdLin1ELi1ELi0ELin1ELi1EEEEEKNS2_INS0_20scalar_difference_opIddEEKNS_5BlockINS6_IdLin1ELin1ELi0ELin1ELin1EEELi1ELin1ELb0EEESF_EEEEKNS_14CwiseNullaryOpINS0_18scalar_constant_opIdEEKNS6_IdLi1ELin1ELi1ELi1ELin1EEEEEEEED2Ev, symObjAddr: 0xE34C, symBinAddr: 0x10000ED58, symSize: 0x2C }
  - { offsetInCU: 0x86053, offset: 0x86053, size: 0x8, addend: 0x0, symName: __ZN5Eigen8internal16binary_evaluatorINS_13CwiseBinaryOpINS0_17scalar_product_opIddEEKNS2_IS4_KNS_9TransposeINS_6MatrixIdLin1ELi1ELi0ELin1ELi1EEEEEKNS2_INS0_20scalar_difference_opIddEEKNS_5BlockINS6_IdLin1ELin1ELi0ELin1ELin1EEELi1ELin1ELb0EEESF_EEEEKNS_14CwiseNullaryOpINS0_18scalar_constant_opIdEEKNS6_IdLi1ELin1ELi1ELi1ELin1EEEEEEENS0_10IndexBasedESS_ddED2Ev, symObjAddr: 0xE378, symBinAddr: 0x10000ED84, symSize: 0x34 }
  - { offsetInCU: 0x8607F, offset: 0x8607F, size: 0x8, addend: 0x0, symName: __ZN5Eigen8internal16binary_evaluatorINS_13CwiseBinaryOpINS0_17scalar_product_opIddEEKNS2_IS4_KNS_9TransposeINS_6MatrixIdLin1ELi1ELi0ELin1ELi1EEEEEKNS2_INS0_20scalar_difference_opIddEEKNS_5BlockINS6_IdLin1ELin1ELi0ELin1ELin1EEELi1ELin1ELb0EEESF_EEEEKNS_14CwiseNullaryOpINS0_18scalar_constant_opIdEEKNS6_IdLi1ELin1ELi1ELi1ELin1EEEEEEENS0_10IndexBasedESS_ddE4DataD1Ev, symObjAddr: 0xE3AC, symBinAddr: 0x10000EDB8, symSize: 0x2C }
  - { offsetInCU: 0x860AC, offset: 0x860AC, size: 0x8, addend: 0x0, symName: __ZN5Eigen8internal16binary_evaluatorINS_13CwiseBinaryOpINS0_17scalar_product_opIddEEKNS2_IS4_KNS_9TransposeINS_6MatrixIdLin1ELi1ELi0ELin1ELi1EEEEEKNS2_INS0_20scalar_difference_opIddEEKNS_5BlockINS6_IdLin1ELin1ELi0ELin1ELin1EEELi1ELin1ELb0EEESF_EEEEKNS_14CwiseNullaryOpINS0_18scalar_constant_opIdEEKNS6_IdLi1ELin1ELi1ELi1ELin1EEEEEEENS0_10IndexBasedESS_ddE4DataD2Ev, symObjAddr: 0xE3D8, symBinAddr: 0x10000EDE4, symSize: 0x3C }
  - { offsetInCU: 0x860D9, offset: 0x860D9, size: 0x8, addend: 0x0, symName: __ZN5Eigen8internal9evaluatorIKNS_14CwiseNullaryOpINS0_18scalar_constant_opIdEEKNS_6MatrixIdLi1ELin1ELi1ELi1ELin1EEEEEED1Ev, symObjAddr: 0xE414, symBinAddr: 0x10000EE20, symSize: 0x2C }
  - { offsetInCU: 0x86105, offset: 0x86105, size: 0x8, addend: 0x0, symName: __ZN5Eigen8internal9evaluatorIKNS_14CwiseNullaryOpINS0_18scalar_constant_opIdEEKNS_6MatrixIdLi1ELin1ELi1ELi1ELin1EEEEEED2Ev, symObjAddr: 0xE440, symBinAddr: 0x10000EE4C, symSize: 0x2C }
  - { offsetInCU: 0x86131, offset: 0x86131, size: 0x8, addend: 0x0, symName: __ZN5Eigen8internal9evaluatorINS_14CwiseNullaryOpINS0_18scalar_constant_opIdEEKNS_6MatrixIdLi1ELin1ELi1ELi1ELin1EEEEEED2Ev, symObjAddr: 0xE46C, symBinAddr: 0x10000EE78, symSize: 0x2C }
  - { offsetInCU: 0x8615D, offset: 0x8615D, size: 0x8, addend: 0x0, symName: __ZN5Eigen8internal13add_assign_opIddEC1Ev, symObjAddr: 0xE4D0, symBinAddr: 0x10000EEDC, symSize: 0x2C }
  - { offsetInCU: 0x86187, offset: 0x86187, size: 0x8, addend: 0x0, symName: __ZN5Eigen8internal10AssignmentINS_5BlockINS_6MatrixIdLin1ELin1ELi0ELin1ELin1EEELi1ELin1ELb0EEES5_NS0_13add_assign_opIddEENS0_11Dense2DenseEvE3runERS5_RKS5_RKS7_, symObjAddr: 0xE538, symBinAddr: 0x10000EF44, symSize: 0x40 }
  - { offsetInCU: 0x861F6, offset: 0x861F6, size: 0x8, addend: 0x0, symName: __ZN5Eigen8internal31generic_dense_assignment_kernelINS0_9evaluatorINS_5BlockINS_6MatrixIdLin1ELin1ELi0ELin1ELin1EEELi1ELin1ELb0EEEEES7_NS0_13add_assign_opIddEELi0EEC1ERS7_RKS7_RKS9_RS6_, symObjAddr: 0xE718, symBinAddr: 0x10000F124, symSize: 0x4C }
  - { offsetInCU: 0x86261, offset: 0x86261, size: 0x8, addend: 0x0, symName: __ZN5Eigen8internal21dense_assignment_loopINS0_31generic_dense_assignment_kernelINS0_9evaluatorINS_5BlockINS_6MatrixIdLin1ELin1ELi0ELin1ELin1EEELi1ELin1ELb0EEEEES8_NS0_13add_assign_opIddEELi0EEELi1ELi0EE3runERSB_, symObjAddr: 0xE764, symBinAddr: 0x10000F170, symSize: 0x68 }
  - { offsetInCU: 0x862B1, offset: 0x862B1, size: 0x8, addend: 0x0, symName: __ZN5Eigen8internal31generic_dense_assignment_kernelINS0_9evaluatorINS_5BlockINS_6MatrixIdLin1ELin1ELi0ELin1ELin1EEELi1ELin1ELb0EEEEES7_NS0_13add_assign_opIddEELi0EEC2ERS7_RKS7_RKS9_RS6_, symObjAddr: 0xE7CC, symBinAddr: 0x10000F1D8, symSize: 0x44 }
  - { offsetInCU: 0x86317, offset: 0x86317, size: 0x8, addend: 0x0, symName: __ZNK5Eigen8internal31generic_dense_assignment_kernelINS0_9evaluatorINS_5BlockINS_6MatrixIdLin1ELin1ELi0ELin1ELin1EEELi1ELin1ELb0EEEEES7_NS0_13add_assign_opIddEELi0EE4sizeEv, symObjAddr: 0xE810, symBinAddr: 0x10000F21C, symSize: 0x28 }
  - { offsetInCU: 0x8633D, offset: 0x8633D, size: 0x8, addend: 0x0, symName: __ZN5Eigen8internal31generic_dense_assignment_kernelINS0_9evaluatorINS_5BlockINS_6MatrixIdLin1ELin1ELi0ELin1ELin1EEELi1ELin1ELb0EEEEES7_NS0_13add_assign_opIddEELi0EE11assignCoeffEl, symObjAddr: 0xE838, symBinAddr: 0x10000F244, symSize: 0x60 }
  - { offsetInCU: 0x86372, offset: 0x86372, size: 0x8, addend: 0x0, symName: __ZNK5Eigen8internal13add_assign_opIddE11assignCoeffERdRKd, symObjAddr: 0xE898, symBinAddr: 0x10000F2A4, symSize: 0x30 }
  - { offsetInCU: 0x863B4, offset: 0x863B4, size: 0x8, addend: 0x0, symName: __ZN5Eigen8internal13add_assign_opIddEC2Ev, symObjAddr: 0xE8C8, symBinAddr: 0x10000F2D4, symSize: 0x14 }
  - { offsetInCU: 0x863DE, offset: 0x863DE, size: 0x8, addend: 0x0, symName: __ZN5Eigen6MatrixIiLin1ELi1ELi0ELin1ELi1EED2Ev, symObjAddr: 0xE8DC, symBinAddr: 0x10000F2E8, symSize: 0x2C }
  - { offsetInCU: 0x8640A, offset: 0x8640A, size: 0x8, addend: 0x0, symName: __ZN5Eigen15PlainObjectBaseINS_6MatrixIiLin1ELi1ELi0ELin1ELi1EEEED2Ev, symObjAddr: 0xE908, symBinAddr: 0x10000F314, symSize: 0x2C }
  - { offsetInCU: 0x86440, offset: 0x86440, size: 0x8, addend: 0x0, symName: __ZNKSt3__16__lessIddEclB7v160006ERKdS3_, symObjAddr: 0xE9B4, symBinAddr: 0x10000F3C0, symSize: 0x34 }
  - { offsetInCU: 0x86482, offset: 0x86482, size: 0x8, addend: 0x0, symName: __ZNKSt3__111__wrap_iterIPiE4baseB7v160006Ev, symObjAddr: 0xEA30, symBinAddr: 0x10000F43C, symSize: 0x18 }
  - { offsetInCU: 0x864A8, offset: 0x864A8, size: 0x8, addend: 0x0, symName: __ZN5Eigen8symbolic10SymbolExprINS_8internal17symbolic_last_tagEEC2Ev, symObjAddr: 0xEA48, symBinAddr: 0x10000F454, symSize: 0x14 }
  - { offsetInCU: 0x864D2, offset: 0x864D2, size: 0x8, addend: 0x0, symName: __ZN5Eigen8internal8FixedIntILi1EEC1Ev, symObjAddr: 0xEA5C, symBinAddr: 0x10000F468, symSize: 0x2C }
  - { offsetInCU: 0x864FC, offset: 0x864FC, size: 0x8, addend: 0x0, symName: __ZN5Eigen8internal8FixedIntILi1EEC2Ev, symObjAddr: 0xEA88, symBinAddr: 0x10000F494, symSize: 0x14 }
  - { offsetInCU: 0x86526, offset: 0x86526, size: 0x8, addend: 0x0, symName: __ZNK5Eigen8symbolic8BaseExprINS0_10SymbolExprINS_8internal17symbolic_last_tagEEEE7derivedEv, symObjAddr: 0xEA9C, symBinAddr: 0x10000F4A8, symSize: 0x14 }
  - { offsetInCU: 0x8654C, offset: 0x8654C, size: 0x8, addend: 0x0, symName: __ZN5Eigen8symbolic9ValueExprINS_8internal8FixedIntILi1EEEEC1Ev, symObjAddr: 0xEAB0, symBinAddr: 0x10000F4BC, symSize: 0x2C }
  - { offsetInCU: 0x86576, offset: 0x86576, size: 0x8, addend: 0x0, symName: __ZN5Eigen8symbolic7AddExprINS0_10SymbolExprINS_8internal17symbolic_last_tagEEENS0_9ValueExprINS3_8FixedIntILi1EEEEEEC1ERKS5_RKS9_, symObjAddr: 0xEADC, symBinAddr: 0x10000F4E8, symSize: 0x3C }
  - { offsetInCU: 0x865BC, offset: 0x865BC, size: 0x8, addend: 0x0, symName: __ZN5Eigen8symbolic9ValueExprINS_8internal8FixedIntILi1EEEEC2Ev, symObjAddr: 0xEB18, symBinAddr: 0x10000F524, symSize: 0x14 }
  - { offsetInCU: 0x865E6, offset: 0x865E6, size: 0x8, addend: 0x0, symName: __ZN5Eigen8symbolic7AddExprINS0_10SymbolExprINS_8internal17symbolic_last_tagEEENS0_9ValueExprINS3_8FixedIntILi1EEEEEEC2ERKS5_RKS9_, symObjAddr: 0xEB2C, symBinAddr: 0x10000F538, symSize: 0x1C }
  - { offsetInCU: 0x8662C, offset: 0x8662C, size: 0x8, addend: 0x0, symName: __ZNK5Eigen9DenseBaseINS_6MatrixIdLin1ELi1ELi0ELin1ELi1EEEE8minCoeffILi0EEEdv, symObjAddr: 0xEB48, symBinAddr: 0x10000F554, symSize: 0x40 }
  - { offsetInCU: 0x8665F, offset: 0x8665F, size: 0x8, addend: 0x0, symName: __ZNK5Eigen9DenseBaseINS_6MatrixIdLin1ELi1ELi0ELin1ELi1EEEE5reduxINS_8internal13scalar_min_opIddLi0EEEEEdRKT_, symObjAddr: 0xEB88, symBinAddr: 0x10000F594, symSize: 0x10C }
  - { offsetInCU: 0x866BB, offset: 0x866BB, size: 0x8, addend: 0x0, symName: __ZN5Eigen8internal13scalar_min_opIddLi0EEC1Ev, symObjAddr: 0xEC94, symBinAddr: 0x10000F6A0, symSize: 0x2C }
  - { offsetInCU: 0x866FE, offset: 0x866FE, size: 0x8, addend: 0x0, symName: __ZN5Eigen8internal15redux_evaluatorINS_6MatrixIdLin1ELi1ELi0ELin1ELi1EEEEC1ERKS3_, symObjAddr: 0xECC0, symBinAddr: 0x10000F6CC, symSize: 0x34 }
  - { offsetInCU: 0x8673C, offset: 0x8673C, size: 0x8, addend: 0x0, symName: __ZN5Eigen8internal10redux_implINS0_13scalar_min_opIddLi0EEENS0_15redux_evaluatorINS_6MatrixIdLin1ELi1ELi0ELin1ELi1EEEEELi3ELi0EE3runIS6_EEdRKS7_RKS3_RKT_, symObjAddr: 0xECF4, symBinAddr: 0x10000F700, symSize: 0x340 }
  - { offsetInCU: 0x868B8, offset: 0x868B8, size: 0x8, addend: 0x0, symName: __ZN5Eigen8internal15redux_evaluatorINS_6MatrixIdLin1ELi1ELi0ELin1ELi1EEEED1Ev, symObjAddr: 0xF034, symBinAddr: 0x10000FA40, symSize: 0x2C }
  - { offsetInCU: 0x868E5, offset: 0x868E5, size: 0x8, addend: 0x0, symName: __ZN5Eigen8internal15redux_evaluatorINS_6MatrixIdLin1ELi1ELi0ELin1ELi1EEEEC2ERKS3_, symObjAddr: 0xF060, symBinAddr: 0x10000FA6C, symSize: 0x34 }
  - { offsetInCU: 0x86936, offset: 0x86936, size: 0x8, addend: 0x0, symName: __ZNK5Eigen8internal9evaluatorINS_15PlainObjectBaseINS_6MatrixIdLin1ELi1ELi0ELin1ELi1EEEEEE6packetILi16E19__simd128_float64_tEET0_l, symObjAddr: 0xF0B8, symBinAddr: 0x10000FAC4, symSize: 0x3C }
  - { offsetInCU: 0x869A5, offset: 0x869A5, size: 0x8, addend: 0x0, symName: __ZNK5Eigen8internal13scalar_min_opIddLi0EE8packetOpI19__simd128_float64_tEET_RKS5_S7_, symObjAddr: 0xF0F4, symBinAddr: 0x10000FB00, symSize: 0x30 }
  - { offsetInCU: 0x869F0, offset: 0x869F0, size: 0x8, addend: 0x0, symName: __ZNK5Eigen8internal13scalar_min_opIddLi0EE6preduxI19__simd128_float64_tEEdRKT_, symObjAddr: 0xF124, symBinAddr: 0x10000FB30, symSize: 0x28 }
  - { offsetInCU: 0x86A2D, offset: 0x86A2D, size: 0x8, addend: 0x0, symName: __ZNK5Eigen8internal13scalar_min_opIddLi0EEclERKdS4_, symObjAddr: 0xF14C, symBinAddr: 0x10000FB58, symSize: 0x30 }
  - { offsetInCU: 0x86A6F, offset: 0x86A6F, size: 0x8, addend: 0x0, symName: __ZN5Eigen8internal18first_aligned_implILi16ENS_6MatrixIdLin1ELi1ELi0ELin1ELi1EEELb1EE3runERKS3_, symObjAddr: 0xF1A4, symBinAddr: 0x10000FBB0, symSize: 0x14 }
  - { offsetInCU: 0x86AA5, offset: 0x86AA5, size: 0x8, addend: 0x0, symName: __ZN5Eigen8internal12pminmax_implILi0EE3runI19__simd128_float64_tPFS4_RKS4_S6_EEET_RKS9_SB_T0_, symObjAddr: 0xF214, symBinAddr: 0x10000FC20, symSize: 0x34 }
  - { offsetInCU: 0x86B0F, offset: 0x86B0F, size: 0x8, addend: 0x0, symName: __ZN5Eigen8internal12pminmax_implILi0EE3runIdPFdRKdS5_EEET_RKS8_SA_T0_, symObjAddr: 0xF42C, symBinAddr: 0x10000FE38, symSize: 0x34 }
  - { offsetInCU: 0x86B63, offset: 0x86B63, size: 0x8, addend: 0x0, symName: __ZN5Eigen8internal15redux_evaluatorINS_6MatrixIdLin1ELi1ELi0ELin1ELi1EEEED2Ev, symObjAddr: 0xF520, symBinAddr: 0x10000FF2C, symSize: 0x2C }
  - { offsetInCU: 0x86B90, offset: 0x86B90, size: 0x8, addend: 0x0, symName: __ZN5Eigen8internal13scalar_min_opIddLi0EEC2Ev, symObjAddr: 0xF54C, symBinAddr: 0x10000FF58, symSize: 0x14 }
  - { offsetInCU: 0x86BBA, offset: 0x86BBA, size: 0x8, addend: 0x0, symName: __ZN5Eigen6MatrixIdLin1ELi1ELi0ELin1ELi1EEC2ERKS1_, symObjAddr: 0xF560, symBinAddr: 0x10000FF6C, symSize: 0x34 }
  - { offsetInCU: 0x86BF3, offset: 0x86BF3, size: 0x8, addend: 0x0, symName: __ZN5Eigen15PlainObjectBaseINS_6MatrixIdLin1ELi1ELi0ELin1ELi1EEEEC2ERKS3_, symObjAddr: 0xF594, symBinAddr: 0x10000FFA0, symSize: 0x3C }
  - { offsetInCU: 0x86C2C, offset: 0x86C2C, size: 0x8, addend: 0x0, symName: __ZN5Eigen12DenseStorageIdLin1ELin1ELi1ELi0EEC1ERKS1_, symObjAddr: 0xF5D0, symBinAddr: 0x10000FFDC, symSize: 0x34 }
  - { offsetInCU: 0x86C65, offset: 0x86C65, size: 0x8, addend: 0x0, symName: __ZN5Eigen12DenseStorageIdLin1ELin1ELi1ELi0EEC2ERKS1_, symObjAddr: 0xF604, symBinAddr: 0x100010010, symSize: 0x78 }
  - { offsetInCU: 0x86C9E, offset: 0x86C9E, size: 0x8, addend: 0x0, symName: __ZN5Eigen8internal17smart_copy_helperIdLb1EE3runEPKdS4_Pd, symObjAddr: 0xF6B0, symBinAddr: 0x1000100BC, symSize: 0x60 }
  - { offsetInCU: 0x86CF7, offset: 0x86CF7, size: 0x8, addend: 0x0, symName: __ZN5Eigen9EigenBaseINS_6MatrixIdLin1ELin1ELi0ELin1ELin1EEEE7derivedEv, symObjAddr: 0xF710, symBinAddr: 0x10001011C, symSize: 0x14 }
  - { offsetInCU: 0x86D1D, offset: 0x86D1D, size: 0x8, addend: 0x0, symName: __ZN5Eigen5BlockINS_6MatrixIdLin1ELin1ELi0ELin1ELin1EEELi1ELin1ELb0EEC1ERS2_l, symObjAddr: 0xF724, symBinAddr: 0x100010130, symSize: 0x3C }
  - { offsetInCU: 0x86D63, offset: 0x86D63, size: 0x8, addend: 0x0, symName: __ZN5Eigen5BlockINS_6MatrixIdLin1ELin1ELi0ELin1ELin1EEELi1ELin1ELb0EEC2ERS2_l, symObjAddr: 0xF760, symBinAddr: 0x10001016C, symSize: 0xCC }
  - { offsetInCU: 0x86DA9, offset: 0x86DA9, size: 0x8, addend: 0x0, symName: __ZN5Eigen9BlockImplINS_6MatrixIdLin1ELin1ELi0ELin1ELin1EEELi1ELin1ELb0ENS_5DenseEEC2ERS2_l, symObjAddr: 0xF82C, symBinAddr: 0x100010238, symSize: 0x3C }
  - { offsetInCU: 0x86DEF, offset: 0x86DEF, size: 0x8, addend: 0x0, symName: __ZN5Eigen8internal15BlockImpl_denseINS_6MatrixIdLin1ELin1ELi0ELin1ELin1EEELi1ELin1ELb0ELb1EEC2ERS3_l, symObjAddr: 0xF868, symBinAddr: 0x100010274, symSize: 0xAC }
  - { offsetInCU: 0x86E37, offset: 0x86E37, size: 0x8, addend: 0x0, symName: __ZN5Eigen7MapBaseINS_5BlockINS_6MatrixIdLin1ELin1ELi0ELin1ELin1EEELi1ELin1ELb0EEELi1EEC2EPdll, symObjAddr: 0xF914, symBinAddr: 0x100010320, symSize: 0x44 }
  - { offsetInCU: 0x86E8E, offset: 0x86E8E, size: 0x8, addend: 0x0, symName: __ZN5Eigen8internal15BlockImpl_denseINS_6MatrixIdLin1ELin1ELi0ELin1ELin1EEELi1ELin1ELb0ELb1EE4initEv, symObjAddr: 0xF958, symBinAddr: 0x100010364, symSize: 0x34 }
  - { offsetInCU: 0x86EB4, offset: 0x86EB4, size: 0x8, addend: 0x0, symName: __ZN5Eigen7MapBaseINS_5BlockINS_6MatrixIdLin1ELin1ELi0ELin1ELin1EEELi1ELin1ELb0EEELi0EEC2EPdll, symObjAddr: 0xF98C, symBinAddr: 0x100010398, symSize: 0x130 }
  - { offsetInCU: 0x86F08, offset: 0x86F08, size: 0x8, addend: 0x0, symName: __ZN5Eigen10MatrixBaseINS_5BlockINS_6MatrixIdLin1ELin1ELi0ELin1ELin1EEELi1ELin1ELb0EEEEC2Ev, symObjAddr: 0xFABC, symBinAddr: 0x1000104C8, symSize: 0x2C }
  - { offsetInCU: 0x86F32, offset: 0x86F32, size: 0x8, addend: 0x0, symName: __ZNK5Eigen7MapBaseINS_5BlockINS_6MatrixIdLin1ELin1ELi0ELin1ELin1EEELi1ELin1ELb0EEELi0EE11checkSanityIS4_EEvNS_8internal9enable_ifIXeqsr8internal6traitsIT_EE9AlignmentLi0EEPvE4typeE, symObjAddr: 0xFAE8, symBinAddr: 0x1000104F4, symSize: 0x14 }
  - { offsetInCU: 0x86F6C, offset: 0x86F6C, size: 0x8, addend: 0x0, symName: __ZN5Eigen9DenseBaseINS_5BlockINS_6MatrixIdLin1ELin1ELi0ELin1ELin1EEELi1ELin1ELb0EEEEC2Ev, symObjAddr: 0xFAFC, symBinAddr: 0x100010508, symSize: 0x14 }
  - { offsetInCU: 0x86F96, offset: 0x86F96, size: 0x8, addend: 0x0, symName: __ZNSt3__16vectorIiNS_9allocatorIiEEED2B7v160006Ev, symObjAddr: 0xFB10, symBinAddr: 0x10001051C, symSize: 0x44 }
  - { offsetInCU: 0x86FC0, offset: 0x86FC0, size: 0x8, addend: 0x0, symName: __ZNSt3__16vectorIiNS_9allocatorIiEEE16__destroy_vectorC1ERS3_, symObjAddr: 0xFB54, symBinAddr: 0x100010560, symSize: 0x34 }
  - { offsetInCU: 0x86FF9, offset: 0x86FF9, size: 0x8, addend: 0x0, symName: __ZNSt3__16vectorIiNS_9allocatorIiEEE16__destroy_vectorclB7v160006Ev, symObjAddr: 0xFB88, symBinAddr: 0x100010594, symSize: 0x9C }
  - { offsetInCU: 0x8701F, offset: 0x8701F, size: 0x8, addend: 0x0, symName: __ZNSt3__16vectorIiNS_9allocatorIiEEE16__destroy_vectorC2ERS3_, symObjAddr: 0xFC24, symBinAddr: 0x100010630, symSize: 0x20 }
  - { offsetInCU: 0x87058, offset: 0x87058, size: 0x8, addend: 0x0, symName: __ZNKSt3__16vectorIiNS_9allocatorIiEEE17__annotate_deleteB7v160006Ev, symObjAddr: 0xFC44, symBinAddr: 0x100010650, symSize: 0xB8 }
  - { offsetInCU: 0x8707E, offset: 0x8707E, size: 0x8, addend: 0x0, symName: __ZNSt3__16vectorIiNS_9allocatorIiEEE7__clearB7v160006Ev, symObjAddr: 0xFD0C, symBinAddr: 0x100010718, symSize: 0x28 }
  - { offsetInCU: 0x870A4, offset: 0x870A4, size: 0x8, addend: 0x0, symName: __ZNSt3__116allocator_traitsINS_9allocatorIiEEE10deallocateB7v160006ERS2_Pim, symObjAddr: 0xFD34, symBinAddr: 0x100010740, symSize: 0x34 }
  - { offsetInCU: 0x870E6, offset: 0x870E6, size: 0x8, addend: 0x0, symName: __ZNSt3__16vectorIiNS_9allocatorIiEEE7__allocB7v160006Ev, symObjAddr: 0xFD68, symBinAddr: 0x100010774, symSize: 0x28 }
  - { offsetInCU: 0x8710C, offset: 0x8710C, size: 0x8, addend: 0x0, symName: __ZNKSt3__16vectorIiNS_9allocatorIiEEE8capacityB7v160006Ev, symObjAddr: 0xFD90, symBinAddr: 0x10001079C, symSize: 0x40 }
  - { offsetInCU: 0x87132, offset: 0x87132, size: 0x8, addend: 0x0, symName: __ZNKSt3__16vectorIiNS_9allocatorIiEEE31__annotate_contiguous_containerB7v160006EPKvS5_S5_S5_, symObjAddr: 0xFDD0, symBinAddr: 0x1000107DC, symSize: 0x20 }
  - { offsetInCU: 0x87184, offset: 0x87184, size: 0x8, addend: 0x0, symName: __ZNKSt3__16vectorIiNS_9allocatorIiEEE4dataB7v160006Ev, symObjAddr: 0xFDF0, symBinAddr: 0x1000107FC, symSize: 0x28 }
  - { offsetInCU: 0x871AA, offset: 0x871AA, size: 0x8, addend: 0x0, symName: __ZNSt3__16vectorIiNS_9allocatorIiEEE22__base_destruct_at_endB7v160006EPi, symObjAddr: 0xFE18, symBinAddr: 0x100010824, symSize: 0x8C }
  - { offsetInCU: 0x871EE, offset: 0x871EE, size: 0x8, addend: 0x0, symName: __ZNSt3__116allocator_traitsINS_9allocatorIiEEE7destroyB7v160006IivEEvRS2_PT_, symObjAddr: 0xFEA4, symBinAddr: 0x1000108B0, symSize: 0x2C }
  - { offsetInCU: 0x8722B, offset: 0x8722B, size: 0x8, addend: 0x0, symName: __ZNSt3__19allocatorIiE7destroyB7v160006EPi, symObjAddr: 0xFED0, symBinAddr: 0x1000108DC, symSize: 0x14 }
  - { offsetInCU: 0x8725F, offset: 0x8725F, size: 0x8, addend: 0x0, symName: __ZNSt3__19allocatorIiE10deallocateB7v160006EPim, symObjAddr: 0xFEE4, symBinAddr: 0x1000108F0, symSize: 0x40 }
  - { offsetInCU: 0x872A1, offset: 0x872A1, size: 0x8, addend: 0x0, symName: __ZNSt3__117__compressed_pairIPiNS_9allocatorIiEEE6secondB7v160006Ev, symObjAddr: 0xFFA0, symBinAddr: 0x1000109AC, symSize: 0x24 }
  - { offsetInCU: 0x872C7, offset: 0x872C7, size: 0x8, addend: 0x0, symName: __ZNSt3__122__compressed_pair_elemINS_9allocatorIiEELi1ELb1EE5__getB7v160006Ev, symObjAddr: 0xFFC4, symBinAddr: 0x1000109D0, symSize: 0x14 }
  - { offsetInCU: 0x872ED, offset: 0x872ED, size: 0x8, addend: 0x0, symName: __ZNKSt3__16vectorIiNS_9allocatorIiEEE9__end_capB7v160006Ev, symObjAddr: 0xFFD8, symBinAddr: 0x1000109E4, symSize: 0x28 }
  - { offsetInCU: 0x87313, offset: 0x87313, size: 0x8, addend: 0x0, symName: __ZNKSt3__117__compressed_pairIPiNS_9allocatorIiEEE5firstB7v160006Ev, symObjAddr: 0x10000, symBinAddr: 0x100010A0C, symSize: 0x24 }
  - { offsetInCU: 0x87339, offset: 0x87339, size: 0x8, addend: 0x0, symName: __ZNKSt3__122__compressed_pair_elemIPiLi0ELb0EE5__getB7v160006Ev, symObjAddr: 0x10024, symBinAddr: 0x100010A30, symSize: 0x14 }
  - { offsetInCU: 0x8735F, offset: 0x8735F, size: 0x8, addend: 0x0, symName: __ZNSt3__16vectorIdNS_9allocatorIdEEED2B7v160006Ev, symObjAddr: 0x10038, symBinAddr: 0x100010A44, symSize: 0x44 }
  - { offsetInCU: 0x87389, offset: 0x87389, size: 0x8, addend: 0x0, symName: __ZNSt3__16vectorIdNS_9allocatorIdEEE16__destroy_vectorC1ERS3_, symObjAddr: 0x1007C, symBinAddr: 0x100010A88, symSize: 0x34 }
  - { offsetInCU: 0x873C2, offset: 0x873C2, size: 0x8, addend: 0x0, symName: __ZNSt3__16vectorIdNS_9allocatorIdEEE16__destroy_vectorclB7v160006Ev, symObjAddr: 0x100B0, symBinAddr: 0x100010ABC, symSize: 0x9C }
  - { offsetInCU: 0x873E8, offset: 0x873E8, size: 0x8, addend: 0x0, symName: __ZNSt3__16vectorIdNS_9allocatorIdEEE16__destroy_vectorC2ERS3_, symObjAddr: 0x1014C, symBinAddr: 0x100010B58, symSize: 0x20 }
  - { offsetInCU: 0x87421, offset: 0x87421, size: 0x8, addend: 0x0, symName: __ZNKSt3__16vectorIdNS_9allocatorIdEEE17__annotate_deleteB7v160006Ev, symObjAddr: 0x1016C, symBinAddr: 0x100010B78, symSize: 0xB8 }
  - { offsetInCU: 0x87447, offset: 0x87447, size: 0x8, addend: 0x0, symName: __ZNSt3__16vectorIdNS_9allocatorIdEEE7__clearB7v160006Ev, symObjAddr: 0x10234, symBinAddr: 0x100010C40, symSize: 0x28 }
  - { offsetInCU: 0x8746D, offset: 0x8746D, size: 0x8, addend: 0x0, symName: __ZNSt3__116allocator_traitsINS_9allocatorIdEEE10deallocateB7v160006ERS2_Pdm, symObjAddr: 0x1025C, symBinAddr: 0x100010C68, symSize: 0x34 }
  - { offsetInCU: 0x874AF, offset: 0x874AF, size: 0x8, addend: 0x0, symName: __ZNSt3__16vectorIdNS_9allocatorIdEEE7__allocB7v160006Ev, symObjAddr: 0x10290, symBinAddr: 0x100010C9C, symSize: 0x28 }
  - { offsetInCU: 0x874D5, offset: 0x874D5, size: 0x8, addend: 0x0, symName: __ZNKSt3__16vectorIdNS_9allocatorIdEEE8capacityB7v160006Ev, symObjAddr: 0x102B8, symBinAddr: 0x100010CC4, symSize: 0x40 }
  - { offsetInCU: 0x874FB, offset: 0x874FB, size: 0x8, addend: 0x0, symName: __ZNKSt3__16vectorIdNS_9allocatorIdEEE31__annotate_contiguous_containerB7v160006EPKvS5_S5_S5_, symObjAddr: 0x102F8, symBinAddr: 0x100010D04, symSize: 0x20 }
  - { offsetInCU: 0x8754D, offset: 0x8754D, size: 0x8, addend: 0x0, symName: __ZNKSt3__16vectorIdNS_9allocatorIdEEE4dataB7v160006Ev, symObjAddr: 0x10318, symBinAddr: 0x100010D24, symSize: 0x28 }
  - { offsetInCU: 0x87573, offset: 0x87573, size: 0x8, addend: 0x0, symName: __ZNKSt3__16vectorIdNS_9allocatorIdEEE4sizeB7v160006Ev, symObjAddr: 0x10340, symBinAddr: 0x100010D4C, symSize: 0x28 }
  - { offsetInCU: 0x87599, offset: 0x87599, size: 0x8, addend: 0x0, symName: __ZNSt3__16vectorIdNS_9allocatorIdEEE22__base_destruct_at_endB7v160006EPd, symObjAddr: 0x1037C, symBinAddr: 0x100010D88, symSize: 0x8C }
  - { offsetInCU: 0x875DD, offset: 0x875DD, size: 0x8, addend: 0x0, symName: __ZNSt3__116allocator_traitsINS_9allocatorIdEEE7destroyB7v160006IdvEEvRS2_PT_, symObjAddr: 0x10408, symBinAddr: 0x100010E14, symSize: 0x2C }
  - { offsetInCU: 0x8761A, offset: 0x8761A, size: 0x8, addend: 0x0, symName: __ZNSt3__19allocatorIdE7destroyB7v160006EPd, symObjAddr: 0x10434, symBinAddr: 0x100010E40, symSize: 0x14 }
  - { offsetInCU: 0x8764E, offset: 0x8764E, size: 0x8, addend: 0x0, symName: __ZNSt3__19allocatorIdE10deallocateB7v160006EPdm, symObjAddr: 0x10448, symBinAddr: 0x100010E54, symSize: 0x40 }
  - { offsetInCU: 0x87690, offset: 0x87690, size: 0x8, addend: 0x0, symName: __ZNSt3__117__compressed_pairIPdNS_9allocatorIdEEE6secondB7v160006Ev, symObjAddr: 0x10488, symBinAddr: 0x100010E94, symSize: 0x24 }
  - { offsetInCU: 0x876B6, offset: 0x876B6, size: 0x8, addend: 0x0, symName: __ZNSt3__122__compressed_pair_elemINS_9allocatorIdEELi1ELb1EE5__getB7v160006Ev, symObjAddr: 0x104AC, symBinAddr: 0x100010EB8, symSize: 0x14 }
  - { offsetInCU: 0x876DC, offset: 0x876DC, size: 0x8, addend: 0x0, symName: __ZNKSt3__16vectorIdNS_9allocatorIdEEE9__end_capB7v160006Ev, symObjAddr: 0x104C0, symBinAddr: 0x100010ECC, symSize: 0x28 }
  - { offsetInCU: 0x87702, offset: 0x87702, size: 0x8, addend: 0x0, symName: __ZNKSt3__117__compressed_pairIPdNS_9allocatorIdEEE5firstB7v160006Ev, symObjAddr: 0x104E8, symBinAddr: 0x100010EF4, symSize: 0x24 }
  - { offsetInCU: 0x87728, offset: 0x87728, size: 0x8, addend: 0x0, symName: __ZNKSt3__122__compressed_pair_elemIPdLi0ELb0EE5__getB7v160006Ev, symObjAddr: 0x1050C, symBinAddr: 0x100010F18, symSize: 0x14 }
  - { offsetInCU: 0x8774E, offset: 0x8774E, size: 0x8, addend: 0x0, symName: __ZNSt3__16vectorIiNS_9allocatorIiEEEC2EmRKi, symObjAddr: 0x10520, symBinAddr: 0x100010F2C, symSize: 0xE8 }
  - { offsetInCU: 0x877B3, offset: 0x877B3, size: 0x8, addend: 0x0, symName: __ZNSt3__117__compressed_pairIPiNS_9allocatorIiEEEC1B7v160006IDnNS_18__default_init_tagEEEOT_OT0_, symObjAddr: 0x10608, symBinAddr: 0x100011014, symSize: 0x3C }
  - { offsetInCU: 0x8780B, offset: 0x8780B, size: 0x8, addend: 0x0, symName: __ZNSt3__16vectorIiNS_9allocatorIiEEE11__vallocateB7v160006Em, symObjAddr: 0x10694, symBinAddr: 0x1000110A0, symSize: 0xAC }
  - { offsetInCU: 0x8784F, offset: 0x8784F, size: 0x8, addend: 0x0, symName: __ZNSt3__16vectorIiNS_9allocatorIiEEE18__construct_at_endEmRKi, symObjAddr: 0x10740, symBinAddr: 0x10001114C, symSize: 0xD0 }
  - { offsetInCU: 0x878D0, offset: 0x878D0, size: 0x8, addend: 0x0, symName: __ZNSt3__128__exception_guard_exceptionsINS_6vectorIiNS_9allocatorIiEEE16__destroy_vectorEE10__completeB7v160006Ev, symObjAddr: 0x10810, symBinAddr: 0x10001121C, symSize: 0x1C }
  - { offsetInCU: 0x878F6, offset: 0x878F6, size: 0x8, addend: 0x0, symName: __ZNSt3__128__exception_guard_exceptionsINS_6vectorIiNS_9allocatorIiEEE16__destroy_vectorEED1B7v160006Ev, symObjAddr: 0x1082C, symBinAddr: 0x100011238, symSize: 0x2C }
  - { offsetInCU: 0x87920, offset: 0x87920, size: 0x8, addend: 0x0, symName: __ZNSt3__117__compressed_pairIPiNS_9allocatorIiEEEC2B7v160006IDnNS_18__default_init_tagEEEOT_OT0_, symObjAddr: 0x10858, symBinAddr: 0x100011264, symSize: 0x40 }
  - { offsetInCU: 0x87978, offset: 0x87978, size: 0x8, addend: 0x0, symName: __ZNSt3__122__compressed_pair_elemIPiLi0ELb0EEC2B7v160006IDnvEEOT_, symObjAddr: 0x10898, symBinAddr: 0x1000112A4, symSize: 0x1C }
  - { offsetInCU: 0x879BA, offset: 0x879BA, size: 0x8, addend: 0x0, symName: __ZNSt3__122__compressed_pair_elemINS_9allocatorIiEELi1ELb1EEC2B7v160006ENS_18__default_init_tagE, symObjAddr: 0x108B4, symBinAddr: 0x1000112C0, symSize: 0x2C }
  - { offsetInCU: 0x879EF, offset: 0x879EF, size: 0x8, addend: 0x0, symName: __ZNSt3__19allocatorIiEC2B7v160006Ev, symObjAddr: 0x108E0, symBinAddr: 0x1000112EC, symSize: 0x2C }
  - { offsetInCU: 0x87A19, offset: 0x87A19, size: 0x8, addend: 0x0, symName: __ZNSt3__116__non_trivial_ifILb1ENS_9allocatorIiEEEC2B7v160006Ev, symObjAddr: 0x1090C, symBinAddr: 0x100011318, symSize: 0x14 }
  - { offsetInCU: 0x87A43, offset: 0x87A43, size: 0x8, addend: 0x0, symName: __ZNSt3__128__exception_guard_exceptionsINS_6vectorIiNS_9allocatorIiEEE16__destroy_vectorEEC1B7v160006ES5_, symObjAddr: 0x10920, symBinAddr: 0x10001132C, symSize: 0x34 }
  - { offsetInCU: 0x87A7B, offset: 0x87A7B, size: 0x8, addend: 0x0, symName: __ZNSt3__128__exception_guard_exceptionsINS_6vectorIiNS_9allocatorIiEEE16__destroy_vectorEEC2B7v160006ES5_, symObjAddr: 0x10954, symBinAddr: 0x100011360, symSize: 0x24 }
  - { offsetInCU: 0x87AB3, offset: 0x87AB3, size: 0x8, addend: 0x0, symName: __ZNKSt3__16vectorIiNS_9allocatorIiEEE8max_sizeEv, symObjAddr: 0x10978, symBinAddr: 0x100011384, symSize: 0x60 }
  - { offsetInCU: 0x87ADB, offset: 0x87ADB, size: 0x8, addend: 0x0, symName: __ZNKSt3__16vectorIiNS_9allocatorIiEEE20__throw_length_errorB7v160006Ev, symObjAddr: 0x109D8, symBinAddr: 0x1000113E4, symSize: 0x1C }
  - { offsetInCU: 0x87B01, offset: 0x87B01, size: 0x8, addend: 0x0, symName: __ZNSt3__16vectorIiNS_9allocatorIiEEE9__end_capB7v160006Ev, symObjAddr: 0x10A34, symBinAddr: 0x100011440, symSize: 0x28 }
  - { offsetInCU: 0x87B27, offset: 0x87B27, size: 0x8, addend: 0x0, symName: __ZNKSt3__16vectorIiNS_9allocatorIiEEE14__annotate_newB7v160006Em, symObjAddr: 0x10A5C, symBinAddr: 0x100011468, symSize: 0xAC }
  - { offsetInCU: 0x87B66, offset: 0x87B66, size: 0x8, addend: 0x0, symName: __ZNSt3__116allocator_traitsINS_9allocatorIiEEE8max_sizeB7v160006IS2_vEEmRKS2_, symObjAddr: 0x10B34, symBinAddr: 0x100011540, symSize: 0x24 }
  - { offsetInCU: 0x87B94, offset: 0x87B94, size: 0x8, addend: 0x0, symName: __ZNKSt3__16vectorIiNS_9allocatorIiEEE7__allocB7v160006Ev, symObjAddr: 0x10B58, symBinAddr: 0x100011564, symSize: 0x28 }
  - { offsetInCU: 0x87BBA, offset: 0x87BBA, size: 0x8, addend: 0x0, symName: __ZNSt3__114numeric_limitsIlE3maxB7v160006Ev, symObjAddr: 0x10B80, symBinAddr: 0x10001158C, symSize: 0x14 }
  - { offsetInCU: 0x87BE2, offset: 0x87BE2, size: 0x8, addend: 0x0, symName: __ZNKSt3__16__lessImmEclB7v160006ERKmS3_, symObjAddr: 0x10BE8, symBinAddr: 0x1000115F4, symSize: 0x34 }
  - { offsetInCU: 0x87C24, offset: 0x87C24, size: 0x8, addend: 0x0, symName: __ZNKSt3__19allocatorIiE8max_sizeB7v160006Ev, symObjAddr: 0x10C1C, symBinAddr: 0x100011628, symSize: 0x14 }
  - { offsetInCU: 0x87C4A, offset: 0x87C4A, size: 0x8, addend: 0x0, symName: __ZNKSt3__117__compressed_pairIPiNS_9allocatorIiEEE6secondB7v160006Ev, symObjAddr: 0x10C30, symBinAddr: 0x10001163C, symSize: 0x24 }
  - { offsetInCU: 0x87C70, offset: 0x87C70, size: 0x8, addend: 0x0, symName: __ZNKSt3__122__compressed_pair_elemINS_9allocatorIiEELi1ELb1EE5__getB7v160006Ev, symObjAddr: 0x10C54, symBinAddr: 0x100011660, symSize: 0x14 }
  - { offsetInCU: 0x87C96, offset: 0x87C96, size: 0x8, addend: 0x0, symName: __ZNSt3__123__libcpp_numeric_limitsIlLb1EE3maxB7v160006Ev, symObjAddr: 0x10C68, symBinAddr: 0x100011674, symSize: 0x8 }
  - { offsetInCU: 0x87CAA, offset: 0x87CAA, size: 0x8, addend: 0x0, symName: __ZNSt12length_errorC1B7v160006EPKc, symObjAddr: 0x10CD4, symBinAddr: 0x1000116E0, symSize: 0x34 }
  - { offsetInCU: 0x87CE2, offset: 0x87CE2, size: 0x8, addend: 0x0, symName: __ZNSt12length_errorC2B7v160006EPKc, symObjAddr: 0x10D08, symBinAddr: 0x100011714, symSize: 0x4C }
  - { offsetInCU: 0x87D1A, offset: 0x87D1A, size: 0x8, addend: 0x0, symName: __ZNSt3__19allocatorIiE8allocateB7v160006Em, symObjAddr: 0x10D54, symBinAddr: 0x100011760, symSize: 0x58 }
  - { offsetInCU: 0x87D4E, offset: 0x87D4E, size: 0x8, addend: 0x0, symName: __ZNSt3__117__compressed_pairIPiNS_9allocatorIiEEE5firstB7v160006Ev, symObjAddr: 0x10E2C, symBinAddr: 0x100011838, symSize: 0x24 }
  - { offsetInCU: 0x87D74, offset: 0x87D74, size: 0x8, addend: 0x0, symName: __ZNSt3__122__compressed_pair_elemIPiLi0ELb0EE5__getB7v160006Ev, symObjAddr: 0x10E50, symBinAddr: 0x10001185C, symSize: 0x14 }
  - { offsetInCU: 0x87DB3, offset: 0x87DB3, size: 0x8, addend: 0x0, symName: __ZNSt3__16vectorIiNS_9allocatorIiEEE21_ConstructTransactionC1B7v160006ERS3_m, symObjAddr: 0x10E64, symBinAddr: 0x100011870, symSize: 0x3C }
  - { offsetInCU: 0x87DFB, offset: 0x87DFB, size: 0x8, addend: 0x0, symName: __ZNSt3__116allocator_traitsINS_9allocatorIiEEE9constructB7v160006IiJRKiEvEEvRS2_PT_DpOT0_, symObjAddr: 0x10EA0, symBinAddr: 0x1000118AC, symSize: 0x34 }
  - { offsetInCU: 0x87E52, offset: 0x87E52, size: 0x8, addend: 0x0, symName: __ZNSt3__16vectorIiNS_9allocatorIiEEE21_ConstructTransactionD1B7v160006Ev, symObjAddr: 0x10ED4, symBinAddr: 0x1000118E0, symSize: 0x2C }
  - { offsetInCU: 0x87E7C, offset: 0x87E7C, size: 0x8, addend: 0x0, symName: __ZNSt3__16vectorIiNS_9allocatorIiEEE21_ConstructTransactionC2B7v160006ERS3_m, symObjAddr: 0x10F00, symBinAddr: 0x10001190C, symSize: 0x44 }
  - { offsetInCU: 0x87EC4, offset: 0x87EC4, size: 0x8, addend: 0x0, symName: __ZNSt3__19allocatorIiE9constructB7v160006IiJRKiEEEvPT_DpOT0_, symObjAddr: 0x10F44, symBinAddr: 0x100011950, symSize: 0x28 }
  - { offsetInCU: 0x87F1A, offset: 0x87F1A, size: 0x8, addend: 0x0, symName: __ZNSt3__16vectorIiNS_9allocatorIiEEE21_ConstructTransactionD2B7v160006Ev, symObjAddr: 0x10F6C, symBinAddr: 0x100011978, symSize: 0x20 }
  - { offsetInCU: 0x87F44, offset: 0x87F44, size: 0x8, addend: 0x0, symName: __ZNSt3__128__exception_guard_exceptionsINS_6vectorIiNS_9allocatorIiEEE16__destroy_vectorEED2B7v160006Ev, symObjAddr: 0x10F8C, symBinAddr: 0x100011998, symSize: 0x50 }
  - { offsetInCU: 0x87F6E, offset: 0x87F6E, size: 0x8, addend: 0x0, symName: __ZNSt3__16vectorIiNS_9allocatorIiEEE11__make_iterB7v160006EPi, symObjAddr: 0x10FDC, symBinAddr: 0x1000119E8, symSize: 0x34 }
  - { offsetInCU: 0x87FA3, offset: 0x87FA3, size: 0x8, addend: 0x0, symName: __ZNSt3__111__wrap_iterIPiEC1B7v160006EPKvS1_, symObjAddr: 0x11010, symBinAddr: 0x100011A1C, symSize: 0x3C }
  - { offsetInCU: 0x87FE9, offset: 0x87FE9, size: 0x8, addend: 0x0, symName: __ZNSt3__111__wrap_iterIPiEC2B7v160006EPKvS1_, symObjAddr: 0x1104C, symBinAddr: 0x100011A58, symSize: 0x24 }
  - { offsetInCU: 0x8802F, offset: 0x8802F, size: 0x8, addend: 0x0, symName: __ZN5Eigen9DenseBaseINS_6MatrixIdLin1ELin1ELi0ELin1ELin1EEEE11NullaryExprINS_8internal16scalar_random_opIdEEEEKNS_14CwiseNullaryOpIT_S2_EEllRKS9_, symObjAddr: 0x11070, symBinAddr: 0x100011A7C, symSize: 0x48 }
  - { offsetInCU: 0x8807C, offset: 0x8807C, size: 0x8, addend: 0x0, symName: __ZN5Eigen14CwiseNullaryOpINS_8internal16scalar_random_opIdEENS_6MatrixIdLin1ELin1ELi0ELin1ELin1EEEEC1EllRKS3_, symObjAddr: 0x110B8, symBinAddr: 0x100011AC4, symSize: 0x44 }
  - { offsetInCU: 0x880D0, offset: 0x880D0, size: 0x8, addend: 0x0, symName: __ZN5Eigen14CwiseNullaryOpINS_8internal16scalar_random_opIdEENS_6MatrixIdLin1ELin1ELi0ELin1ELin1EEEEC2EllRKS3_, symObjAddr: 0x110FC, symBinAddr: 0x100011B08, symSize: 0xDC }
  - { offsetInCU: 0x88124, offset: 0x88124, size: 0x8, addend: 0x0, symName: __ZN5Eigen10MatrixBaseINS_14CwiseNullaryOpINS_8internal16scalar_random_opIdEENS_6MatrixIdLin1ELin1ELi0ELin1ELin1EEEEEEC2Ev, symObjAddr: 0x111D8, symBinAddr: 0x100011BE4, symSize: 0x2C }
  - { offsetInCU: 0x8814E, offset: 0x8814E, size: 0x8, addend: 0x0, symName: __ZN5Eigen9DenseBaseINS_14CwiseNullaryOpINS_8internal16scalar_random_opIdEENS_6MatrixIdLin1ELin1ELi0ELin1ELin1EEEEEEC2Ev, symObjAddr: 0x11204, symBinAddr: 0x100011C10, symSize: 0x14 }
  - { offsetInCU: 0x88178, offset: 0x88178, size: 0x8, addend: 0x0, symName: __ZNK5Eigen9EigenBaseINS_14CwiseNullaryOpINS_8internal16scalar_random_opIdEENS_6MatrixIdLin1ELin1ELi0ELin1ELin1EEEEEE7derivedEv, symObjAddr: 0x11218, symBinAddr: 0x100011C24, symSize: 0x14 }
  - { offsetInCU: 0x8819E, offset: 0x8819E, size: 0x8, addend: 0x0, symName: __ZN5Eigen12ArrayWrapperIKNS_14CwiseNullaryOpINS_8internal16scalar_random_opIdEENS_6MatrixIdLin1ELin1ELi0ELin1ELin1EEEEEEC1ERS8_, symObjAddr: 0x1122C, symBinAddr: 0x100011C38, symSize: 0x34 }
  - { offsetInCU: 0x881D6, offset: 0x881D6, size: 0x8, addend: 0x0, symName: __ZN5Eigen12ArrayWrapperIKNS_14CwiseNullaryOpINS_8internal16scalar_random_opIdEENS_6MatrixIdLin1ELin1ELi0ELin1ELin1EEEEEEC2ERS8_, symObjAddr: 0x11260, symBinAddr: 0x100011C6C, symSize: 0x3C }
  - { offsetInCU: 0x8820E, offset: 0x8820E, size: 0x8, addend: 0x0, symName: __ZN5Eigen9ArrayBaseINS_12ArrayWrapperIKNS_14CwiseNullaryOpINS_8internal16scalar_random_opIdEENS_6MatrixIdLin1ELin1ELi0ELin1ELin1EEEEEEEEC2Ev, symObjAddr: 0x1129C, symBinAddr: 0x100011CA8, symSize: 0x2C }
  - { offsetInCU: 0x88238, offset: 0x88238, size: 0x8, addend: 0x0, symName: __ZN5Eigen14CwiseNullaryOpINS_8internal16scalar_random_opIdEENS_6MatrixIdLin1ELin1ELi0ELin1ELin1EEEEC1ERKS6_, symObjAddr: 0x112C8, symBinAddr: 0x100011CD4, symSize: 0x34 }
  - { offsetInCU: 0x8826D, offset: 0x8826D, size: 0x8, addend: 0x0, symName: __ZN5Eigen9DenseBaseINS_12ArrayWrapperIKNS_14CwiseNullaryOpINS_8internal16scalar_random_opIdEENS_6MatrixIdLin1ELin1ELi0ELin1ELin1EEEEEEEEC2Ev, symObjAddr: 0x112FC, symBinAddr: 0x100011D08, symSize: 0x14 }
  - { offsetInCU: 0x88297, offset: 0x88297, size: 0x8, addend: 0x0, symName: __ZN5Eigen14CwiseNullaryOpINS_8internal16scalar_random_opIdEENS_6MatrixIdLin1ELin1ELi0ELin1ELin1EEEEC2ERKS6_, symObjAddr: 0x11310, symBinAddr: 0x100011D1C, symSize: 0x48 }
  - { offsetInCU: 0x882CC, offset: 0x882CC, size: 0x8, addend: 0x0, symName: __ZNK5Eigen9EigenBaseINS_12ArrayWrapperIKNS_14CwiseNullaryOpINS_8internal16scalar_random_opIdEENS_6MatrixIdLin1ELin1ELi0ELin1ELin1EEEEEEEE7derivedEv, symObjAddr: 0x11358, symBinAddr: 0x100011D64, symSize: 0x14 }
  - { offsetInCU: 0x882F2, offset: 0x882F2, size: 0x8, addend: 0x0, symName: __ZNK5Eigen12ArrayWrapperIKNS_14CwiseNullaryOpINS_8internal16scalar_random_opIdEENS_6MatrixIdLin1ELin1ELi0ELin1ELin1EEEEEE4rowsEv, symObjAddr: 0x1136C, symBinAddr: 0x100011D78, symSize: 0x34 }
  - { offsetInCU: 0x88318, offset: 0x88318, size: 0x8, addend: 0x0, symName: __ZNK5Eigen12ArrayWrapperIKNS_14CwiseNullaryOpINS_8internal16scalar_random_opIdEENS_6MatrixIdLin1ELin1ELi0ELin1ELin1EEEEEE4colsEv, symObjAddr: 0x113A0, symBinAddr: 0x100011DAC, symSize: 0x34 }
  - { offsetInCU: 0x8833E, offset: 0x8833E, size: 0x8, addend: 0x0, symName: __ZN5Eigen14CwiseNullaryOpINS_8internal18scalar_constant_opIdEEKNS_5ArrayIdLin1ELin1ELi0ELin1ELin1EEEEC1EllRKS3_, symObjAddr: 0x113D4, symBinAddr: 0x100011DE0, symSize: 0x44 }
  - { offsetInCU: 0x88392, offset: 0x88392, size: 0x8, addend: 0x0, symName: __ZN5Eigen13CwiseBinaryOpINS_8internal18scalar_quotient_opIddEEKNS_12ArrayWrapperIKNS_14CwiseNullaryOpINS1_16scalar_random_opIdEENS_6MatrixIdLin1ELin1ELi0ELin1ELin1EEEEEEEKNS5_INS1_18scalar_constant_opIdEEKNS_5ArrayIdLin1ELin1ELi0ELin1ELin1EEEEEEC1ERSD_RSK_RKS3_, symObjAddr: 0x11418, symBinAddr: 0x100011E24, symSize: 0x44 }
  - { offsetInCU: 0x883E6, offset: 0x883E6, size: 0x8, addend: 0x0, symName: __ZNK5Eigen14CwiseNullaryOpINS_8internal16scalar_random_opIdEENS_6MatrixIdLin1ELin1ELi0ELin1ELin1EEEE4rowsEv, symObjAddr: 0x1145C, symBinAddr: 0x100011E68, symSize: 0x24 }
  - { offsetInCU: 0x8840C, offset: 0x8840C, size: 0x8, addend: 0x0, symName: __ZNK5Eigen14CwiseNullaryOpINS_8internal16scalar_random_opIdEENS_6MatrixIdLin1ELin1ELi0ELin1ELin1EEEE4colsEv, symObjAddr: 0x11480, symBinAddr: 0x100011E8C, symSize: 0x28 }
  - { offsetInCU: 0x88432, offset: 0x88432, size: 0x8, addend: 0x0, symName: __ZN5Eigen14CwiseNullaryOpINS_8internal18scalar_constant_opIdEEKNS_5ArrayIdLin1ELin1ELi0ELin1ELin1EEEEC2EllRKS3_, symObjAddr: 0x114A8, symBinAddr: 0x100011EB4, symSize: 0xDC }
  - { offsetInCU: 0x88486, offset: 0x88486, size: 0x8, addend: 0x0, symName: __ZN5Eigen9ArrayBaseINS_14CwiseNullaryOpINS_8internal18scalar_constant_opIdEEKNS_5ArrayIdLin1ELin1ELi0ELin1ELin1EEEEEEC2Ev, symObjAddr: 0x11584, symBinAddr: 0x100011F90, symSize: 0x2C }
  - { offsetInCU: 0x884B0, offset: 0x884B0, size: 0x8, addend: 0x0, symName: __ZN5Eigen9DenseBaseINS_14CwiseNullaryOpINS_8internal18scalar_constant_opIdEEKNS_5ArrayIdLin1ELin1ELi0ELin1ELin1EEEEEEC2Ev, symObjAddr: 0x115B0, symBinAddr: 0x100011FBC, symSize: 0x14 }
  - { offsetInCU: 0x884DA, offset: 0x884DA, size: 0x8, addend: 0x0, symName: __ZN5Eigen13CwiseBinaryOpINS_8internal18scalar_quotient_opIddEEKNS_12ArrayWrapperIKNS_14CwiseNullaryOpINS1_16scalar_random_opIdEENS_6MatrixIdLin1ELin1ELi0ELin1ELin1EEEEEEEKNS5_INS1_18scalar_constant_opIdEEKNS_5ArrayIdLin1ELin1ELi0ELin1ELin1EEEEEEC2ERSD_RSK_RKS3_, symObjAddr: 0x115C4, symBinAddr: 0x100011FD0, symSize: 0xFC }
  - { offsetInCU: 0x88533, offset: 0x88533, size: 0x8, addend: 0x0, symName: __ZN5Eigen17CwiseBinaryOpImplINS_8internal18scalar_quotient_opIddEEKNS_12ArrayWrapperIKNS_14CwiseNullaryOpINS1_16scalar_random_opIdEENS_6MatrixIdLin1ELin1ELi0ELin1ELin1EEEEEEEKNS5_INS1_18scalar_constant_opIdEEKNS_5ArrayIdLin1ELin1ELi0ELin1ELin1EEEEENS_5DenseEEC2Ev, symObjAddr: 0x116C0, symBinAddr: 0x1000120CC, symSize: 0x2C }
  - { offsetInCU: 0x8855F, offset: 0x8855F, size: 0x8, addend: 0x0, symName: __ZN5Eigen12ArrayWrapperIKNS_14CwiseNullaryOpINS_8internal16scalar_random_opIdEENS_6MatrixIdLin1ELin1ELi0ELin1ELin1EEEEEEC1ERKS9_, symObjAddr: 0x116EC, symBinAddr: 0x1000120F8, symSize: 0x34 }
  - { offsetInCU: 0x88594, offset: 0x88594, size: 0x8, addend: 0x0, symName: __ZN5Eigen14CwiseNullaryOpINS_8internal18scalar_constant_opIdEEKNS_5ArrayIdLin1ELin1ELi0ELin1ELin1EEEEC1ERKS7_, symObjAddr: 0x11720, symBinAddr: 0x10001212C, symSize: 0x34 }
  - { offsetInCU: 0x885C9, offset: 0x885C9, size: 0x8, addend: 0x0, symName: __ZNK5Eigen14CwiseNullaryOpINS_8internal18scalar_constant_opIdEEKNS_5ArrayIdLin1ELin1ELi0ELin1ELin1EEEE4rowsEv, symObjAddr: 0x11754, symBinAddr: 0x100012160, symSize: 0x24 }
  - { offsetInCU: 0x885EF, offset: 0x885EF, size: 0x8, addend: 0x0, symName: __ZNK5Eigen14CwiseNullaryOpINS_8internal18scalar_constant_opIdEEKNS_5ArrayIdLin1ELin1ELi0ELin1ELin1EEEE4colsEv, symObjAddr: 0x11778, symBinAddr: 0x100012184, symSize: 0x28 }
  - { offsetInCU: 0x88615, offset: 0x88615, size: 0x8, addend: 0x0, symName: __ZN5Eigen9ArrayBaseINS_13CwiseBinaryOpINS_8internal18scalar_quotient_opIddEEKNS_12ArrayWrapperIKNS_14CwiseNullaryOpINS2_16scalar_random_opIdEENS_6MatrixIdLin1ELin1ELi0ELin1ELin1EEEEEEEKNS6_INS2_18scalar_constant_opIdEEKNS_5ArrayIdLin1ELin1ELi0ELin1ELin1EEEEEEEEC2Ev, symObjAddr: 0x117A0, symBinAddr: 0x1000121AC, symSize: 0x2C }
  - { offsetInCU: 0x8863F, offset: 0x8863F, size: 0x8, addend: 0x0, symName: __ZN5Eigen9DenseBaseINS_13CwiseBinaryOpINS_8internal18scalar_quotient_opIddEEKNS_12ArrayWrapperIKNS_14CwiseNullaryOpINS2_16scalar_random_opIdEENS_6MatrixIdLin1ELin1ELi0ELin1ELin1EEEEEEEKNS6_INS2_18scalar_constant_opIdEEKNS_5ArrayIdLin1ELin1ELi0ELin1ELin1EEEEEEEEC2Ev, symObjAddr: 0x117CC, symBinAddr: 0x1000121D8, symSize: 0x14 }
  - { offsetInCU: 0x88669, offset: 0x88669, size: 0x8, addend: 0x0, symName: __ZN5Eigen12ArrayWrapperIKNS_14CwiseNullaryOpINS_8internal16scalar_random_opIdEENS_6MatrixIdLin1ELin1ELi0ELin1ELin1EEEEEEC2ERKS9_, symObjAddr: 0x117E0, symBinAddr: 0x1000121EC, symSize: 0x34 }
  - { offsetInCU: 0x8869E, offset: 0x8869E, size: 0x8, addend: 0x0, symName: __ZN5Eigen14CwiseNullaryOpINS_8internal18scalar_constant_opIdEEKNS_5ArrayIdLin1ELin1ELi0ELin1ELin1EEEEC2ERKS7_, symObjAddr: 0x11814, symBinAddr: 0x100012220, symSize: 0x48 }
  - { offsetInCU: 0x886D3, offset: 0x886D3, size: 0x8, addend: 0x0, symName: __ZNK5Eigen9EigenBaseINS_13CwiseBinaryOpINS_8internal18scalar_quotient_opIddEEKNS_12ArrayWrapperIKNS_14CwiseNullaryOpINS2_16scalar_random_opIdEENS_6MatrixIdLin1ELin1ELi0ELin1ELin1EEEEEEEKNS6_INS2_18scalar_constant_opIdEEKNS_5ArrayIdLin1ELin1ELi0ELin1ELin1EEEEEEEE7derivedEv, symObjAddr: 0x1185C, symBinAddr: 0x100012268, symSize: 0x14 }
  - { offsetInCU: 0x886F9, offset: 0x886F9, size: 0x8, addend: 0x0, symName: __ZNK5Eigen13CwiseBinaryOpINS_8internal18scalar_quotient_opIddEEKNS_12ArrayWrapperIKNS_14CwiseNullaryOpINS1_16scalar_random_opIdEENS_6MatrixIdLin1ELin1ELi0ELin1ELin1EEEEEEEKNS5_INS1_18scalar_constant_opIdEEKNS_5ArrayIdLin1ELin1ELi0ELin1ELin1EEEEEE4rowsEv, symObjAddr: 0x11870, symBinAddr: 0x10001227C, symSize: 0x28 }
  - { offsetInCU: 0x8871F, offset: 0x8871F, size: 0x8, addend: 0x0, symName: __ZNK5Eigen13CwiseBinaryOpINS_8internal18scalar_quotient_opIddEEKNS_12ArrayWrapperIKNS_14CwiseNullaryOpINS1_16scalar_random_opIdEENS_6MatrixIdLin1ELin1ELi0ELin1ELin1EEEEEEEKNS5_INS1_18scalar_constant_opIdEEKNS_5ArrayIdLin1ELin1ELi0ELin1ELin1EEEEEE4colsEv, symObjAddr: 0x11898, symBinAddr: 0x1000122A4, symSize: 0x28 }
  - { offsetInCU: 0x88745, offset: 0x88745, size: 0x8, addend: 0x0, symName: __ZN5Eigen13CwiseBinaryOpINS_8internal13scalar_sum_opIddEEKNS0_INS1_18scalar_quotient_opIddEEKNS_12ArrayWrapperIKNS_14CwiseNullaryOpINS1_16scalar_random_opIdEENS_6MatrixIdLin1ELin1ELi0ELin1ELin1EEEEEEEKNS7_INS1_18scalar_constant_opIdEEKNS_5ArrayIdLin1ELin1ELi0ELin1ELin1EEEEEEESM_EC1ERSO_RSM_RKS3_, symObjAddr: 0x118C0, symBinAddr: 0x1000122CC, symSize: 0x44 }
  - { offsetInCU: 0x88799, offset: 0x88799, size: 0x8, addend: 0x0, symName: __ZN5Eigen13CwiseBinaryOpINS_8internal13scalar_sum_opIddEEKNS0_INS1_18scalar_quotient_opIddEEKNS_12ArrayWrapperIKNS_14CwiseNullaryOpINS1_16scalar_random_opIdEENS_6MatrixIdLin1ELin1ELi0ELin1ELin1EEEEEEEKNS7_INS1_18scalar_constant_opIdEEKNS_5ArrayIdLin1ELin1ELi0ELin1ELin1EEEEEEESM_EC2ERSO_RSM_RKS3_, symObjAddr: 0x11904, symBinAddr: 0x100012310, symSize: 0xFC }
  - { offsetInCU: 0x887F2, offset: 0x887F2, size: 0x8, addend: 0x0, symName: __ZN5Eigen17CwiseBinaryOpImplINS_8internal13scalar_sum_opIddEEKNS_13CwiseBinaryOpINS1_18scalar_quotient_opIddEEKNS_12ArrayWrapperIKNS_14CwiseNullaryOpINS1_16scalar_random_opIdEENS_6MatrixIdLin1ELin1ELi0ELin1ELin1EEEEEEEKNS8_INS1_18scalar_constant_opIdEEKNS_5ArrayIdLin1ELin1ELi0ELin1ELin1EEEEEEESN_NS_5DenseEEC2Ev, symObjAddr: 0x11A00, symBinAddr: 0x10001240C, symSize: 0x2C }
  - { offsetInCU: 0x8881E, offset: 0x8881E, size: 0x8, addend: 0x0, symName: __ZN5Eigen13CwiseBinaryOpINS_8internal18scalar_quotient_opIddEEKNS_12ArrayWrapperIKNS_14CwiseNullaryOpINS1_16scalar_random_opIdEENS_6MatrixIdLin1ELin1ELi0ELin1ELin1EEEEEEEKNS5_INS1_18scalar_constant_opIdEEKNS_5ArrayIdLin1ELin1ELi0ELin1ELin1EEEEEEC1ERKSL_, symObjAddr: 0x11A2C, symBinAddr: 0x100012438, symSize: 0x34 }
  - { offsetInCU: 0x88853, offset: 0x88853, size: 0x8, addend: 0x0, symName: __ZN5Eigen9ArrayBaseINS_13CwiseBinaryOpINS_8internal13scalar_sum_opIddEEKNS1_INS2_18scalar_quotient_opIddEEKNS_12ArrayWrapperIKNS_14CwiseNullaryOpINS2_16scalar_random_opIdEENS_6MatrixIdLin1ELin1ELi0ELin1ELin1EEEEEEEKNS8_INS2_18scalar_constant_opIdEEKNS_5ArrayIdLin1ELin1ELi0ELin1ELin1EEEEEEESN_EEEC2Ev, symObjAddr: 0x11A60, symBinAddr: 0x10001246C, symSize: 0x2C }
  - { offsetInCU: 0x8887D, offset: 0x8887D, size: 0x8, addend: 0x0, symName: __ZN5Eigen9DenseBaseINS_13CwiseBinaryOpINS_8internal13scalar_sum_opIddEEKNS1_INS2_18scalar_quotient_opIddEEKNS_12ArrayWrapperIKNS_14CwiseNullaryOpINS2_16scalar_random_opIdEENS_6MatrixIdLin1ELin1ELi0ELin1ELin1EEEEEEEKNS8_INS2_18scalar_constant_opIdEEKNS_5ArrayIdLin1ELin1ELi0ELin1ELin1EEEEEEESN_EEEC2Ev, symObjAddr: 0x11A8C, symBinAddr: 0x100012498, symSize: 0x14 }
  - { offsetInCU: 0x888A7, offset: 0x888A7, size: 0x8, addend: 0x0, symName: __ZN5Eigen13CwiseBinaryOpINS_8internal18scalar_quotient_opIddEEKNS_12ArrayWrapperIKNS_14CwiseNullaryOpINS1_16scalar_random_opIdEENS_6MatrixIdLin1ELin1ELi0ELin1ELin1EEEEEEEKNS5_INS1_18scalar_constant_opIdEEKNS_5ArrayIdLin1ELin1ELi0ELin1ELin1EEEEEEC2ERKSL_, symObjAddr: 0x11AA0, symBinAddr: 0x1000124AC, symSize: 0x64 }
  - { offsetInCU: 0x888DC, offset: 0x888DC, size: 0x8, addend: 0x0, symName: __ZNK5Eigen9EigenBaseINS_13CwiseBinaryOpINS_8internal13scalar_sum_opIddEEKNS1_INS2_18scalar_quotient_opIddEEKNS_12ArrayWrapperIKNS_14CwiseNullaryOpINS2_16scalar_random_opIdEENS_6MatrixIdLin1ELin1ELi0ELin1ELin1EEEEEEEKNS8_INS2_18scalar_constant_opIdEEKNS_5ArrayIdLin1ELin1ELi0ELin1ELin1EEEEEEESN_EEE7derivedEv, symObjAddr: 0x11B04, symBinAddr: 0x100012510, symSize: 0x14 }
  - { offsetInCU: 0x88902, offset: 0x88902, size: 0x8, addend: 0x0, symName: __ZNK5Eigen13CwiseBinaryOpINS_8internal13scalar_sum_opIddEEKNS0_INS1_18scalar_quotient_opIddEEKNS_12ArrayWrapperIKNS_14CwiseNullaryOpINS1_16scalar_random_opIdEENS_6MatrixIdLin1ELin1ELi0ELin1ELin1EEEEEEEKNS7_INS1_18scalar_constant_opIdEEKNS_5ArrayIdLin1ELin1ELi0ELin1ELin1EEEEEEESM_E4rowsEv, symObjAddr: 0x11B18, symBinAddr: 0x100012524, symSize: 0x28 }
  - { offsetInCU: 0x88928, offset: 0x88928, size: 0x8, addend: 0x0, symName: __ZNK5Eigen13CwiseBinaryOpINS_8internal13scalar_sum_opIddEEKNS0_INS1_18scalar_quotient_opIddEEKNS_12ArrayWrapperIKNS_14CwiseNullaryOpINS1_16scalar_random_opIdEENS_6MatrixIdLin1ELin1ELi0ELin1ELin1EEEEEEEKNS7_INS1_18scalar_constant_opIdEEKNS_5ArrayIdLin1ELin1ELi0ELin1ELin1EEEEEEESM_E4colsEv, symObjAddr: 0x11B40, symBinAddr: 0x10001254C, symSize: 0x28 }
  - { offsetInCU: 0x8894E, offset: 0x8894E, size: 0x8, addend: 0x0, symName: __ZN5Eigen13CwiseBinaryOpINS_8internal17scalar_product_opIddEEKNS0_INS1_13scalar_sum_opIddEEKNS0_INS1_18scalar_quotient_opIddEEKNS_12ArrayWrapperIKNS_14CwiseNullaryOpINS1_16scalar_random_opIdEENS_6MatrixIdLin1ELin1ELi0ELin1ELin1EEEEEEEKNS9_INS1_18scalar_constant_opIdEEKNS_5ArrayIdLin1ELin1ELi0ELin1ELin1EEEEEEESO_EESO_EC1ERSS_RSO_RKS3_, symObjAddr: 0x11B68, symBinAddr: 0x100012574, symSize: 0x44 }
  - { offsetInCU: 0x889A2, offset: 0x889A2, size: 0x8, addend: 0x0, symName: __ZN5Eigen13CwiseBinaryOpINS_8internal17scalar_product_opIddEEKNS0_INS1_13scalar_sum_opIddEEKNS0_INS1_18scalar_quotient_opIddEEKNS_12ArrayWrapperIKNS_14CwiseNullaryOpINS1_16scalar_random_opIdEENS_6MatrixIdLin1ELin1ELi0ELin1ELin1EEEEEEEKNS9_INS1_18scalar_constant_opIdEEKNS_5ArrayIdLin1ELin1ELi0ELin1ELin1EEEEEEESO_EESO_EC2ERSS_RSO_RKS3_, symObjAddr: 0x11BAC, symBinAddr: 0x1000125B8, symSize: 0xFC }
  - { offsetInCU: 0x889FB, offset: 0x889FB, size: 0x8, addend: 0x0, symName: __ZN5Eigen17CwiseBinaryOpImplINS_8internal17scalar_product_opIddEEKNS_13CwiseBinaryOpINS1_13scalar_sum_opIddEEKNS4_INS1_18scalar_quotient_opIddEEKNS_12ArrayWrapperIKNS_14CwiseNullaryOpINS1_16scalar_random_opIdEENS_6MatrixIdLin1ELin1ELi0ELin1ELin1EEEEEEEKNSA_INS1_18scalar_constant_opIdEEKNS_5ArrayIdLin1ELin1ELi0ELin1ELin1EEEEEEESP_EESP_NS_5DenseEEC2Ev, symObjAddr: 0x11CA8, symBinAddr: 0x1000126B4, symSize: 0x2C }
  - { offsetInCU: 0x88A27, offset: 0x88A27, size: 0x8, addend: 0x0, symName: __ZN5Eigen13CwiseBinaryOpINS_8internal13scalar_sum_opIddEEKNS0_INS1_18scalar_quotient_opIddEEKNS_12ArrayWrapperIKNS_14CwiseNullaryOpINS1_16scalar_random_opIdEENS_6MatrixIdLin1ELin1ELi0ELin1ELin1EEEEEEEKNS7_INS1_18scalar_constant_opIdEEKNS_5ArrayIdLin1ELin1ELi0ELin1ELin1EEEEEEESM_EC1ERKSP_, symObjAddr: 0x11CD4, symBinAddr: 0x1000126E0, symSize: 0x34 }
  - { offsetInCU: 0x88A5C, offset: 0x88A5C, size: 0x8, addend: 0x0, symName: __ZN5Eigen9ArrayBaseINS_13CwiseBinaryOpINS_8internal17scalar_product_opIddEEKNS1_INS2_13scalar_sum_opIddEEKNS1_INS2_18scalar_quotient_opIddEEKNS_12ArrayWrapperIKNS_14CwiseNullaryOpINS2_16scalar_random_opIdEENS_6MatrixIdLin1ELin1ELi0ELin1ELin1EEEEEEEKNSA_INS2_18scalar_constant_opIdEEKNS_5ArrayIdLin1ELin1ELi0ELin1ELin1EEEEEEESP_EESP_EEEC2Ev, symObjAddr: 0x11D08, symBinAddr: 0x100012714, symSize: 0x2C }
  - { offsetInCU: 0x88A86, offset: 0x88A86, size: 0x8, addend: 0x0, symName: __ZN5Eigen9DenseBaseINS_13CwiseBinaryOpINS_8internal17scalar_product_opIddEEKNS1_INS2_13scalar_sum_opIddEEKNS1_INS2_18scalar_quotient_opIddEEKNS_12ArrayWrapperIKNS_14CwiseNullaryOpINS2_16scalar_random_opIdEENS_6MatrixIdLin1ELin1ELi0ELin1ELin1EEEEEEEKNSA_INS2_18scalar_constant_opIdEEKNS_5ArrayIdLin1ELin1ELi0ELin1ELin1EEEEEEESP_EESP_EEEC2Ev, symObjAddr: 0x11D34, symBinAddr: 0x100012740, symSize: 0x14 }
  - { offsetInCU: 0x88AB0, offset: 0x88AB0, size: 0x8, addend: 0x0, symName: __ZN5Eigen13CwiseBinaryOpINS_8internal13scalar_sum_opIddEEKNS0_INS1_18scalar_quotient_opIddEEKNS_12ArrayWrapperIKNS_14CwiseNullaryOpINS1_16scalar_random_opIdEENS_6MatrixIdLin1ELin1ELi0ELin1ELin1EEEEEEEKNS7_INS1_18scalar_constant_opIdEEKNS_5ArrayIdLin1ELin1ELi0ELin1ELin1EEEEEEESM_EC2ERKSP_, symObjAddr: 0x11D48, symBinAddr: 0x100012754, symSize: 0x64 }
  - { offsetInCU: 0x88AE5, offset: 0x88AE5, size: 0x8, addend: 0x0, symName: __ZNK5Eigen9EigenBaseINS_13CwiseBinaryOpINS_8internal17scalar_product_opIddEEKNS1_INS2_13scalar_sum_opIddEEKNS1_INS2_18scalar_quotient_opIddEEKNS_12ArrayWrapperIKNS_14CwiseNullaryOpINS2_16scalar_random_opIdEENS_6MatrixIdLin1ELin1ELi0ELin1ELin1EEEEEEEKNSA_INS2_18scalar_constant_opIdEEKNS_5ArrayIdLin1ELin1ELi0ELin1ELin1EEEEEEESP_EESP_EEE7derivedEv, symObjAddr: 0x11DAC, symBinAddr: 0x1000127B8, symSize: 0x14 }
  - { offsetInCU: 0x88B0B, offset: 0x88B0B, size: 0x8, addend: 0x0, symName: __ZNK5Eigen13CwiseBinaryOpINS_8internal17scalar_product_opIddEEKNS0_INS1_13scalar_sum_opIddEEKNS0_INS1_18scalar_quotient_opIddEEKNS_12ArrayWrapperIKNS_14CwiseNullaryOpINS1_16scalar_random_opIdEENS_6MatrixIdLin1ELin1ELi0ELin1ELin1EEEEEEEKNS9_INS1_18scalar_constant_opIdEEKNS_5ArrayIdLin1ELin1ELi0ELin1ELin1EEEEEEESO_EESO_E4rowsEv, symObjAddr: 0x11DC0, symBinAddr: 0x1000127CC, symSize: 0x28 }
  - { offsetInCU: 0x88B31, offset: 0x88B31, size: 0x8, addend: 0x0, symName: __ZNK5Eigen13CwiseBinaryOpINS_8internal17scalar_product_opIddEEKNS0_INS1_13scalar_sum_opIddEEKNS0_INS1_18scalar_quotient_opIddEEKNS_12ArrayWrapperIKNS_14CwiseNullaryOpINS1_16scalar_random_opIdEENS_6MatrixIdLin1ELin1ELi0ELin1ELin1EEEEEEEKNS9_INS1_18scalar_constant_opIdEEKNS_5ArrayIdLin1ELin1ELi0ELin1ELin1EEEEEEESO_EESO_E4colsEv, symObjAddr: 0x11DE8, symBinAddr: 0x1000127F4, symSize: 0x28 }
  - { offsetInCU: 0x88B57, offset: 0x88B57, size: 0x8, addend: 0x0, symName: __ZN5Eigen13CwiseBinaryOpINS_8internal13scalar_sum_opIddEEKNS0_INS1_17scalar_product_opIddEEKNS0_IS3_KNS0_INS1_18scalar_quotient_opIddEEKNS_12ArrayWrapperIKNS_14CwiseNullaryOpINS1_16scalar_random_opIdEENS_6MatrixIdLin1ELin1ELi0ELin1ELin1EEEEEEEKNS9_INS1_18scalar_constant_opIdEEKNS_5ArrayIdLin1ELin1ELi0ELin1ELin1EEEEEEESO_EESO_EESO_EC1ERSU_RSO_RKS3_, symObjAddr: 0x11E10, symBinAddr: 0x10001281C, symSize: 0x44 }
  - { offsetInCU: 0x88BAB, offset: 0x88BAB, size: 0x8, addend: 0x0, symName: __ZN5Eigen13CwiseBinaryOpINS_8internal13scalar_sum_opIddEEKNS0_INS1_17scalar_product_opIddEEKNS0_IS3_KNS0_INS1_18scalar_quotient_opIddEEKNS_12ArrayWrapperIKNS_14CwiseNullaryOpINS1_16scalar_random_opIdEENS_6MatrixIdLin1ELin1ELi0ELin1ELin1EEEEEEEKNS9_INS1_18scalar_constant_opIdEEKNS_5ArrayIdLin1ELin1ELi0ELin1ELin1EEEEEEESO_EESO_EESO_EC2ERSU_RSO_RKS3_, symObjAddr: 0x11E54, symBinAddr: 0x100012860, symSize: 0xFC }
  - { offsetInCU: 0x88C04, offset: 0x88C04, size: 0x8, addend: 0x0, symName: __ZN5Eigen17CwiseBinaryOpImplINS_8internal13scalar_sum_opIddEEKNS_13CwiseBinaryOpINS1_17scalar_product_opIddEEKNS4_IS3_KNS4_INS1_18scalar_quotient_opIddEEKNS_12ArrayWrapperIKNS_14CwiseNullaryOpINS1_16scalar_random_opIdEENS_6MatrixIdLin1ELin1ELi0ELin1ELin1EEEEEEEKNSA_INS1_18scalar_constant_opIdEEKNS_5ArrayIdLin1ELin1ELi0ELin1ELin1EEEEEEESP_EESP_EESP_NS_5DenseEEC2Ev, symObjAddr: 0x11F50, symBinAddr: 0x10001295C, symSize: 0x2C }
  - { offsetInCU: 0x88C30, offset: 0x88C30, size: 0x8, addend: 0x0, symName: __ZN5Eigen13CwiseBinaryOpINS_8internal17scalar_product_opIddEEKNS0_INS1_13scalar_sum_opIddEEKNS0_INS1_18scalar_quotient_opIddEEKNS_12ArrayWrapperIKNS_14CwiseNullaryOpINS1_16scalar_random_opIdEENS_6MatrixIdLin1ELin1ELi0ELin1ELin1EEEEEEEKNS9_INS1_18scalar_constant_opIdEEKNS_5ArrayIdLin1ELin1ELi0ELin1ELin1EEEEEEESO_EESO_EC1ERKST_, symObjAddr: 0x11F7C, symBinAddr: 0x100012988, symSize: 0x34 }
  - { offsetInCU: 0x88C65, offset: 0x88C65, size: 0x8, addend: 0x0, symName: __ZN5Eigen9ArrayBaseINS_13CwiseBinaryOpINS_8internal13scalar_sum_opIddEEKNS1_INS2_17scalar_product_opIddEEKNS1_IS4_KNS1_INS2_18scalar_quotient_opIddEEKNS_12ArrayWrapperIKNS_14CwiseNullaryOpINS2_16scalar_random_opIdEENS_6MatrixIdLin1ELin1ELi0ELin1ELin1EEEEEEEKNSA_INS2_18scalar_constant_opIdEEKNS_5ArrayIdLin1ELin1ELi0ELin1ELin1EEEEEEESP_EESP_EESP_EEEC2Ev, symObjAddr: 0x11FB0, symBinAddr: 0x1000129BC, symSize: 0x2C }
  - { offsetInCU: 0x88C8F, offset: 0x88C8F, size: 0x8, addend: 0x0, symName: __ZN5Eigen9DenseBaseINS_13CwiseBinaryOpINS_8internal13scalar_sum_opIddEEKNS1_INS2_17scalar_product_opIddEEKNS1_IS4_KNS1_INS2_18scalar_quotient_opIddEEKNS_12ArrayWrapperIKNS_14CwiseNullaryOpINS2_16scalar_random_opIdEENS_6MatrixIdLin1ELin1ELi0ELin1ELin1EEEEEEEKNSA_INS2_18scalar_constant_opIdEEKNS_5ArrayIdLin1ELin1ELi0ELin1ELin1EEEEEEESP_EESP_EESP_EEEC2Ev, symObjAddr: 0x11FDC, symBinAddr: 0x1000129E8, symSize: 0x14 }
  - { offsetInCU: 0x88CB9, offset: 0x88CB9, size: 0x8, addend: 0x0, symName: __ZN5Eigen13CwiseBinaryOpINS_8internal17scalar_product_opIddEEKNS0_INS1_13scalar_sum_opIddEEKNS0_INS1_18scalar_quotient_opIddEEKNS_12ArrayWrapperIKNS_14CwiseNullaryOpINS1_16scalar_random_opIdEENS_6MatrixIdLin1ELin1ELi0ELin1ELin1EEEEEEEKNS9_INS1_18scalar_constant_opIdEEKNS_5ArrayIdLin1ELin1ELi0ELin1ELin1EEEEEEESO_EESO_EC2ERKST_, symObjAddr: 0x11FF0, symBinAddr: 0x1000129FC, symSize: 0x64 }
  - { offsetInCU: 0x88CEE, offset: 0x88CEE, size: 0x8, addend: 0x0, symName: __ZN5Eigen6MatrixIdLin1ELin1ELi0ELin1ELin1EEC2INS_13CwiseBinaryOpINS_8internal13scalar_sum_opIddEEKNS3_INS4_17scalar_product_opIddEEKNS3_IS6_KNS3_INS4_18scalar_quotient_opIddEEKNS_12ArrayWrapperIKNS_14CwiseNullaryOpINS4_16scalar_random_opIdEES1_EEEEKNSC_INS4_18scalar_constant_opIdEEKNS_5ArrayIdLin1ELin1ELi0ELin1ELin1EEEEEEESP_EESP_EESP_EEEERKNS_9EigenBaseIT_EE, symObjAddr: 0x12054, symBinAddr: 0x100012A60, symSize: 0x40 }
  - { offsetInCU: 0x88D30, offset: 0x88D30, size: 0x8, addend: 0x0, symName: __ZNK5Eigen9EigenBaseINS_13CwiseBinaryOpINS_8internal13scalar_sum_opIddEEKNS1_INS2_17scalar_product_opIddEEKNS1_IS4_KNS1_INS2_18scalar_quotient_opIddEEKNS_12ArrayWrapperIKNS_14CwiseNullaryOpINS2_16scalar_random_opIdEENS_6MatrixIdLin1ELin1ELi0ELin1ELin1EEEEEEEKNSA_INS2_18scalar_constant_opIdEEKNS_5ArrayIdLin1ELin1ELi0ELin1ELin1EEEEEEESP_EESP_EESP_EEE7derivedEv, symObjAddr: 0x12094, symBinAddr: 0x100012AA0, symSize: 0x14 }
  - { offsetInCU: 0x88D56, offset: 0x88D56, size: 0x8, addend: 0x0, symName: __ZN5Eigen15PlainObjectBaseINS_6MatrixIdLin1ELin1ELi0ELin1ELin1EEEEC2INS_13CwiseBinaryOpINS_8internal13scalar_sum_opIddEEKNS5_INS6_17scalar_product_opIddEEKNS5_IS8_KNS5_INS6_18scalar_quotient_opIddEEKNS_12ArrayWrapperIKNS_14CwiseNullaryOpINS6_16scalar_random_opIdEES2_EEEEKNSE_INS6_18scalar_constant_opIdEEKNS_5ArrayIdLin1ELin1ELi0ELin1ELin1EEEEEEESR_EESR_EESR_EEEERKNS_9DenseBaseIT_EE, symObjAddr: 0x120A8, symBinAddr: 0x100012AB4, symSize: 0x84 }
  - { offsetInCU: 0x88D98, offset: 0x88D98, size: 0x8, addend: 0x0, symName: __ZN5Eigen10MatrixBaseINS_6MatrixIdLin1ELin1ELi0ELin1ELin1EEEEC2Ev, symObjAddr: 0x1212C, symBinAddr: 0x100012B38, symSize: 0x2C }
  - { offsetInCU: 0x88DC2, offset: 0x88DC2, size: 0x8, addend: 0x0, symName: __ZN5Eigen12DenseStorageIdLin1ELin1ELin1ELi0EEC1Ev, symObjAddr: 0x12158, symBinAddr: 0x100012B64, symSize: 0x2C }
  - { offsetInCU: 0x88DEC, offset: 0x88DEC, size: 0x8, addend: 0x0, symName: __ZN5Eigen15PlainObjectBaseINS_6MatrixIdLin1ELin1ELi0ELin1ELin1EEEE22_check_template_paramsEv, symObjAddr: 0x12184, symBinAddr: 0x100012B90, symSize: 0x4 }
  - { offsetInCU: 0x88E00, offset: 0x88E00, size: 0x8, addend: 0x0, symName: __ZN5Eigen15PlainObjectBaseINS_6MatrixIdLin1ELin1ELi0ELin1ELin1EEEE10resizeLikeINS_13CwiseBinaryOpINS_8internal13scalar_sum_opIddEEKNS5_INS6_17scalar_product_opIddEEKNS5_IS8_KNS5_INS6_18scalar_quotient_opIddEEKNS_12ArrayWrapperIKNS_14CwiseNullaryOpINS6_16scalar_random_opIdEES2_EEEEKNSE_INS6_18scalar_constant_opIdEEKNS_5ArrayIdLin1ELin1ELi0ELin1ELin1EEEEEEESR_EESR_EESR_EEEEvRKNS_9EigenBaseIT_EE, symObjAddr: 0x12188, symBinAddr: 0x100012B94, symSize: 0x11C }
  - { offsetInCU: 0x88E94, offset: 0x88E94, size: 0x8, addend: 0x0, symName: __ZN5Eigen15PlainObjectBaseINS_6MatrixIdLin1ELin1ELi0ELin1ELin1EEEE12_set_noaliasINS_13CwiseBinaryOpINS_8internal13scalar_sum_opIddEEKNS5_INS6_17scalar_product_opIddEEKNS5_IS8_KNS5_INS6_18scalar_quotient_opIddEEKNS_12ArrayWrapperIKNS_14CwiseNullaryOpINS6_16scalar_random_opIdEES2_EEEEKNSE_INS6_18scalar_constant_opIdEEKNS_5ArrayIdLin1ELin1ELi0ELin1ELin1EEEEEEESR_EESR_EESR_EEEERS2_RKNS_9DenseBaseIT_EE, symObjAddr: 0x122A4, symBinAddr: 0x100012CB0, symSize: 0x60 }
  - { offsetInCU: 0x88ED2, offset: 0x88ED2, size: 0x8, addend: 0x0, symName: __ZN5Eigen9DenseBaseINS_6MatrixIdLin1ELin1ELi0ELin1ELin1EEEEC2Ev, symObjAddr: 0x12304, symBinAddr: 0x100012D10, symSize: 0x14 }
  - { offsetInCU: 0x88EFC, offset: 0x88EFC, size: 0x8, addend: 0x0, symName: __ZN5Eigen12DenseStorageIdLin1ELin1ELin1ELi0EEC2Ev, symObjAddr: 0x12318, symBinAddr: 0x100012D24, symSize: 0x20 }
  - { offsetInCU: 0x88F26, offset: 0x88F26, size: 0x8, addend: 0x0, symName: __ZNK5Eigen13CwiseBinaryOpINS_8internal13scalar_sum_opIddEEKNS0_INS1_17scalar_product_opIddEEKNS0_IS3_KNS0_INS1_18scalar_quotient_opIddEEKNS_12ArrayWrapperIKNS_14CwiseNullaryOpINS1_16scalar_random_opIdEENS_6MatrixIdLin1ELin1ELi0ELin1ELin1EEEEEEEKNS9_INS1_18scalar_constant_opIdEEKNS_5ArrayIdLin1ELin1ELi0ELin1ELin1EEEEEEESO_EESO_EESO_E4rowsEv, symObjAddr: 0x12338, symBinAddr: 0x100012D44, symSize: 0x28 }
  - { offsetInCU: 0x88F4C, offset: 0x88F4C, size: 0x8, addend: 0x0, symName: __ZNK5Eigen13CwiseBinaryOpINS_8internal13scalar_sum_opIddEEKNS0_INS1_17scalar_product_opIddEEKNS0_IS3_KNS0_INS1_18scalar_quotient_opIddEEKNS_12ArrayWrapperIKNS_14CwiseNullaryOpINS1_16scalar_random_opIdEENS_6MatrixIdLin1ELin1ELi0ELin1ELin1EEEEEEEKNS9_INS1_18scalar_constant_opIdEEKNS_5ArrayIdLin1ELin1ELi0ELin1ELin1EEEEEEESO_EESO_EESO_E4colsEv, symObjAddr: 0x12360, symBinAddr: 0x100012D6C, symSize: 0x28 }
  - { offsetInCU: 0x88F72, offset: 0x88F72, size: 0x8, addend: 0x0, symName: __ZN5Eigen15PlainObjectBaseINS_6MatrixIdLin1ELin1ELi0ELin1ELin1EEEE6resizeEll, symObjAddr: 0x12388, symBinAddr: 0x100012D94, symSize: 0x14C }
  - { offsetInCU: 0x88FEE, offset: 0x88FEE, size: 0x8, addend: 0x0, symName: __ZN5Eigen12DenseStorageIdLin1ELin1ELin1ELi0EE6resizeElll, symObjAddr: 0x124D4, symBinAddr: 0x100012EE0, symSize: 0xB4 }
  - { offsetInCU: 0x89041, offset: 0x89041, size: 0x8, addend: 0x0, symName: __ZN5Eigen8internal10AssignmentINS_6MatrixIdLin1ELin1ELi0ELin1ELin1EEENS_13CwiseBinaryOpINS0_13scalar_sum_opIddEEKNS4_INS0_17scalar_product_opIddEEKNS4_IS6_KNS4_INS0_18scalar_quotient_opIddEEKNS_12ArrayWrapperIKNS_14CwiseNullaryOpINS0_16scalar_random_opIdEES3_EEEEKNSC_INS0_18scalar_constant_opIdEEKNS_5ArrayIdLin1ELin1ELi0ELin1ELin1EEEEEEESP_EESP_EESP_EENS0_9assign_opIddEENS0_11Dense2DenseEvE3runERS3_RKSW_RKSY_, symObjAddr: 0x125C4, symBinAddr: 0x100012FD0, symSize: 0x40 }
  - { offsetInCU: 0x89083, offset: 0x89083, size: 0x8, addend: 0x0, symName: __ZN5Eigen8internal27checkTransposeAliasing_implINS_6MatrixIdLin1ELin1ELi0ELin1ELin1EEENS_13CwiseBinaryOpINS0_13scalar_sum_opIddEEKNS4_INS0_17scalar_product_opIddEEKNS4_IS6_KNS4_INS0_18scalar_quotient_opIddEEKNS_12ArrayWrapperIKNS_14CwiseNullaryOpINS0_16scalar_random_opIdEES3_EEEEKNSC_INS0_18scalar_constant_opIdEEKNS_5ArrayIdLin1ELin1ELi0ELin1ELin1EEEEEEESP_EESP_EESP_EELb0EE3runERKS3_RKSW_, symObjAddr: 0x12744, symBinAddr: 0x100013150, symSize: 0x14 }
  - { offsetInCU: 0x8925C, offset: 0x8925C, size: 0x8, addend: 0x0, symName: __ZN5Eigen8internal9evaluatorINS_13CwiseBinaryOpINS0_13scalar_sum_opIddEEKNS2_INS0_17scalar_product_opIddEEKNS2_IS4_KNS2_INS0_18scalar_quotient_opIddEEKNS_12ArrayWrapperIKNS_14CwiseNullaryOpINS0_16scalar_random_opIdEENS_6MatrixIdLin1ELin1ELi0ELin1ELin1EEEEEEEKNSA_INS0_18scalar_constant_opIdEEKNS_5ArrayIdLin1ELin1ELi0ELin1ELin1EEEEEEESP_EESP_EESP_EEEC1ERKSW_, symObjAddr: 0x12758, symBinAddr: 0x100013164, symSize: 0x34 }
  - { offsetInCU: 0x89295, offset: 0x89295, size: 0x8, addend: 0x0, symName: __ZN5Eigen8internal9evaluatorINS_6MatrixIdLin1ELin1ELi0ELin1ELin1EEEEC1ERKS3_, symObjAddr: 0x12884, symBinAddr: 0x100013290, symSize: 0x34 }
  - { offsetInCU: 0x892CE, offset: 0x892CE, size: 0x8, addend: 0x0, symName: __ZNK5Eigen9EigenBaseINS_6MatrixIdLin1ELin1ELi0ELin1ELin1EEEE18const_cast_derivedEv, symObjAddr: 0x128B8, symBinAddr: 0x1000132C4, symSize: 0x14 }
  - { offsetInCU: 0x89321, offset: 0x89321, size: 0x8, addend: 0x0, symName: __ZN5Eigen8internal31generic_dense_assignment_kernelINS0_9evaluatorINS_6MatrixIdLin1ELin1ELi0ELin1ELin1EEEEENS2_INS_13CwiseBinaryOpINS0_13scalar_sum_opIddEEKNS6_INS0_17scalar_product_opIddEEKNS6_IS8_KNS6_INS0_18scalar_quotient_opIddEEKNS_12ArrayWrapperIKNS_14CwiseNullaryOpINS0_16scalar_random_opIdEES4_EEEEKNSE_INS0_18scalar_constant_opIdEEKNS_5ArrayIdLin1ELin1ELi0ELin1ELin1EEEEEEESR_EESR_EESR_EEEENS0_9assign_opIddEELi0EEC1ERS5_RKSZ_RKS11_RS4_, symObjAddr: 0x128CC, symBinAddr: 0x1000132D8, symSize: 0x4C }
  - { offsetInCU: 0x8938C, offset: 0x8938C, size: 0x8, addend: 0x0, symName: __ZN5Eigen8internal21dense_assignment_loopINS0_31generic_dense_assignment_kernelINS0_9evaluatorINS_6MatrixIdLin1ELin1ELi0ELin1ELin1EEEEENS3_INS_13CwiseBinaryOpINS0_13scalar_sum_opIddEEKNS7_INS0_17scalar_product_opIddEEKNS7_IS9_KNS7_INS0_18scalar_quotient_opIddEEKNS_12ArrayWrapperIKNS_14CwiseNullaryOpINS0_16scalar_random_opIdEES5_EEEEKNSF_INS0_18scalar_constant_opIdEEKNS_5ArrayIdLin1ELin1ELi0ELin1ELin1EEEEEEESS_EESS_EESS_EEEENS0_9assign_opIddEELi0EEELi1ELi0EE3runERS13_, symObjAddr: 0x12918, symBinAddr: 0x100013324, symSize: 0x68 }
  - { offsetInCU: 0x893DC, offset: 0x893DC, size: 0x8, addend: 0x0, symName: __ZN5Eigen8internal9evaluatorINS_6MatrixIdLin1ELin1ELi0ELin1ELin1EEEED1Ev, symObjAddr: 0x12980, symBinAddr: 0x10001338C, symSize: 0x2C }
  - { offsetInCU: 0x89409, offset: 0x89409, size: 0x8, addend: 0x0, symName: __ZN5Eigen8internal9evaluatorINS_13CwiseBinaryOpINS0_13scalar_sum_opIddEEKNS2_INS0_17scalar_product_opIddEEKNS2_IS4_KNS2_INS0_18scalar_quotient_opIddEEKNS_12ArrayWrapperIKNS_14CwiseNullaryOpINS0_16scalar_random_opIdEENS_6MatrixIdLin1ELin1ELi0ELin1ELin1EEEEEEEKNSA_INS0_18scalar_constant_opIdEEKNS_5ArrayIdLin1ELin1ELi0ELin1ELin1EEEEEEESP_EESP_EESP_EEED1Ev, symObjAddr: 0x129AC, symBinAddr: 0x1000133B8, symSize: 0x2C }
  - { offsetInCU: 0x89436, offset: 0x89436, size: 0x8, addend: 0x0, symName: __ZN5Eigen8internal9evaluatorINS_13CwiseBinaryOpINS0_13scalar_sum_opIddEEKNS2_INS0_17scalar_product_opIddEEKNS2_IS4_KNS2_INS0_18scalar_quotient_opIddEEKNS_12ArrayWrapperIKNS_14CwiseNullaryOpINS0_16scalar_random_opIdEENS_6MatrixIdLin1ELin1ELi0ELin1ELin1EEEEEEEKNSA_INS0_18scalar_constant_opIdEEKNS_5ArrayIdLin1ELin1ELi0ELin1ELin1EEEEEEESP_EESP_EESP_EEEC2ERKSW_, symObjAddr: 0x129D8, symBinAddr: 0x1000133E4, symSize: 0x34 }
  - { offsetInCU: 0x8946F, offset: 0x8946F, size: 0x8, addend: 0x0, symName: __ZN5Eigen8internal16binary_evaluatorINS_13CwiseBinaryOpINS0_13scalar_sum_opIddEEKNS2_INS0_17scalar_product_opIddEEKNS2_IS4_KNS2_INS0_18scalar_quotient_opIddEEKNS_12ArrayWrapperIKNS_14CwiseNullaryOpINS0_16scalar_random_opIdEENS_6MatrixIdLin1ELin1ELi0ELin1ELin1EEEEEEEKNSA_INS0_18scalar_constant_opIdEEKNS_5ArrayIdLin1ELin1ELi0ELin1ELin1EEEEEEESP_EESP_EESP_EENS0_10IndexBasedESX_ddEC2ERKSW_, symObjAddr: 0x12A0C, symBinAddr: 0x100013418, symSize: 0x64 }
  - { offsetInCU: 0x894A8, offset: 0x894A8, size: 0x8, addend: 0x0, symName: __ZN5Eigen8internal14evaluator_baseINS_13CwiseBinaryOpINS0_13scalar_sum_opIddEEKNS2_INS0_17scalar_product_opIddEEKNS2_IS4_KNS2_INS0_18scalar_quotient_opIddEEKNS_12ArrayWrapperIKNS_14CwiseNullaryOpINS0_16scalar_random_opIdEENS_6MatrixIdLin1ELin1ELi0ELin1ELin1EEEEEEEKNSA_INS0_18scalar_constant_opIdEEKNS_5ArrayIdLin1ELin1ELi0ELin1ELin1EEEEEEESP_EESP_EESP_EEEC2Ev, symObjAddr: 0x12A70, symBinAddr: 0x10001347C, symSize: 0x14 }
  - { offsetInCU: 0x894D2, offset: 0x894D2, size: 0x8, addend: 0x0, symName: __ZN5Eigen8internal16binary_evaluatorINS_13CwiseBinaryOpINS0_13scalar_sum_opIddEEKNS2_INS0_17scalar_product_opIddEEKNS2_IS4_KNS2_INS0_18scalar_quotient_opIddEEKNS_12ArrayWrapperIKNS_14CwiseNullaryOpINS0_16scalar_random_opIdEENS_6MatrixIdLin1ELin1ELi0ELin1ELin1EEEEEEEKNSA_INS0_18scalar_constant_opIdEEKNS_5ArrayIdLin1ELin1ELi0ELin1ELin1EEEEEEESP_EESP_EESP_EENS0_10IndexBasedESX_ddE4DataC1ERKSW_, symObjAddr: 0x12A84, symBinAddr: 0x100013490, symSize: 0x34 }
  - { offsetInCU: 0x8950B, offset: 0x8950B, size: 0x8, addend: 0x0, symName: __ZN5Eigen8internal14evaluator_baseINS_13CwiseBinaryOpINS0_13scalar_sum_opIddEEKNS2_INS0_17scalar_product_opIddEEKNS2_IS4_KNS2_INS0_18scalar_quotient_opIddEEKNS_12ArrayWrapperIKNS_14CwiseNullaryOpINS0_16scalar_random_opIdEENS_6MatrixIdLin1ELin1ELi0ELin1ELin1EEEEEEEKNSA_INS0_18scalar_constant_opIdEEKNS_5ArrayIdLin1ELin1ELi0ELin1ELin1EEEEEEESP_EESP_EESP_EEED2Ev, symObjAddr: 0x12AB8, symBinAddr: 0x1000134C4, symSize: 0x14 }
  - { offsetInCU: 0x89535, offset: 0x89535, size: 0x8, addend: 0x0, symName: __ZN5Eigen8internal16binary_evaluatorINS_13CwiseBinaryOpINS0_13scalar_sum_opIddEEKNS2_INS0_17scalar_product_opIddEEKNS2_IS4_KNS2_INS0_18scalar_quotient_opIddEEKNS_12ArrayWrapperIKNS_14CwiseNullaryOpINS0_16scalar_random_opIdEENS_6MatrixIdLin1ELin1ELi0ELin1ELin1EEEEEEEKNSA_INS0_18scalar_constant_opIdEEKNS_5ArrayIdLin1ELin1ELi0ELin1ELin1EEEEEEESP_EESP_EESP_EENS0_10IndexBasedESX_ddE4DataC2ERKSW_, symObjAddr: 0x12ACC, symBinAddr: 0x1000134D8, symSize: 0xA8 }
  - { offsetInCU: 0x8956E, offset: 0x8956E, size: 0x8, addend: 0x0, symName: __ZNK5Eigen13CwiseBinaryOpINS_8internal13scalar_sum_opIddEEKNS0_INS1_17scalar_product_opIddEEKNS0_IS3_KNS0_INS1_18scalar_quotient_opIddEEKNS_12ArrayWrapperIKNS_14CwiseNullaryOpINS1_16scalar_random_opIdEENS_6MatrixIdLin1ELin1ELi0ELin1ELin1EEEEEEEKNS9_INS1_18scalar_constant_opIdEEKNS_5ArrayIdLin1ELin1ELi0ELin1ELin1EEEEEEESO_EESO_EESO_E7functorEv, symObjAddr: 0x12B74, symBinAddr: 0x100013580, symSize: 0x18 }
  - { offsetInCU: 0x89594, offset: 0x89594, size: 0x8, addend: 0x0, symName: __ZNK5Eigen13CwiseBinaryOpINS_8internal13scalar_sum_opIddEEKNS0_INS1_17scalar_product_opIddEEKNS0_IS3_KNS0_INS1_18scalar_quotient_opIddEEKNS_12ArrayWrapperIKNS_14CwiseNullaryOpINS1_16scalar_random_opIdEENS_6MatrixIdLin1ELin1ELi0ELin1ELin1EEEEEEEKNS9_INS1_18scalar_constant_opIdEEKNS_5ArrayIdLin1ELin1ELi0ELin1ELin1EEEEEEESO_EESO_EESO_E3lhsEv, symObjAddr: 0x12B8C, symBinAddr: 0x100013598, symSize: 0x18 }
  - { offsetInCU: 0x895BA, offset: 0x895BA, size: 0x8, addend: 0x0, symName: __ZN5Eigen8internal9evaluatorIKNS_13CwiseBinaryOpINS0_17scalar_product_opIddEEKNS2_INS0_13scalar_sum_opIddEEKNS2_INS0_18scalar_quotient_opIddEEKNS_12ArrayWrapperIKNS_14CwiseNullaryOpINS0_16scalar_random_opIdEENS_6MatrixIdLin1ELin1ELi0ELin1ELin1EEEEEEEKNSA_INS0_18scalar_constant_opIdEEKNS_5ArrayIdLin1ELin1ELi0ELin1ELin1EEEEEEESP_EESP_EEEC1ERSV_, symObjAddr: 0x12BA4, symBinAddr: 0x1000135B0, symSize: 0x34 }
  - { offsetInCU: 0x895F2, offset: 0x895F2, size: 0x8, addend: 0x0, symName: __ZNK5Eigen13CwiseBinaryOpINS_8internal13scalar_sum_opIddEEKNS0_INS1_17scalar_product_opIddEEKNS0_IS3_KNS0_INS1_18scalar_quotient_opIddEEKNS_12ArrayWrapperIKNS_14CwiseNullaryOpINS1_16scalar_random_opIdEENS_6MatrixIdLin1ELin1ELi0ELin1ELin1EEEEEEEKNS9_INS1_18scalar_constant_opIdEEKNS_5ArrayIdLin1ELin1ELi0ELin1ELin1EEEEEEESO_EESO_EESO_E3rhsEv, symObjAddr: 0x12BD8, symBinAddr: 0x1000135E4, symSize: 0x18 }
  - { offsetInCU: 0x89618, offset: 0x89618, size: 0x8, addend: 0x0, symName: __ZN5Eigen8internal9evaluatorIKNS_14CwiseNullaryOpINS0_18scalar_constant_opIdEEKNS_5ArrayIdLin1ELin1ELi0ELin1ELin1EEEEEEC1ERS9_, symObjAddr: 0x12BF0, symBinAddr: 0x1000135FC, symSize: 0x34 }
  - { offsetInCU: 0x89650, offset: 0x89650, size: 0x8, addend: 0x0, symName: __ZN5Eigen8internal9evaluatorIKNS_13CwiseBinaryOpINS0_17scalar_product_opIddEEKNS2_INS0_13scalar_sum_opIddEEKNS2_INS0_18scalar_quotient_opIddEEKNS_12ArrayWrapperIKNS_14CwiseNullaryOpINS0_16scalar_random_opIdEENS_6MatrixIdLin1ELin1ELi0ELin1ELin1EEEEEEEKNSA_INS0_18scalar_constant_opIdEEKNS_5ArrayIdLin1ELin1ELi0ELin1ELin1EEEEEEESP_EESP_EEED1Ev, symObjAddr: 0x12C24, symBinAddr: 0x100013630, symSize: 0x2C }
  - { offsetInCU: 0x8967C, offset: 0x8967C, size: 0x8, addend: 0x0, symName: __ZN5Eigen8internal9evaluatorIKNS_13CwiseBinaryOpINS0_17scalar_product_opIddEEKNS2_INS0_13scalar_sum_opIddEEKNS2_INS0_18scalar_quotient_opIddEEKNS_12ArrayWrapperIKNS_14CwiseNullaryOpINS0_16scalar_random_opIdEENS_6MatrixIdLin1ELin1ELi0ELin1ELin1EEEEEEEKNSA_INS0_18scalar_constant_opIdEEKNS_5ArrayIdLin1ELin1ELi0ELin1ELin1EEEEEEESP_EESP_EEEC2ERSV_, symObjAddr: 0x12C50, symBinAddr: 0x10001365C, symSize: 0x34 }
  - { offsetInCU: 0x896B4, offset: 0x896B4, size: 0x8, addend: 0x0, symName: __ZN5Eigen8internal9evaluatorINS_13CwiseBinaryOpINS0_17scalar_product_opIddEEKNS2_INS0_13scalar_sum_opIddEEKNS2_INS0_18scalar_quotient_opIddEEKNS_12ArrayWrapperIKNS_14CwiseNullaryOpINS0_16scalar_random_opIdEENS_6MatrixIdLin1ELin1ELi0ELin1ELin1EEEEEEEKNSA_INS0_18scalar_constant_opIdEEKNS_5ArrayIdLin1ELin1ELi0ELin1ELin1EEEEEEESP_EESP_EEEC2ERKSU_, symObjAddr: 0x12C84, symBinAddr: 0x100013690, symSize: 0x34 }
  - { offsetInCU: 0x896ED, offset: 0x896ED, size: 0x8, addend: 0x0, symName: __ZN5Eigen8internal16binary_evaluatorINS_13CwiseBinaryOpINS0_17scalar_product_opIddEEKNS2_INS0_13scalar_sum_opIddEEKNS2_INS0_18scalar_quotient_opIddEEKNS_12ArrayWrapperIKNS_14CwiseNullaryOpINS0_16scalar_random_opIdEENS_6MatrixIdLin1ELin1ELi0ELin1ELin1EEEEEEEKNSA_INS0_18scalar_constant_opIdEEKNS_5ArrayIdLin1ELin1ELi0ELin1ELin1EEEEEEESP_EESP_EENS0_10IndexBasedESV_ddEC2ERKSU_, symObjAddr: 0x12CB8, symBinAddr: 0x1000136C4, symSize: 0x64 }
  - { offsetInCU: 0x89726, offset: 0x89726, size: 0x8, addend: 0x0, symName: __ZN5Eigen8internal14evaluator_baseINS_13CwiseBinaryOpINS0_17scalar_product_opIddEEKNS2_INS0_13scalar_sum_opIddEEKNS2_INS0_18scalar_quotient_opIddEEKNS_12ArrayWrapperIKNS_14CwiseNullaryOpINS0_16scalar_random_opIdEENS_6MatrixIdLin1ELin1ELi0ELin1ELin1EEEEEEEKNSA_INS0_18scalar_constant_opIdEEKNS_5ArrayIdLin1ELin1ELi0ELin1ELin1EEEEEEESP_EESP_EEEC2Ev, symObjAddr: 0x12D1C, symBinAddr: 0x100013728, symSize: 0x14 }
  - { offsetInCU: 0x89750, offset: 0x89750, size: 0x8, addend: 0x0, symName: __ZN5Eigen8internal16binary_evaluatorINS_13CwiseBinaryOpINS0_17scalar_product_opIddEEKNS2_INS0_13scalar_sum_opIddEEKNS2_INS0_18scalar_quotient_opIddEEKNS_12ArrayWrapperIKNS_14CwiseNullaryOpINS0_16scalar_random_opIdEENS_6MatrixIdLin1ELin1ELi0ELin1ELin1EEEEEEEKNSA_INS0_18scalar_constant_opIdEEKNS_5ArrayIdLin1ELin1ELi0ELin1ELin1EEEEEEESP_EESP_EENS0_10IndexBasedESV_ddE4DataC1ERKSU_, symObjAddr: 0x12D30, symBinAddr: 0x10001373C, symSize: 0x34 }
  - { offsetInCU: 0x89789, offset: 0x89789, size: 0x8, addend: 0x0, symName: __ZN5Eigen8internal14evaluator_baseINS_13CwiseBinaryOpINS0_17scalar_product_opIddEEKNS2_INS0_13scalar_sum_opIddEEKNS2_INS0_18scalar_quotient_opIddEEKNS_12ArrayWrapperIKNS_14CwiseNullaryOpINS0_16scalar_random_opIdEENS_6MatrixIdLin1ELin1ELi0ELin1ELin1EEEEEEEKNSA_INS0_18scalar_constant_opIdEEKNS_5ArrayIdLin1ELin1ELi0ELin1ELin1EEEEEEESP_EESP_EEED2Ev, symObjAddr: 0x12D64, symBinAddr: 0x100013770, symSize: 0x14 }
  - { offsetInCU: 0x897B3, offset: 0x897B3, size: 0x8, addend: 0x0, symName: __ZN5Eigen8internal16binary_evaluatorINS_13CwiseBinaryOpINS0_17scalar_product_opIddEEKNS2_INS0_13scalar_sum_opIddEEKNS2_INS0_18scalar_quotient_opIddEEKNS_12ArrayWrapperIKNS_14CwiseNullaryOpINS0_16scalar_random_opIdEENS_6MatrixIdLin1ELin1ELi0ELin1ELin1EEEEEEEKNSA_INS0_18scalar_constant_opIdEEKNS_5ArrayIdLin1ELin1ELi0ELin1ELin1EEEEEEESP_EESP_EENS0_10IndexBasedESV_ddE4DataC2ERKSU_, symObjAddr: 0x12D78, symBinAddr: 0x100013784, symSize: 0xA8 }
  - { offsetInCU: 0x897EC, offset: 0x897EC, size: 0x8, addend: 0x0, symName: __ZNK5Eigen13CwiseBinaryOpINS_8internal17scalar_product_opIddEEKNS0_INS1_13scalar_sum_opIddEEKNS0_INS1_18scalar_quotient_opIddEEKNS_12ArrayWrapperIKNS_14CwiseNullaryOpINS1_16scalar_random_opIdEENS_6MatrixIdLin1ELin1ELi0ELin1ELin1EEEEEEEKNS9_INS1_18scalar_constant_opIdEEKNS_5ArrayIdLin1ELin1ELi0ELin1ELin1EEEEEEESO_EESO_E7functorEv, symObjAddr: 0x12E20, symBinAddr: 0x10001382C, symSize: 0x18 }
  - { offsetInCU: 0x89812, offset: 0x89812, size: 0x8, addend: 0x0, symName: __ZNK5Eigen13CwiseBinaryOpINS_8internal17scalar_product_opIddEEKNS0_INS1_13scalar_sum_opIddEEKNS0_INS1_18scalar_quotient_opIddEEKNS_12ArrayWrapperIKNS_14CwiseNullaryOpINS1_16scalar_random_opIdEENS_6MatrixIdLin1ELin1ELi0ELin1ELin1EEEEEEEKNS9_INS1_18scalar_constant_opIdEEKNS_5ArrayIdLin1ELin1ELi0ELin1ELin1EEEEEEESO_EESO_E3lhsEv, symObjAddr: 0x12E38, symBinAddr: 0x100013844, symSize: 0x18 }
  - { offsetInCU: 0x89838, offset: 0x89838, size: 0x8, addend: 0x0, symName: __ZN5Eigen8internal9evaluatorIKNS_13CwiseBinaryOpINS0_13scalar_sum_opIddEEKNS2_INS0_18scalar_quotient_opIddEEKNS_12ArrayWrapperIKNS_14CwiseNullaryOpINS0_16scalar_random_opIdEENS_6MatrixIdLin1ELin1ELi0ELin1ELin1EEEEEEEKNS8_INS0_18scalar_constant_opIdEEKNS_5ArrayIdLin1ELin1ELi0ELin1ELin1EEEEEEESN_EEEC1ERSR_, symObjAddr: 0x12E50, symBinAddr: 0x10001385C, symSize: 0x34 }
  - { offsetInCU: 0x89870, offset: 0x89870, size: 0x8, addend: 0x0, symName: __ZNK5Eigen13CwiseBinaryOpINS_8internal17scalar_product_opIddEEKNS0_INS1_13scalar_sum_opIddEEKNS0_INS1_18scalar_quotient_opIddEEKNS_12ArrayWrapperIKNS_14CwiseNullaryOpINS1_16scalar_random_opIdEENS_6MatrixIdLin1ELin1ELi0ELin1ELin1EEEEEEEKNS9_INS1_18scalar_constant_opIdEEKNS_5ArrayIdLin1ELin1ELi0ELin1ELin1EEEEEEESO_EESO_E3rhsEv, symObjAddr: 0x12E84, symBinAddr: 0x100013890, symSize: 0x18 }
  - { offsetInCU: 0x89896, offset: 0x89896, size: 0x8, addend: 0x0, symName: __ZN5Eigen8internal9evaluatorIKNS_13CwiseBinaryOpINS0_13scalar_sum_opIddEEKNS2_INS0_18scalar_quotient_opIddEEKNS_12ArrayWrapperIKNS_14CwiseNullaryOpINS0_16scalar_random_opIdEENS_6MatrixIdLin1ELin1ELi0ELin1ELin1EEEEEEEKNS8_INS0_18scalar_constant_opIdEEKNS_5ArrayIdLin1ELin1ELi0ELin1ELin1EEEEEEESN_EEED1Ev, symObjAddr: 0x12E9C, symBinAddr: 0x1000138A8, symSize: 0x2C }
  - { offsetInCU: 0x898C2, offset: 0x898C2, size: 0x8, addend: 0x0, symName: __ZN5Eigen8internal9evaluatorIKNS_13CwiseBinaryOpINS0_13scalar_sum_opIddEEKNS2_INS0_18scalar_quotient_opIddEEKNS_12ArrayWrapperIKNS_14CwiseNullaryOpINS0_16scalar_random_opIdEENS_6MatrixIdLin1ELin1ELi0ELin1ELin1EEEEEEEKNS8_INS0_18scalar_constant_opIdEEKNS_5ArrayIdLin1ELin1ELi0ELin1ELin1EEEEEEESN_EEEC2ERSR_, symObjAddr: 0x12EC8, symBinAddr: 0x1000138D4, symSize: 0x34 }
  - { offsetInCU: 0x898FA, offset: 0x898FA, size: 0x8, addend: 0x0, symName: __ZN5Eigen8internal9evaluatorINS_13CwiseBinaryOpINS0_13scalar_sum_opIddEEKNS2_INS0_18scalar_quotient_opIddEEKNS_12ArrayWrapperIKNS_14CwiseNullaryOpINS0_16scalar_random_opIdEENS_6MatrixIdLin1ELin1ELi0ELin1ELin1EEEEEEEKNS8_INS0_18scalar_constant_opIdEEKNS_5ArrayIdLin1ELin1ELi0ELin1ELin1EEEEEEESN_EEEC2ERKSQ_, symObjAddr: 0x12EFC, symBinAddr: 0x100013908, symSize: 0x34 }
  - { offsetInCU: 0x89933, offset: 0x89933, size: 0x8, addend: 0x0, symName: __ZN5Eigen8internal16binary_evaluatorINS_13CwiseBinaryOpINS0_13scalar_sum_opIddEEKNS2_INS0_18scalar_quotient_opIddEEKNS_12ArrayWrapperIKNS_14CwiseNullaryOpINS0_16scalar_random_opIdEENS_6MatrixIdLin1ELin1ELi0ELin1ELin1EEEEEEEKNS8_INS0_18scalar_constant_opIdEEKNS_5ArrayIdLin1ELin1ELi0ELin1ELin1EEEEEEESN_EENS0_10IndexBasedESR_ddEC2ERKSQ_, symObjAddr: 0x12F30, symBinAddr: 0x10001393C, symSize: 0x64 }
  - { offsetInCU: 0x8996C, offset: 0x8996C, size: 0x8, addend: 0x0, symName: __ZN5Eigen8internal14evaluator_baseINS_13CwiseBinaryOpINS0_13scalar_sum_opIddEEKNS2_INS0_18scalar_quotient_opIddEEKNS_12ArrayWrapperIKNS_14CwiseNullaryOpINS0_16scalar_random_opIdEENS_6MatrixIdLin1ELin1ELi0ELin1ELin1EEEEEEEKNS8_INS0_18scalar_constant_opIdEEKNS_5ArrayIdLin1ELin1ELi0ELin1ELin1EEEEEEESN_EEEC2Ev, symObjAddr: 0x12F94, symBinAddr: 0x1000139A0, symSize: 0x14 }
  - { offsetInCU: 0x89996, offset: 0x89996, size: 0x8, addend: 0x0, symName: __ZN5Eigen8internal16binary_evaluatorINS_13CwiseBinaryOpINS0_13scalar_sum_opIddEEKNS2_INS0_18scalar_quotient_opIddEEKNS_12ArrayWrapperIKNS_14CwiseNullaryOpINS0_16scalar_random_opIdEENS_6MatrixIdLin1ELin1ELi0ELin1ELin1EEEEEEEKNS8_INS0_18scalar_constant_opIdEEKNS_5ArrayIdLin1ELin1ELi0ELin1ELin1EEEEEEESN_EENS0_10IndexBasedESR_ddE4DataC1ERKSQ_, symObjAddr: 0x12FA8, symBinAddr: 0x1000139B4, symSize: 0x34 }
  - { offsetInCU: 0x899CF, offset: 0x899CF, size: 0x8, addend: 0x0, symName: __ZN5Eigen8internal14evaluator_baseINS_13CwiseBinaryOpINS0_13scalar_sum_opIddEEKNS2_INS0_18scalar_quotient_opIddEEKNS_12ArrayWrapperIKNS_14CwiseNullaryOpINS0_16scalar_random_opIdEENS_6MatrixIdLin1ELin1ELi0ELin1ELin1EEEEEEEKNS8_INS0_18scalar_constant_opIdEEKNS_5ArrayIdLin1ELin1ELi0ELin1ELin1EEEEEEESN_EEED2Ev, symObjAddr: 0x12FDC, symBinAddr: 0x1000139E8, symSize: 0x14 }
  - { offsetInCU: 0x899F9, offset: 0x899F9, size: 0x8, addend: 0x0, symName: __ZN5Eigen8internal16binary_evaluatorINS_13CwiseBinaryOpINS0_13scalar_sum_opIddEEKNS2_INS0_18scalar_quotient_opIddEEKNS_12ArrayWrapperIKNS_14CwiseNullaryOpINS0_16scalar_random_opIdEENS_6MatrixIdLin1ELin1ELi0ELin1ELin1EEEEEEEKNS8_INS0_18scalar_constant_opIdEEKNS_5ArrayIdLin1ELin1ELi0ELin1ELin1EEEEEEESN_EENS0_10IndexBasedESR_ddE4DataC2ERKSQ_, symObjAddr: 0x12FF0, symBinAddr: 0x1000139FC, symSize: 0xA8 }
  - { offsetInCU: 0x89A32, offset: 0x89A32, size: 0x8, addend: 0x0, symName: __ZNK5Eigen13CwiseBinaryOpINS_8internal13scalar_sum_opIddEEKNS0_INS1_18scalar_quotient_opIddEEKNS_12ArrayWrapperIKNS_14CwiseNullaryOpINS1_16scalar_random_opIdEENS_6MatrixIdLin1ELin1ELi0ELin1ELin1EEEEEEEKNS7_INS1_18scalar_constant_opIdEEKNS_5ArrayIdLin1ELin1ELi0ELin1ELin1EEEEEEESM_E7functorEv, symObjAddr: 0x13098, symBinAddr: 0x100013AA4, symSize: 0x18 }
  - { offsetInCU: 0x89A58, offset: 0x89A58, size: 0x8, addend: 0x0, symName: __ZNK5Eigen13CwiseBinaryOpINS_8internal13scalar_sum_opIddEEKNS0_INS1_18scalar_quotient_opIddEEKNS_12ArrayWrapperIKNS_14CwiseNullaryOpINS1_16scalar_random_opIdEENS_6MatrixIdLin1ELin1ELi0ELin1ELin1EEEEEEEKNS7_INS1_18scalar_constant_opIdEEKNS_5ArrayIdLin1ELin1ELi0ELin1ELin1EEEEEEESM_E3lhsEv, symObjAddr: 0x130B0, symBinAddr: 0x100013ABC, symSize: 0x18 }
  - { offsetInCU: 0x89A7E, offset: 0x89A7E, size: 0x8, addend: 0x0, symName: __ZN5Eigen8internal9evaluatorIKNS_13CwiseBinaryOpINS0_18scalar_quotient_opIddEEKNS_12ArrayWrapperIKNS_14CwiseNullaryOpINS0_16scalar_random_opIdEENS_6MatrixIdLin1ELin1ELi0ELin1ELin1EEEEEEEKNS6_INS0_18scalar_constant_opIdEEKNS_5ArrayIdLin1ELin1ELi0ELin1ELin1EEEEEEEEC1ERSN_, symObjAddr: 0x130C8, symBinAddr: 0x100013AD4, symSize: 0x34 }
  - { offsetInCU: 0x89AB6, offset: 0x89AB6, size: 0x8, addend: 0x0, symName: __ZNK5Eigen13CwiseBinaryOpINS_8internal13scalar_sum_opIddEEKNS0_INS1_18scalar_quotient_opIddEEKNS_12ArrayWrapperIKNS_14CwiseNullaryOpINS1_16scalar_random_opIdEENS_6MatrixIdLin1ELin1ELi0ELin1ELin1EEEEEEEKNS7_INS1_18scalar_constant_opIdEEKNS_5ArrayIdLin1ELin1ELi0ELin1ELin1EEEEEEESM_E3rhsEv, symObjAddr: 0x130FC, symBinAddr: 0x100013B08, symSize: 0x18 }
  - { offsetInCU: 0x89ADC, offset: 0x89ADC, size: 0x8, addend: 0x0, symName: __ZN5Eigen8internal9evaluatorIKNS_13CwiseBinaryOpINS0_18scalar_quotient_opIddEEKNS_12ArrayWrapperIKNS_14CwiseNullaryOpINS0_16scalar_random_opIdEENS_6MatrixIdLin1ELin1ELi0ELin1ELin1EEEEEEEKNS6_INS0_18scalar_constant_opIdEEKNS_5ArrayIdLin1ELin1ELi0ELin1ELin1EEEEEEEED1Ev, symObjAddr: 0x13114, symBinAddr: 0x100013B20, symSize: 0x2C }
  - { offsetInCU: 0x89B08, offset: 0x89B08, size: 0x8, addend: 0x0, symName: __ZN5Eigen8internal9evaluatorIKNS_13CwiseBinaryOpINS0_18scalar_quotient_opIddEEKNS_12ArrayWrapperIKNS_14CwiseNullaryOpINS0_16scalar_random_opIdEENS_6MatrixIdLin1ELin1ELi0ELin1ELin1EEEEEEEKNS6_INS0_18scalar_constant_opIdEEKNS_5ArrayIdLin1ELin1ELi0ELin1ELin1EEEEEEEEC2ERSN_, symObjAddr: 0x13140, symBinAddr: 0x100013B4C, symSize: 0x34 }
  - { offsetInCU: 0x89B40, offset: 0x89B40, size: 0x8, addend: 0x0, symName: __ZN5Eigen8internal9evaluatorINS_13CwiseBinaryOpINS0_18scalar_quotient_opIddEEKNS_12ArrayWrapperIKNS_14CwiseNullaryOpINS0_16scalar_random_opIdEENS_6MatrixIdLin1ELin1ELi0ELin1ELin1EEEEEEEKNS6_INS0_18scalar_constant_opIdEEKNS_5ArrayIdLin1ELin1ELi0ELin1ELin1EEEEEEEEC2ERKSM_, symObjAddr: 0x13174, symBinAddr: 0x100013B80, symSize: 0x34 }
  - { offsetInCU: 0x89B79, offset: 0x89B79, size: 0x8, addend: 0x0, symName: __ZN5Eigen8internal16binary_evaluatorINS_13CwiseBinaryOpINS0_18scalar_quotient_opIddEEKNS_12ArrayWrapperIKNS_14CwiseNullaryOpINS0_16scalar_random_opIdEENS_6MatrixIdLin1ELin1ELi0ELin1ELin1EEEEEEEKNS6_INS0_18scalar_constant_opIdEEKNS_5ArrayIdLin1ELin1ELi0ELin1ELin1EEEEEEENS0_10IndexBasedESN_ddEC2ERKSM_, symObjAddr: 0x131A8, symBinAddr: 0x100013BB4, symSize: 0x64 }
  - { offsetInCU: 0x89BB2, offset: 0x89BB2, size: 0x8, addend: 0x0, symName: __ZN5Eigen8internal14evaluator_baseINS_13CwiseBinaryOpINS0_18scalar_quotient_opIddEEKNS_12ArrayWrapperIKNS_14CwiseNullaryOpINS0_16scalar_random_opIdEENS_6MatrixIdLin1ELin1ELi0ELin1ELin1EEEEEEEKNS6_INS0_18scalar_constant_opIdEEKNS_5ArrayIdLin1ELin1ELi0ELin1ELin1EEEEEEEEC2Ev, symObjAddr: 0x1320C, symBinAddr: 0x100013C18, symSize: 0x14 }
  - { offsetInCU: 0x89BDC, offset: 0x89BDC, size: 0x8, addend: 0x0, symName: __ZN5Eigen8internal16binary_evaluatorINS_13CwiseBinaryOpINS0_18scalar_quotient_opIddEEKNS_12ArrayWrapperIKNS_14CwiseNullaryOpINS0_16scalar_random_opIdEENS_6MatrixIdLin1ELin1ELi0ELin1ELin1EEEEEEEKNS6_INS0_18scalar_constant_opIdEEKNS_5ArrayIdLin1ELin1ELi0ELin1ELin1EEEEEEENS0_10IndexBasedESN_ddE4DataC1ERKSM_, symObjAddr: 0x13220, symBinAddr: 0x100013C2C, symSize: 0x34 }
  - { offsetInCU: 0x89C15, offset: 0x89C15, size: 0x8, addend: 0x0, symName: __ZN5Eigen8internal14evaluator_baseINS_13CwiseBinaryOpINS0_18scalar_quotient_opIddEEKNS_12ArrayWrapperIKNS_14CwiseNullaryOpINS0_16scalar_random_opIdEENS_6MatrixIdLin1ELin1ELi0ELin1ELin1EEEEEEEKNS6_INS0_18scalar_constant_opIdEEKNS_5ArrayIdLin1ELin1ELi0ELin1ELin1EEEEEEEED2Ev, symObjAddr: 0x13254, symBinAddr: 0x100013C60, symSize: 0x14 }
  - { offsetInCU: 0x89C3F, offset: 0x89C3F, size: 0x8, addend: 0x0, symName: __ZN5Eigen8internal16binary_evaluatorINS_13CwiseBinaryOpINS0_18scalar_quotient_opIddEEKNS_12ArrayWrapperIKNS_14CwiseNullaryOpINS0_16scalar_random_opIdEENS_6MatrixIdLin1ELin1ELi0ELin1ELin1EEEEEEEKNS6_INS0_18scalar_constant_opIdEEKNS_5ArrayIdLin1ELin1ELi0ELin1ELin1EEEEEEENS0_10IndexBasedESN_ddE4DataC2ERKSM_, symObjAddr: 0x13268, symBinAddr: 0x100013C74, symSize: 0xA8 }
  - { offsetInCU: 0x89C78, offset: 0x89C78, size: 0x8, addend: 0x0, symName: __ZNK5Eigen13CwiseBinaryOpINS_8internal18scalar_quotient_opIddEEKNS_12ArrayWrapperIKNS_14CwiseNullaryOpINS1_16scalar_random_opIdEENS_6MatrixIdLin1ELin1ELi0ELin1ELin1EEEEEEEKNS5_INS1_18scalar_constant_opIdEEKNS_5ArrayIdLin1ELin1ELi0ELin1ELin1EEEEEE7functorEv, symObjAddr: 0x13310, symBinAddr: 0x100013D1C, symSize: 0x18 }
  - { offsetInCU: 0x89C9E, offset: 0x89C9E, size: 0x8, addend: 0x0, symName: __ZNK5Eigen13CwiseBinaryOpINS_8internal18scalar_quotient_opIddEEKNS_12ArrayWrapperIKNS_14CwiseNullaryOpINS1_16scalar_random_opIdEENS_6MatrixIdLin1ELin1ELi0ELin1ELin1EEEEEEEKNS5_INS1_18scalar_constant_opIdEEKNS_5ArrayIdLin1ELin1ELi0ELin1ELin1EEEEEE3lhsEv, symObjAddr: 0x13328, symBinAddr: 0x100013D34, symSize: 0x18 }
  - { offsetInCU: 0x89CC4, offset: 0x89CC4, size: 0x8, addend: 0x0, symName: __ZN5Eigen8internal9evaluatorIKNS_12ArrayWrapperIKNS_14CwiseNullaryOpINS0_16scalar_random_opIdEENS_6MatrixIdLin1ELin1ELi0ELin1ELin1EEEEEEEEC1ERSB_, symObjAddr: 0x13340, symBinAddr: 0x100013D4C, symSize: 0x34 }
  - { offsetInCU: 0x89CFC, offset: 0x89CFC, size: 0x8, addend: 0x0, symName: __ZNK5Eigen13CwiseBinaryOpINS_8internal18scalar_quotient_opIddEEKNS_12ArrayWrapperIKNS_14CwiseNullaryOpINS1_16scalar_random_opIdEENS_6MatrixIdLin1ELin1ELi0ELin1ELin1EEEEEEEKNS5_INS1_18scalar_constant_opIdEEKNS_5ArrayIdLin1ELin1ELi0ELin1ELin1EEEEEE3rhsEv, symObjAddr: 0x13374, symBinAddr: 0x100013D80, symSize: 0x18 }
  - { offsetInCU: 0x89D22, offset: 0x89D22, size: 0x8, addend: 0x0, symName: __ZN5Eigen8internal9evaluatorIKNS_12ArrayWrapperIKNS_14CwiseNullaryOpINS0_16scalar_random_opIdEENS_6MatrixIdLin1ELin1ELi0ELin1ELin1EEEEEEEED1Ev, symObjAddr: 0x1338C, symBinAddr: 0x100013D98, symSize: 0x2C }
  - { offsetInCU: 0x89D4E, offset: 0x89D4E, size: 0x8, addend: 0x0, symName: __ZN5Eigen8internal9evaluatorIKNS_12ArrayWrapperIKNS_14CwiseNullaryOpINS0_16scalar_random_opIdEENS_6MatrixIdLin1ELin1ELi0ELin1ELin1EEEEEEEEC2ERSB_, symObjAddr: 0x133B8, symBinAddr: 0x100013DC4, symSize: 0x34 }
  - { offsetInCU: 0x89D86, offset: 0x89D86, size: 0x8, addend: 0x0, symName: __ZN5Eigen8internal9evaluatorINS_12ArrayWrapperIKNS_14CwiseNullaryOpINS0_16scalar_random_opIdEENS_6MatrixIdLin1ELin1ELi0ELin1ELin1EEEEEEEEC2ERKSA_, symObjAddr: 0x133EC, symBinAddr: 0x100013DF8, symSize: 0x34 }
  - { offsetInCU: 0x89DBE, offset: 0x89DBE, size: 0x8, addend: 0x0, symName: __ZN5Eigen8internal15unary_evaluatorINS_12ArrayWrapperIKNS_14CwiseNullaryOpINS0_16scalar_random_opIdEENS_6MatrixIdLin1ELin1ELi0ELin1ELin1EEEEEEENS0_10IndexBasedEdEC2ERKSA_, symObjAddr: 0x13420, symBinAddr: 0x100013E2C, symSize: 0x40 }
  - { offsetInCU: 0x89DF7, offset: 0x89DF7, size: 0x8, addend: 0x0, symName: __ZNK5Eigen12ArrayWrapperIKNS_14CwiseNullaryOpINS_8internal16scalar_random_opIdEENS_6MatrixIdLin1ELin1ELi0ELin1ELin1EEEEEE16nestedExpressionEv, symObjAddr: 0x13460, symBinAddr: 0x100013E6C, symSize: 0x14 }
  - { offsetInCU: 0x89E1D, offset: 0x89E1D, size: 0x8, addend: 0x0, symName: __ZN5Eigen8internal22evaluator_wrapper_baseINS_12ArrayWrapperIKNS_14CwiseNullaryOpINS0_16scalar_random_opIdEENS_6MatrixIdLin1ELin1ELi0ELin1ELin1EEEEEEEEC2ERS9_, symObjAddr: 0x13474, symBinAddr: 0x100013E80, symSize: 0x64 }
  - { offsetInCU: 0x89E56, offset: 0x89E56, size: 0x8, addend: 0x0, symName: __ZN5Eigen8internal14evaluator_baseINS_12ArrayWrapperIKNS_14CwiseNullaryOpINS0_16scalar_random_opIdEENS_6MatrixIdLin1ELin1ELi0ELin1ELin1EEEEEEEEC2Ev, symObjAddr: 0x134D8, symBinAddr: 0x100013EE4, symSize: 0x14 }
  - { offsetInCU: 0x89E80, offset: 0x89E80, size: 0x8, addend: 0x0, symName: __ZN5Eigen8internal9evaluatorINS_14CwiseNullaryOpINS0_16scalar_random_opIdEENS_6MatrixIdLin1ELin1ELi0ELin1ELin1EEEEEEC1ERKS7_, symObjAddr: 0x134EC, symBinAddr: 0x100013EF8, symSize: 0x34 }
  - { offsetInCU: 0x89EB9, offset: 0x89EB9, size: 0x8, addend: 0x0, symName: __ZN5Eigen8internal14evaluator_baseINS_12ArrayWrapperIKNS_14CwiseNullaryOpINS0_16scalar_random_opIdEENS_6MatrixIdLin1ELin1ELi0ELin1ELin1EEEEEEEED2Ev, symObjAddr: 0x13520, symBinAddr: 0x100013F2C, symSize: 0x14 }
  - { offsetInCU: 0x89EE3, offset: 0x89EE3, size: 0x8, addend: 0x0, symName: __ZN5Eigen8internal9evaluatorINS_14CwiseNullaryOpINS0_16scalar_random_opIdEENS_6MatrixIdLin1ELin1ELi0ELin1ELin1EEEEEEC2ERKS7_, symObjAddr: 0x13534, symBinAddr: 0x100013F40, symSize: 0x74 }
  - { offsetInCU: 0x89F1C, offset: 0x89F1C, size: 0x8, addend: 0x0, symName: __ZN5Eigen8internal14evaluator_baseINS_14CwiseNullaryOpINS0_16scalar_random_opIdEENS_6MatrixIdLin1ELin1ELi0ELin1ELin1EEEEEEC2Ev, symObjAddr: 0x135A8, symBinAddr: 0x100013FB4, symSize: 0x14 }
  - { offsetInCU: 0x89F46, offset: 0x89F46, size: 0x8, addend: 0x0, symName: __ZNK5Eigen14CwiseNullaryOpINS_8internal16scalar_random_opIdEENS_6MatrixIdLin1ELin1ELi0ELin1ELin1EEEE7functorEv, symObjAddr: 0x135BC, symBinAddr: 0x100013FC8, symSize: 0x18 }
  - { offsetInCU: 0x89F6C, offset: 0x89F6C, size: 0x8, addend: 0x0, symName: __ZN5Eigen8internal14evaluator_baseINS_14CwiseNullaryOpINS0_16scalar_random_opIdEENS_6MatrixIdLin1ELin1ELi0ELin1ELin1EEEEEED2Ev, symObjAddr: 0x135D4, symBinAddr: 0x100013FE0, symSize: 0x14 }
  - { offsetInCU: 0x89F96, offset: 0x89F96, size: 0x8, addend: 0x0, symName: __ZN5Eigen8internal9evaluatorIKNS_12ArrayWrapperIKNS_14CwiseNullaryOpINS0_16scalar_random_opIdEENS_6MatrixIdLin1ELin1ELi0ELin1ELin1EEEEEEEED2Ev, symObjAddr: 0x135E8, symBinAddr: 0x100013FF4, symSize: 0x2C }
  - { offsetInCU: 0x89FC2, offset: 0x89FC2, size: 0x8, addend: 0x0, symName: __ZN5Eigen8internal9evaluatorINS_12ArrayWrapperIKNS_14CwiseNullaryOpINS0_16scalar_random_opIdEENS_6MatrixIdLin1ELin1ELi0ELin1ELin1EEEEEEEED2Ev, symObjAddr: 0x13614, symBinAddr: 0x100014020, symSize: 0x2C }
  - { offsetInCU: 0x89FEE, offset: 0x89FEE, size: 0x8, addend: 0x0, symName: __ZN5Eigen8internal15unary_evaluatorINS_12ArrayWrapperIKNS_14CwiseNullaryOpINS0_16scalar_random_opIdEENS_6MatrixIdLin1ELin1ELi0ELin1ELin1EEEEEEENS0_10IndexBasedEdED2Ev, symObjAddr: 0x13640, symBinAddr: 0x10001404C, symSize: 0x2C }
  - { offsetInCU: 0x8A01B, offset: 0x8A01B, size: 0x8, addend: 0x0, symName: __ZN5Eigen8internal22evaluator_wrapper_baseINS_12ArrayWrapperIKNS_14CwiseNullaryOpINS0_16scalar_random_opIdEENS_6MatrixIdLin1ELin1ELi0ELin1ELin1EEEEEEEED2Ev, symObjAddr: 0x1366C, symBinAddr: 0x100014078, symSize: 0x34 }
  - { offsetInCU: 0x8A048, offset: 0x8A048, size: 0x8, addend: 0x0, symName: __ZN5Eigen8internal9evaluatorINS_14CwiseNullaryOpINS0_16scalar_random_opIdEENS_6MatrixIdLin1ELin1ELi0ELin1ELin1EEEEEED1Ev, symObjAddr: 0x136A0, symBinAddr: 0x1000140AC, symSize: 0x2C }
  - { offsetInCU: 0x8A074, offset: 0x8A074, size: 0x8, addend: 0x0, symName: __ZN5Eigen8internal9evaluatorINS_14CwiseNullaryOpINS0_16scalar_random_opIdEENS_6MatrixIdLin1ELin1ELi0ELin1ELin1EEEEEED2Ev, symObjAddr: 0x136CC, symBinAddr: 0x1000140D8, symSize: 0x2C }
  - { offsetInCU: 0x8A0A0, offset: 0x8A0A0, size: 0x8, addend: 0x0, symName: __ZN5Eigen8internal9evaluatorIKNS_13CwiseBinaryOpINS0_18scalar_quotient_opIddEEKNS_12ArrayWrapperIKNS_14CwiseNullaryOpINS0_16scalar_random_opIdEENS_6MatrixIdLin1ELin1ELi0ELin1ELin1EEEEEEEKNS6_INS0_18scalar_constant_opIdEEKNS_5ArrayIdLin1ELin1ELi0ELin1ELin1EEEEEEEED2Ev, symObjAddr: 0x136F8, symBinAddr: 0x100014104, symSize: 0x2C }
  - { offsetInCU: 0x8A0CC, offset: 0x8A0CC, size: 0x8, addend: 0x0, symName: __ZN5Eigen8internal9evaluatorINS_13CwiseBinaryOpINS0_18scalar_quotient_opIddEEKNS_12ArrayWrapperIKNS_14CwiseNullaryOpINS0_16scalar_random_opIdEENS_6MatrixIdLin1ELin1ELi0ELin1ELin1EEEEEEEKNS6_INS0_18scalar_constant_opIdEEKNS_5ArrayIdLin1ELin1ELi0ELin1ELin1EEEEEEEED2Ev, symObjAddr: 0x13724, symBinAddr: 0x100014130, symSize: 0x2C }
  - { offsetInCU: 0x8A0F9, offset: 0x8A0F9, size: 0x8, addend: 0x0, symName: __ZN5Eigen8internal16binary_evaluatorINS_13CwiseBinaryOpINS0_18scalar_quotient_opIddEEKNS_12ArrayWrapperIKNS_14CwiseNullaryOpINS0_16scalar_random_opIdEENS_6MatrixIdLin1ELin1ELi0ELin1ELin1EEEEEEEKNS6_INS0_18scalar_constant_opIdEEKNS_5ArrayIdLin1ELin1ELi0ELin1ELin1EEEEEEENS0_10IndexBasedESN_ddED2Ev, symObjAddr: 0x13750, symBinAddr: 0x10001415C, symSize: 0x34 }
  - { offsetInCU: 0x8A125, offset: 0x8A125, size: 0x8, addend: 0x0, symName: __ZN5Eigen8internal16binary_evaluatorINS_13CwiseBinaryOpINS0_18scalar_quotient_opIddEEKNS_12ArrayWrapperIKNS_14CwiseNullaryOpINS0_16scalar_random_opIdEENS_6MatrixIdLin1ELin1ELi0ELin1ELin1EEEEEEEKNS6_INS0_18scalar_constant_opIdEEKNS_5ArrayIdLin1ELin1ELi0ELin1ELin1EEEEEEENS0_10IndexBasedESN_ddE4DataD1Ev, symObjAddr: 0x13784, symBinAddr: 0x100014190, symSize: 0x2C }
  - { offsetInCU: 0x8A152, offset: 0x8A152, size: 0x8, addend: 0x0, symName: __ZN5Eigen8internal16binary_evaluatorINS_13CwiseBinaryOpINS0_18scalar_quotient_opIddEEKNS_12ArrayWrapperIKNS_14CwiseNullaryOpINS0_16scalar_random_opIdEENS_6MatrixIdLin1ELin1ELi0ELin1ELin1EEEEEEEKNS6_INS0_18scalar_constant_opIdEEKNS_5ArrayIdLin1ELin1ELi0ELin1ELin1EEEEEEENS0_10IndexBasedESN_ddE4DataD2Ev, symObjAddr: 0x137B0, symBinAddr: 0x1000141BC, symSize: 0x3C }
  - { offsetInCU: 0x8A17F, offset: 0x8A17F, size: 0x8, addend: 0x0, symName: __ZN5Eigen8internal9evaluatorIKNS_14CwiseNullaryOpINS0_18scalar_constant_opIdEEKNS_5ArrayIdLin1ELin1ELi0ELin1ELin1EEEEEED1Ev, symObjAddr: 0x137EC, symBinAddr: 0x1000141F8, symSize: 0x2C }
  - { offsetInCU: 0x8A1AB, offset: 0x8A1AB, size: 0x8, addend: 0x0, symName: __ZN5Eigen8internal9evaluatorIKNS_14CwiseNullaryOpINS0_18scalar_constant_opIdEEKNS_5ArrayIdLin1ELin1ELi0ELin1ELin1EEEEEED2Ev, symObjAddr: 0x13818, symBinAddr: 0x100014224, symSize: 0x2C }
  - { offsetInCU: 0x8A1D7, offset: 0x8A1D7, size: 0x8, addend: 0x0, symName: __ZN5Eigen8internal9evaluatorINS_14CwiseNullaryOpINS0_18scalar_constant_opIdEEKNS_5ArrayIdLin1ELin1ELi0ELin1ELin1EEEEEED2Ev, symObjAddr: 0x13844, symBinAddr: 0x100014250, symSize: 0x2C }
  - { offsetInCU: 0x8A203, offset: 0x8A203, size: 0x8, addend: 0x0, symName: __ZN5Eigen8internal14evaluator_baseINS_14CwiseNullaryOpINS0_18scalar_constant_opIdEEKNS_5ArrayIdLin1ELin1ELi0ELin1ELin1EEEEEED2Ev, symObjAddr: 0x13870, symBinAddr: 0x10001427C, symSize: 0x14 }
  - { offsetInCU: 0x8A22D, offset: 0x8A22D, size: 0x8, addend: 0x0, symName: __ZN5Eigen8internal9evaluatorIKNS_13CwiseBinaryOpINS0_13scalar_sum_opIddEEKNS2_INS0_18scalar_quotient_opIddEEKNS_12ArrayWrapperIKNS_14CwiseNullaryOpINS0_16scalar_random_opIdEENS_6MatrixIdLin1ELin1ELi0ELin1ELin1EEEEEEEKNS8_INS0_18scalar_constant_opIdEEKNS_5ArrayIdLin1ELin1ELi0ELin1ELin1EEEEEEESN_EEED2Ev, symObjAddr: 0x13884, symBinAddr: 0x100014290, symSize: 0x2C }
  - { offsetInCU: 0x8A259, offset: 0x8A259, size: 0x8, addend: 0x0, symName: __ZN5Eigen8internal9evaluatorINS_13CwiseBinaryOpINS0_13scalar_sum_opIddEEKNS2_INS0_18scalar_quotient_opIddEEKNS_12ArrayWrapperIKNS_14CwiseNullaryOpINS0_16scalar_random_opIdEENS_6MatrixIdLin1ELin1ELi0ELin1ELin1EEEEEEEKNS8_INS0_18scalar_constant_opIdEEKNS_5ArrayIdLin1ELin1ELi0ELin1ELin1EEEEEEESN_EEED2Ev, symObjAddr: 0x138B0, symBinAddr: 0x1000142BC, symSize: 0x2C }
  - { offsetInCU: 0x8A286, offset: 0x8A286, size: 0x8, addend: 0x0, symName: __ZN5Eigen8internal16binary_evaluatorINS_13CwiseBinaryOpINS0_13scalar_sum_opIddEEKNS2_INS0_18scalar_quotient_opIddEEKNS_12ArrayWrapperIKNS_14CwiseNullaryOpINS0_16scalar_random_opIdEENS_6MatrixIdLin1ELin1ELi0ELin1ELin1EEEEEEEKNS8_INS0_18scalar_constant_opIdEEKNS_5ArrayIdLin1ELin1ELi0ELin1ELin1EEEEEEESN_EENS0_10IndexBasedESR_ddED2Ev, symObjAddr: 0x138DC, symBinAddr: 0x1000142E8, symSize: 0x34 }
  - { offsetInCU: 0x8A2B2, offset: 0x8A2B2, size: 0x8, addend: 0x0, symName: __ZN5Eigen8internal16binary_evaluatorINS_13CwiseBinaryOpINS0_13scalar_sum_opIddEEKNS2_INS0_18scalar_quotient_opIddEEKNS_12ArrayWrapperIKNS_14CwiseNullaryOpINS0_16scalar_random_opIdEENS_6MatrixIdLin1ELin1ELi0ELin1ELin1EEEEEEEKNS8_INS0_18scalar_constant_opIdEEKNS_5ArrayIdLin1ELin1ELi0ELin1ELin1EEEEEEESN_EENS0_10IndexBasedESR_ddE4DataD1Ev, symObjAddr: 0x13910, symBinAddr: 0x10001431C, symSize: 0x2C }
  - { offsetInCU: 0x8A2DF, offset: 0x8A2DF, size: 0x8, addend: 0x0, symName: __ZN5Eigen8internal16binary_evaluatorINS_13CwiseBinaryOpINS0_13scalar_sum_opIddEEKNS2_INS0_18scalar_quotient_opIddEEKNS_12ArrayWrapperIKNS_14CwiseNullaryOpINS0_16scalar_random_opIdEENS_6MatrixIdLin1ELin1ELi0ELin1ELin1EEEEEEEKNS8_INS0_18scalar_constant_opIdEEKNS_5ArrayIdLin1ELin1ELi0ELin1ELin1EEEEEEESN_EENS0_10IndexBasedESR_ddE4DataD2Ev, symObjAddr: 0x1393C, symBinAddr: 0x100014348, symSize: 0x3C }
  - { offsetInCU: 0x8A30C, offset: 0x8A30C, size: 0x8, addend: 0x0, symName: __ZN5Eigen8internal9evaluatorIKNS_14CwiseNullaryOpINS0_18scalar_constant_opIdEEKNS_5ArrayIdLin1ELin1ELi0ELin1ELin1EEEEEEC2ERS9_, symObjAddr: 0x13978, symBinAddr: 0x100014384, symSize: 0x34 }
  - { offsetInCU: 0x8A344, offset: 0x8A344, size: 0x8, addend: 0x0, symName: __ZN5Eigen8internal9evaluatorINS_14CwiseNullaryOpINS0_18scalar_constant_opIdEEKNS_5ArrayIdLin1ELin1ELi0ELin1ELin1EEEEEEC2ERKS8_, symObjAddr: 0x139AC, symBinAddr: 0x1000143B8, symSize: 0x74 }
  - { offsetInCU: 0x8A37D, offset: 0x8A37D, size: 0x8, addend: 0x0, symName: __ZN5Eigen8internal14evaluator_baseINS_14CwiseNullaryOpINS0_18scalar_constant_opIdEEKNS_5ArrayIdLin1ELin1ELi0ELin1ELin1EEEEEEC2Ev, symObjAddr: 0x13A20, symBinAddr: 0x10001442C, symSize: 0x14 }
  - { offsetInCU: 0x8A3A7, offset: 0x8A3A7, size: 0x8, addend: 0x0, symName: __ZNK5Eigen14CwiseNullaryOpINS_8internal18scalar_constant_opIdEEKNS_5ArrayIdLin1ELin1ELi0ELin1ELin1EEEE7functorEv, symObjAddr: 0x13A34, symBinAddr: 0x100014440, symSize: 0x18 }
  - { offsetInCU: 0x8A3CD, offset: 0x8A3CD, size: 0x8, addend: 0x0, symName: __ZN5Eigen8internal9evaluatorIKNS_13CwiseBinaryOpINS0_17scalar_product_opIddEEKNS2_INS0_13scalar_sum_opIddEEKNS2_INS0_18scalar_quotient_opIddEEKNS_12ArrayWrapperIKNS_14CwiseNullaryOpINS0_16scalar_random_opIdEENS_6MatrixIdLin1ELin1ELi0ELin1ELin1EEEEEEEKNSA_INS0_18scalar_constant_opIdEEKNS_5ArrayIdLin1ELin1ELi0ELin1ELin1EEEEEEESP_EESP_EEED2Ev, symObjAddr: 0x13A4C, symBinAddr: 0x100014458, symSize: 0x2C }
  - { offsetInCU: 0x8A3F9, offset: 0x8A3F9, size: 0x8, addend: 0x0, symName: __ZN5Eigen8internal9evaluatorINS_13CwiseBinaryOpINS0_17scalar_product_opIddEEKNS2_INS0_13scalar_sum_opIddEEKNS2_INS0_18scalar_quotient_opIddEEKNS_12ArrayWrapperIKNS_14CwiseNullaryOpINS0_16scalar_random_opIdEENS_6MatrixIdLin1ELin1ELi0ELin1ELin1EEEEEEEKNSA_INS0_18scalar_constant_opIdEEKNS_5ArrayIdLin1ELin1ELi0ELin1ELin1EEEEEEESP_EESP_EEED2Ev, symObjAddr: 0x13A78, symBinAddr: 0x100014484, symSize: 0x2C }
  - { offsetInCU: 0x8A426, offset: 0x8A426, size: 0x8, addend: 0x0, symName: __ZN5Eigen8internal16binary_evaluatorINS_13CwiseBinaryOpINS0_17scalar_product_opIddEEKNS2_INS0_13scalar_sum_opIddEEKNS2_INS0_18scalar_quotient_opIddEEKNS_12ArrayWrapperIKNS_14CwiseNullaryOpINS0_16scalar_random_opIdEENS_6MatrixIdLin1ELin1ELi0ELin1ELin1EEEEEEEKNSA_INS0_18scalar_constant_opIdEEKNS_5ArrayIdLin1ELin1ELi0ELin1ELin1EEEEEEESP_EESP_EENS0_10IndexBasedESV_ddED2Ev, symObjAddr: 0x13AA4, symBinAddr: 0x1000144B0, symSize: 0x34 }
  - { offsetInCU: 0x8A452, offset: 0x8A452, size: 0x8, addend: 0x0, symName: __ZN5Eigen8internal16binary_evaluatorINS_13CwiseBinaryOpINS0_17scalar_product_opIddEEKNS2_INS0_13scalar_sum_opIddEEKNS2_INS0_18scalar_quotient_opIddEEKNS_12ArrayWrapperIKNS_14CwiseNullaryOpINS0_16scalar_random_opIdEENS_6MatrixIdLin1ELin1ELi0ELin1ELin1EEEEEEEKNSA_INS0_18scalar_constant_opIdEEKNS_5ArrayIdLin1ELin1ELi0ELin1ELin1EEEEEEESP_EESP_EENS0_10IndexBasedESV_ddE4DataD1Ev, symObjAddr: 0x13AD8, symBinAddr: 0x1000144E4, symSize: 0x2C }
  - { offsetInCU: 0x8A47F, offset: 0x8A47F, size: 0x8, addend: 0x0, symName: __ZN5Eigen8internal16binary_evaluatorINS_13CwiseBinaryOpINS0_17scalar_product_opIddEEKNS2_INS0_13scalar_sum_opIddEEKNS2_INS0_18scalar_quotient_opIddEEKNS_12ArrayWrapperIKNS_14CwiseNullaryOpINS0_16scalar_random_opIdEENS_6MatrixIdLin1ELin1ELi0ELin1ELin1EEEEEEEKNSA_INS0_18scalar_constant_opIdEEKNS_5ArrayIdLin1ELin1ELi0ELin1ELin1EEEEEEESP_EESP_EENS0_10IndexBasedESV_ddE4DataD2Ev, symObjAddr: 0x13B04, symBinAddr: 0x100014510, symSize: 0x3C }
  - { offsetInCU: 0x8A4AC, offset: 0x8A4AC, size: 0x8, addend: 0x0, symName: __ZN5Eigen8internal9evaluatorINS_6MatrixIdLin1ELin1ELi0ELin1ELin1EEEEC2ERKS3_, symObjAddr: 0x13B40, symBinAddr: 0x10001454C, symSize: 0x34 }
  - { offsetInCU: 0x8A4E5, offset: 0x8A4E5, size: 0x8, addend: 0x0, symName: __ZN5Eigen8internal9evaluatorINS_15PlainObjectBaseINS_6MatrixIdLin1ELin1ELi0ELin1ELin1EEEEEEC2ERKS5_, symObjAddr: 0x13B74, symBinAddr: 0x100014580, symSize: 0x80 }
  - { offsetInCU: 0x8A51D, offset: 0x8A51D, size: 0x8, addend: 0x0, symName: __ZN5Eigen8internal14evaluator_baseINS_6MatrixIdLin1ELin1ELi0ELin1ELin1EEEEC2Ev, symObjAddr: 0x13BF4, symBinAddr: 0x100014600, symSize: 0x14 }
  - { offsetInCU: 0x8A547, offset: 0x8A547, size: 0x8, addend: 0x0, symName: __ZNK5Eigen15PlainObjectBaseINS_6MatrixIdLin1ELin1ELi0ELin1ELin1EEEE4dataEv, symObjAddr: 0x13C08, symBinAddr: 0x100014614, symSize: 0x24 }
  - { offsetInCU: 0x8A56D, offset: 0x8A56D, size: 0x8, addend: 0x0, symName: __ZNK5Eigen15DenseCoeffsBaseINS_6MatrixIdLin1ELin1ELi0ELin1ELin1EEELi3EE11outerStrideEv, symObjAddr: 0x13C2C, symBinAddr: 0x100014638, symSize: 0x28 }
  - { offsetInCU: 0x8A593, offset: 0x8A593, size: 0x8, addend: 0x0, symName: __ZN5Eigen8internal30plainobjectbase_evaluator_dataIdLin1EEC1EPKdl, symObjAddr: 0x13C54, symBinAddr: 0x100014660, symSize: 0x3C }
  - { offsetInCU: 0x8A5D9, offset: 0x8A5D9, size: 0x8, addend: 0x0, symName: __ZN5Eigen8internal14evaluator_baseINS_6MatrixIdLin1ELin1ELi0ELin1ELin1EEEED2Ev, symObjAddr: 0x13C90, symBinAddr: 0x10001469C, symSize: 0x14 }
  - { offsetInCU: 0x8A603, offset: 0x8A603, size: 0x8, addend: 0x0, symName: __ZNK5Eigen12DenseStorageIdLin1ELin1ELin1ELi0EE4dataEv, symObjAddr: 0x13CA4, symBinAddr: 0x1000146B0, symSize: 0x18 }
  - { offsetInCU: 0x8A629, offset: 0x8A629, size: 0x8, addend: 0x0, symName: __ZN5Eigen8internal30plainobjectbase_evaluator_dataIdLin1EEC2EPKdl, symObjAddr: 0x13CBC, symBinAddr: 0x1000146C8, symSize: 0x2C }
  - { offsetInCU: 0x8A66F, offset: 0x8A66F, size: 0x8, addend: 0x0, symName: __ZN5Eigen8internal31generic_dense_assignment_kernelINS0_9evaluatorINS_6MatrixIdLin1ELin1ELi0ELin1ELin1EEEEENS2_INS_13CwiseBinaryOpINS0_13scalar_sum_opIddEEKNS6_INS0_17scalar_product_opIddEEKNS6_IS8_KNS6_INS0_18scalar_quotient_opIddEEKNS_12ArrayWrapperIKNS_14CwiseNullaryOpINS0_16scalar_random_opIdEES4_EEEEKNSE_INS0_18scalar_constant_opIdEEKNS_5ArrayIdLin1ELin1ELi0ELin1ELin1EEEEEEESR_EESR_EESR_EEEENS0_9assign_opIddEELi0EEC2ERS5_RKSZ_RKS11_RS4_, symObjAddr: 0x13CE8, symBinAddr: 0x1000146F4, symSize: 0x44 }
  - { offsetInCU: 0x8A6D5, offset: 0x8A6D5, size: 0x8, addend: 0x0, symName: __ZNK5Eigen8internal31generic_dense_assignment_kernelINS0_9evaluatorINS_6MatrixIdLin1ELin1ELi0ELin1ELin1EEEEENS2_INS_13CwiseBinaryOpINS0_13scalar_sum_opIddEEKNS6_INS0_17scalar_product_opIddEEKNS6_IS8_KNS6_INS0_18scalar_quotient_opIddEEKNS_12ArrayWrapperIKNS_14CwiseNullaryOpINS0_16scalar_random_opIdEES4_EEEEKNSE_INS0_18scalar_constant_opIdEEKNS_5ArrayIdLin1ELin1ELi0ELin1ELin1EEEEEEESR_EESR_EESR_EEEENS0_9assign_opIddEELi0EE4sizeEv, symObjAddr: 0x13D2C, symBinAddr: 0x100014738, symSize: 0x28 }
  - { offsetInCU: 0x8A6FB, offset: 0x8A6FB, size: 0x8, addend: 0x0, symName: __ZN5Eigen8internal31generic_dense_assignment_kernelINS0_9evaluatorINS_6MatrixIdLin1ELin1ELi0ELin1ELin1EEEEENS2_INS_13CwiseBinaryOpINS0_13scalar_sum_opIddEEKNS6_INS0_17scalar_product_opIddEEKNS6_IS8_KNS6_INS0_18scalar_quotient_opIddEEKNS_12ArrayWrapperIKNS_14CwiseNullaryOpINS0_16scalar_random_opIdEES4_EEEEKNSE_INS0_18scalar_constant_opIdEEKNS_5ArrayIdLin1ELin1ELi0ELin1ELin1EEEEEEESR_EESR_EESR_EEEENS0_9assign_opIddEELi0EE11assignCoeffEl, symObjAddr: 0x13D54, symBinAddr: 0x100014760, symSize: 0x64 }
  - { offsetInCU: 0x8A730, offset: 0x8A730, size: 0x8, addend: 0x0, symName: __ZNK5Eigen9EigenBaseINS_6MatrixIdLin1ELin1ELi0ELin1ELin1EEEE4sizeEv, symObjAddr: 0x13DB8, symBinAddr: 0x1000147C4, symSize: 0x44 }
  - { offsetInCU: 0x8A756, offset: 0x8A756, size: 0x8, addend: 0x0, symName: __ZNK5Eigen9EigenBaseINS_6MatrixIdLin1ELin1ELi0ELin1ELin1EEEE4colsEv, symObjAddr: 0x13DFC, symBinAddr: 0x100014808, symSize: 0x28 }
  - { offsetInCU: 0x8A77C, offset: 0x8A77C, size: 0x8, addend: 0x0, symName: __ZN5Eigen8internal9evaluatorINS_15PlainObjectBaseINS_6MatrixIdLin1ELin1ELi0ELin1ELin1EEEEEE8coeffRefEl, symObjAddr: 0x13E24, symBinAddr: 0x100014830, symSize: 0x24 }
  - { offsetInCU: 0x8A7B0, offset: 0x8A7B0, size: 0x8, addend: 0x0, symName: __ZNK5Eigen8internal16binary_evaluatorINS_13CwiseBinaryOpINS0_13scalar_sum_opIddEEKNS2_INS0_17scalar_product_opIddEEKNS2_IS4_KNS2_INS0_18scalar_quotient_opIddEEKNS_12ArrayWrapperIKNS_14CwiseNullaryOpINS0_16scalar_random_opIdEENS_6MatrixIdLin1ELin1ELi0ELin1ELin1EEEEEEEKNSA_INS0_18scalar_constant_opIdEEKNS_5ArrayIdLin1ELin1ELi0ELin1ELin1EEEEEEESP_EESP_EESP_EENS0_10IndexBasedESX_ddE5coeffEl, symObjAddr: 0x13E48, symBinAddr: 0x100014854, symSize: 0x70 }
  - { offsetInCU: 0x8A7E5, offset: 0x8A7E5, size: 0x8, addend: 0x0, symName: __ZNK5Eigen8internal16binary_evaluatorINS_13CwiseBinaryOpINS0_13scalar_sum_opIddEEKNS2_INS0_17scalar_product_opIddEEKNS2_IS4_KNS2_INS0_18scalar_quotient_opIddEEKNS_12ArrayWrapperIKNS_14CwiseNullaryOpINS0_16scalar_random_opIdEENS_6MatrixIdLin1ELin1ELi0ELin1ELin1EEEEEEEKNSA_INS0_18scalar_constant_opIdEEKNS_5ArrayIdLin1ELin1ELi0ELin1ELin1EEEEEEESP_EESP_EESP_EENS0_10IndexBasedESX_ddE4Data4funcEv, symObjAddr: 0x13EB8, symBinAddr: 0x1000148C4, symSize: 0x14 }
  - { offsetInCU: 0x8A80B, offset: 0x8A80B, size: 0x8, addend: 0x0, symName: __ZNK5Eigen8internal16binary_evaluatorINS_13CwiseBinaryOpINS0_17scalar_product_opIddEEKNS2_INS0_13scalar_sum_opIddEEKNS2_INS0_18scalar_quotient_opIddEEKNS_12ArrayWrapperIKNS_14CwiseNullaryOpINS0_16scalar_random_opIdEENS_6MatrixIdLin1ELin1ELi0ELin1ELin1EEEEEEEKNSA_INS0_18scalar_constant_opIdEEKNS_5ArrayIdLin1ELin1ELi0ELin1ELin1EEEEEEESP_EESP_EENS0_10IndexBasedESV_ddE5coeffEl, symObjAddr: 0x13ECC, symBinAddr: 0x1000148D8, symSize: 0x70 }
  - { offsetInCU: 0x8A84A, offset: 0x8A84A, size: 0x8, addend: 0x0, symName: __ZNK5Eigen8internal9evaluatorINS_14CwiseNullaryOpINS0_18scalar_constant_opIdEEKNS_5ArrayIdLin1ELin1ELi0ELin1ELin1EEEEEE5coeffIlEEdT_, symObjAddr: 0x13F3C, symBinAddr: 0x100014948, symSize: 0x38 }
  - { offsetInCU: 0x8A888, offset: 0x8A888, size: 0x8, addend: 0x0, symName: __ZNK5Eigen8internal16binary_evaluatorINS_13CwiseBinaryOpINS0_17scalar_product_opIddEEKNS2_INS0_13scalar_sum_opIddEEKNS2_INS0_18scalar_quotient_opIddEEKNS_12ArrayWrapperIKNS_14CwiseNullaryOpINS0_16scalar_random_opIdEENS_6MatrixIdLin1ELin1ELi0ELin1ELin1EEEEEEEKNSA_INS0_18scalar_constant_opIdEEKNS_5ArrayIdLin1ELin1ELi0ELin1ELin1EEEEEEESP_EESP_EENS0_10IndexBasedESV_ddE4Data4funcEv, symObjAddr: 0x13F74, symBinAddr: 0x100014980, symSize: 0x14 }
  - { offsetInCU: 0x8A8AE, offset: 0x8A8AE, size: 0x8, addend: 0x0, symName: __ZNK5Eigen8internal16binary_evaluatorINS_13CwiseBinaryOpINS0_13scalar_sum_opIddEEKNS2_INS0_18scalar_quotient_opIddEEKNS_12ArrayWrapperIKNS_14CwiseNullaryOpINS0_16scalar_random_opIdEENS_6MatrixIdLin1ELin1ELi0ELin1ELin1EEEEEEEKNS8_INS0_18scalar_constant_opIdEEKNS_5ArrayIdLin1ELin1ELi0ELin1ELin1EEEEEEESN_EENS0_10IndexBasedESR_ddE5coeffEl, symObjAddr: 0x13F88, symBinAddr: 0x100014994, symSize: 0x70 }
  - { offsetInCU: 0x8A8E3, offset: 0x8A8E3, size: 0x8, addend: 0x0, symName: __ZNK5Eigen8internal16binary_evaluatorINS_13CwiseBinaryOpINS0_13scalar_sum_opIddEEKNS2_INS0_18scalar_quotient_opIddEEKNS_12ArrayWrapperIKNS_14CwiseNullaryOpINS0_16scalar_random_opIdEENS_6MatrixIdLin1ELin1ELi0ELin1ELin1EEEEEEEKNS8_INS0_18scalar_constant_opIdEEKNS_5ArrayIdLin1ELin1ELi0ELin1ELin1EEEEEEESN_EENS0_10IndexBasedESR_ddE4Data4funcEv, symObjAddr: 0x13FF8, symBinAddr: 0x100014A04, symSize: 0x14 }
  - { offsetInCU: 0x8A909, offset: 0x8A909, size: 0x8, addend: 0x0, symName: __ZNK5Eigen8internal16binary_evaluatorINS_13CwiseBinaryOpINS0_18scalar_quotient_opIddEEKNS_12ArrayWrapperIKNS_14CwiseNullaryOpINS0_16scalar_random_opIdEENS_6MatrixIdLin1ELin1ELi0ELin1ELin1EEEEEEEKNS6_INS0_18scalar_constant_opIdEEKNS_5ArrayIdLin1ELin1ELi0ELin1ELin1EEEEEEENS0_10IndexBasedESN_ddE5coeffEl, symObjAddr: 0x1400C, symBinAddr: 0x100014A18, symSize: 0x70 }
  - { offsetInCU: 0x8A93E, offset: 0x8A93E, size: 0x8, addend: 0x0, symName: __ZNK5Eigen8internal16binary_evaluatorINS_13CwiseBinaryOpINS0_18scalar_quotient_opIddEEKNS_12ArrayWrapperIKNS_14CwiseNullaryOpINS0_16scalar_random_opIdEENS_6MatrixIdLin1ELin1ELi0ELin1ELin1EEEEEEEKNS6_INS0_18scalar_constant_opIdEEKNS_5ArrayIdLin1ELin1ELi0ELin1ELin1EEEEEEENS0_10IndexBasedESN_ddE4Data4funcEv, symObjAddr: 0x1407C, symBinAddr: 0x100014A88, symSize: 0x14 }
  - { offsetInCU: 0x8A964, offset: 0x8A964, size: 0x8, addend: 0x0, symName: __ZNK5Eigen8internal22evaluator_wrapper_baseINS_12ArrayWrapperIKNS_14CwiseNullaryOpINS0_16scalar_random_opIdEENS_6MatrixIdLin1ELin1ELi0ELin1ELin1EEEEEEEE5coeffEl, symObjAddr: 0x14090, symBinAddr: 0x100014A9C, symSize: 0x2C }
  - { offsetInCU: 0x8A9A3, offset: 0x8A9A3, size: 0x8, addend: 0x0, symName: __ZNK5Eigen8internal9evaluatorINS_14CwiseNullaryOpINS0_16scalar_random_opIdEENS_6MatrixIdLin1ELin1ELi0ELin1ELin1EEEEEE5coeffIlEEdT_, symObjAddr: 0x140BC, symBinAddr: 0x100014AC8, symSize: 0x38 }
  - { offsetInCU: 0x8A9E1, offset: 0x8A9E1, size: 0x8, addend: 0x0, symName: __ZN5Eigen8internal9evaluatorINS_6MatrixIdLin1ELin1ELi0ELin1ELin1EEEED2Ev, symObjAddr: 0x140F4, symBinAddr: 0x100014B00, symSize: 0x2C }
  - { offsetInCU: 0x8AA0E, offset: 0x8AA0E, size: 0x8, addend: 0x0, symName: __ZN5Eigen8internal9evaluatorINS_15PlainObjectBaseINS_6MatrixIdLin1ELin1ELi0ELin1ELin1EEEEEED2Ev, symObjAddr: 0x14120, symBinAddr: 0x100014B2C, symSize: 0x2C }
  - { offsetInCU: 0x8AA3A, offset: 0x8AA3A, size: 0x8, addend: 0x0, symName: __ZN5Eigen8internal9evaluatorINS_13CwiseBinaryOpINS0_13scalar_sum_opIddEEKNS2_INS0_17scalar_product_opIddEEKNS2_IS4_KNS2_INS0_18scalar_quotient_opIddEEKNS_12ArrayWrapperIKNS_14CwiseNullaryOpINS0_16scalar_random_opIdEENS_6MatrixIdLin1ELin1ELi0ELin1ELin1EEEEEEEKNSA_INS0_18scalar_constant_opIdEEKNS_5ArrayIdLin1ELin1ELi0ELin1ELin1EEEEEEESP_EESP_EESP_EEED2Ev, symObjAddr: 0x1414C, symBinAddr: 0x100014B58, symSize: 0x2C }
  - { offsetInCU: 0x8AA67, offset: 0x8AA67, size: 0x8, addend: 0x0, symName: __ZN5Eigen8internal16binary_evaluatorINS_13CwiseBinaryOpINS0_13scalar_sum_opIddEEKNS2_INS0_17scalar_product_opIddEEKNS2_IS4_KNS2_INS0_18scalar_quotient_opIddEEKNS_12ArrayWrapperIKNS_14CwiseNullaryOpINS0_16scalar_random_opIdEENS_6MatrixIdLin1ELin1ELi0ELin1ELin1EEEEEEEKNSA_INS0_18scalar_constant_opIdEEKNS_5ArrayIdLin1ELin1ELi0ELin1ELin1EEEEEEESP_EESP_EESP_EENS0_10IndexBasedESX_ddED2Ev, symObjAddr: 0x14178, symBinAddr: 0x100014B84, symSize: 0x34 }
  - { offsetInCU: 0x8AA93, offset: 0x8AA93, size: 0x8, addend: 0x0, symName: __ZN5Eigen8internal16binary_evaluatorINS_13CwiseBinaryOpINS0_13scalar_sum_opIddEEKNS2_INS0_17scalar_product_opIddEEKNS2_IS4_KNS2_INS0_18scalar_quotient_opIddEEKNS_12ArrayWrapperIKNS_14CwiseNullaryOpINS0_16scalar_random_opIdEENS_6MatrixIdLin1ELin1ELi0ELin1ELin1EEEEEEEKNSA_INS0_18scalar_constant_opIdEEKNS_5ArrayIdLin1ELin1ELi0ELin1ELin1EEEEEEESP_EESP_EESP_EENS0_10IndexBasedESX_ddE4DataD1Ev, symObjAddr: 0x141AC, symBinAddr: 0x100014BB8, symSize: 0x2C }
  - { offsetInCU: 0x8AAC0, offset: 0x8AAC0, size: 0x8, addend: 0x0, symName: __ZN5Eigen8internal16binary_evaluatorINS_13CwiseBinaryOpINS0_13scalar_sum_opIddEEKNS2_INS0_17scalar_product_opIddEEKNS2_IS4_KNS2_INS0_18scalar_quotient_opIddEEKNS_12ArrayWrapperIKNS_14CwiseNullaryOpINS0_16scalar_random_opIdEENS_6MatrixIdLin1ELin1ELi0ELin1ELin1EEEEEEEKNSA_INS0_18scalar_constant_opIdEEKNS_5ArrayIdLin1ELin1ELi0ELin1ELin1EEEEEEESP_EESP_EESP_EENS0_10IndexBasedESX_ddE4DataD2Ev, symObjAddr: 0x141D8, symBinAddr: 0x100014BE4, symSize: 0x3C }
  - { offsetInCU: 0x8AAED, offset: 0x8AAED, size: 0x8, addend: 0x0, symName: __ZN5Eigen9DenseBaseINS_6MatrixIdLin1ELin1ELi0ELin1ELin1EEEE8ConstantEllRKd, symObjAddr: 0x14214, symBinAddr: 0x100014C20, symSize: 0x60 }
  - { offsetInCU: 0x8AB31, offset: 0x8AB31, size: 0x8, addend: 0x0, symName: __ZN5Eigen9DenseBaseINS_6MatrixIdLin1ELin1ELi0ELin1ELin1EEEE11NullaryExprINS_8internal18scalar_constant_opIdEEEEKNS_14CwiseNullaryOpIT_S2_EEllRKS9_, symObjAddr: 0x14274, symBinAddr: 0x100014C80, symSize: 0x48 }
  - { offsetInCU: 0x8AB7E, offset: 0x8AB7E, size: 0x8, addend: 0x0, symName: __ZN5Eigen14CwiseNullaryOpINS_8internal18scalar_constant_opIdEENS_6MatrixIdLin1ELin1ELi0ELin1ELin1EEEEC1EllRKS3_, symObjAddr: 0x142BC, symBinAddr: 0x100014CC8, symSize: 0x44 }
  - { offsetInCU: 0x8ABD2, offset: 0x8ABD2, size: 0x8, addend: 0x0, symName: __ZN5Eigen14CwiseNullaryOpINS_8internal18scalar_constant_opIdEENS_6MatrixIdLin1ELin1ELi0ELin1ELin1EEEEC2EllRKS3_, symObjAddr: 0x14300, symBinAddr: 0x100014D0C, symSize: 0xDC }
  - { offsetInCU: 0x8AC26, offset: 0x8AC26, size: 0x8, addend: 0x0, symName: __ZN5Eigen10MatrixBaseINS_14CwiseNullaryOpINS_8internal18scalar_constant_opIdEENS_6MatrixIdLin1ELin1ELi0ELin1ELin1EEEEEEC2Ev, symObjAddr: 0x143DC, symBinAddr: 0x100014DE8, symSize: 0x2C }
  - { offsetInCU: 0x8AC50, offset: 0x8AC50, size: 0x8, addend: 0x0, symName: __ZN5Eigen9DenseBaseINS_14CwiseNullaryOpINS_8internal18scalar_constant_opIdEENS_6MatrixIdLin1ELin1ELi0ELin1ELin1EEEEEEC2Ev, symObjAddr: 0x14408, symBinAddr: 0x100014E14, symSize: 0x14 }
  - { offsetInCU: 0x8AC7A, offset: 0x8AC7A, size: 0x8, addend: 0x0, symName: __ZN5Eigen6MatrixIdLin1ELin1ELi0ELin1ELin1EEC2INS_14CwiseNullaryOpINS_8internal18scalar_constant_opIdEES1_EEEERKNS_9EigenBaseIT_EE, symObjAddr: 0x1441C, symBinAddr: 0x100014E28, symSize: 0x40 }
  - { offsetInCU: 0x8ACBC, offset: 0x8ACBC, size: 0x8, addend: 0x0, symName: __ZNK5Eigen9EigenBaseINS_14CwiseNullaryOpINS_8internal18scalar_constant_opIdEENS_6MatrixIdLin1ELin1ELi0ELin1ELin1EEEEEE7derivedEv, symObjAddr: 0x1445C, symBinAddr: 0x100014E68, symSize: 0x14 }
  - { offsetInCU: 0x8ACE2, offset: 0x8ACE2, size: 0x8, addend: 0x0, symName: __ZN5Eigen15PlainObjectBaseINS_6MatrixIdLin1ELin1ELi0ELin1ELin1EEEEC2INS_14CwiseNullaryOpINS_8internal18scalar_constant_opIdEES2_EEEERKNS_9DenseBaseIT_EE, symObjAddr: 0x14470, symBinAddr: 0x100014E7C, symSize: 0x80 }
  - { offsetInCU: 0x8AD24, offset: 0x8AD24, size: 0x8, addend: 0x0, symName: __ZN5Eigen15PlainObjectBaseINS_6MatrixIdLin1ELin1ELi0ELin1ELin1EEEE10resizeLikeINS_14CwiseNullaryOpINS_8internal18scalar_constant_opIdEES2_EEEEvRKNS_9EigenBaseIT_EE, symObjAddr: 0x144F0, symBinAddr: 0x100014EFC, symSize: 0x11C }
  - { offsetInCU: 0x8ADB8, offset: 0x8ADB8, size: 0x8, addend: 0x0, symName: __ZN5Eigen15PlainObjectBaseINS_6MatrixIdLin1ELin1ELi0ELin1ELin1EEEE12_set_noaliasINS_14CwiseNullaryOpINS_8internal18scalar_constant_opIdEES2_EEEERS2_RKNS_9DenseBaseIT_EE, symObjAddr: 0x1460C, symBinAddr: 0x100015018, symSize: 0x60 }
  - { offsetInCU: 0x8ADF6, offset: 0x8ADF6, size: 0x8, addend: 0x0, symName: __ZNK5Eigen14CwiseNullaryOpINS_8internal18scalar_constant_opIdEENS_6MatrixIdLin1ELin1ELi0ELin1ELin1EEEE4rowsEv, symObjAddr: 0x1466C, symBinAddr: 0x100015078, symSize: 0x24 }
  - { offsetInCU: 0x8AE1C, offset: 0x8AE1C, size: 0x8, addend: 0x0, symName: __ZNK5Eigen14CwiseNullaryOpINS_8internal18scalar_constant_opIdEENS_6MatrixIdLin1ELin1ELi0ELin1ELin1EEEE4colsEv, symObjAddr: 0x14690, symBinAddr: 0x10001509C, symSize: 0x28 }
  - { offsetInCU: 0x8AE42, offset: 0x8AE42, size: 0x8, addend: 0x0, symName: __ZN5Eigen8internal10AssignmentINS_6MatrixIdLin1ELin1ELi0ELin1ELin1EEENS_14CwiseNullaryOpINS0_18scalar_constant_opIdEES3_EENS0_9assign_opIddEENS0_11Dense2DenseEvE3runERS3_RKS7_RKS9_, symObjAddr: 0x146F4, symBinAddr: 0x100015100, symSize: 0x40 }
  - { offsetInCU: 0x8AE84, offset: 0x8AE84, size: 0x8, addend: 0x0, symName: __ZN5Eigen8internal27checkTransposeAliasing_implINS_6MatrixIdLin1ELin1ELi0ELin1ELin1EEENS_14CwiseNullaryOpINS0_18scalar_constant_opIdEES3_EELb0EE3runERKS3_RKS7_, symObjAddr: 0x14800, symBinAddr: 0x10001520C, symSize: 0x14 }
  - { offsetInCU: 0x8AEAF, offset: 0x8AEAF, size: 0x8, addend: 0x0, symName: __ZNK5Eigen14CwiseNullaryOpINS_8internal18scalar_constant_opIdEENS_6MatrixIdLin1ELin1ELi0ELin1ELin1EEEE7functorEv, symObjAddr: 0x14950, symBinAddr: 0x10001535C, symSize: 0x18 }
  - { offsetInCU: 0x8AED5, offset: 0x8AED5, size: 0x8, addend: 0x0, symName: __ZN5Eigen9DenseBaseINS_6MatrixIdLin1ELi1ELi0ELin1ELi1EEEE8ConstantElRKd, symObjAddr: 0x149E0, symBinAddr: 0x1000153EC, symSize: 0x50 }
  - { offsetInCU: 0x8AF0A, offset: 0x8AF0A, size: 0x8, addend: 0x0, symName: __ZN5Eigen9DenseBaseINS_6MatrixIdLin1ELi1ELi0ELin1ELi1EEEE11NullaryExprINS_8internal18scalar_constant_opIdEEEEKNS_14CwiseNullaryOpIT_S2_EElRKS9_, symObjAddr: 0x14A30, symBinAddr: 0x10001543C, symSize: 0x44 }
  - { offsetInCU: 0x8AF48, offset: 0x8AF48, size: 0x8, addend: 0x0, symName: __ZN5Eigen14CwiseNullaryOpINS_8internal18scalar_constant_opIdEENS_6MatrixIdLin1ELi1ELi0ELin1ELi1EEEEC1EllRKS3_, symObjAddr: 0x14A74, symBinAddr: 0x100015480, symSize: 0x44 }
  - { offsetInCU: 0x8AF9C, offset: 0x8AF9C, size: 0x8, addend: 0x0, symName: __ZN5Eigen14CwiseNullaryOpINS_8internal18scalar_constant_opIdEENS_6MatrixIdLin1ELi1ELi0ELin1ELi1EEEEC2EllRKS3_, symObjAddr: 0x14AB8, symBinAddr: 0x1000154C4, symSize: 0xE8 }
  - { offsetInCU: 0x8AFF0, offset: 0x8AFF0, size: 0x8, addend: 0x0, symName: __ZN5Eigen10MatrixBaseINS_14CwiseNullaryOpINS_8internal18scalar_constant_opIdEENS_6MatrixIdLin1ELi1ELi0ELin1ELi1EEEEEEC2Ev, symObjAddr: 0x14BA0, symBinAddr: 0x1000155AC, symSize: 0x2C }
  - { offsetInCU: 0x8B01A, offset: 0x8B01A, size: 0x8, addend: 0x0, symName: __ZN5Eigen9DenseBaseINS_14CwiseNullaryOpINS_8internal18scalar_constant_opIdEENS_6MatrixIdLin1ELi1ELi0ELin1ELi1EEEEEEC2Ev, symObjAddr: 0x14BCC, symBinAddr: 0x1000155D8, symSize: 0x14 }
  - { offsetInCU: 0x8B044, offset: 0x8B044, size: 0x8, addend: 0x0, symName: __ZN5Eigen6MatrixIdLin1ELi1ELi0ELin1ELi1EEC2INS_14CwiseNullaryOpINS_8internal18scalar_constant_opIdEES1_EEEERKNS_9EigenBaseIT_EE, symObjAddr: 0x14BE0, symBinAddr: 0x1000155EC, symSize: 0x40 }
  - { offsetInCU: 0x8B086, offset: 0x8B086, size: 0x8, addend: 0x0, symName: __ZNK5Eigen9EigenBaseINS_14CwiseNullaryOpINS_8internal18scalar_constant_opIdEENS_6MatrixIdLin1ELi1ELi0ELin1ELi1EEEEEE7derivedEv, symObjAddr: 0x14C20, symBinAddr: 0x10001562C, symSize: 0x14 }
  - { offsetInCU: 0x8B0AC, offset: 0x8B0AC, size: 0x8, addend: 0x0, symName: __ZN5Eigen15PlainObjectBaseINS_6MatrixIdLin1ELi1ELi0ELin1ELi1EEEEC2INS_14CwiseNullaryOpINS_8internal18scalar_constant_opIdEES2_EEEERKNS_9DenseBaseIT_EE, symObjAddr: 0x14C34, symBinAddr: 0x100015640, symSize: 0x80 }
  - { offsetInCU: 0x8B0EE, offset: 0x8B0EE, size: 0x8, addend: 0x0, symName: __ZN5Eigen15PlainObjectBaseINS_6MatrixIdLin1ELi1ELi0ELin1ELi1EEEE10resizeLikeINS_14CwiseNullaryOpINS_8internal18scalar_constant_opIdEES2_EEEEvRKNS_9EigenBaseIT_EE, symObjAddr: 0x14CB4, symBinAddr: 0x1000156C0, symSize: 0x170 }
  - { offsetInCU: 0x8B182, offset: 0x8B182, size: 0x8, addend: 0x0, symName: __ZN5Eigen15PlainObjectBaseINS_6MatrixIdLin1ELi1ELi0ELin1ELi1EEEE12_set_noaliasINS_14CwiseNullaryOpINS_8internal18scalar_constant_opIdEES2_EEEERS2_RKNS_9DenseBaseIT_EE, symObjAddr: 0x14E24, symBinAddr: 0x100015830, symSize: 0x60 }
  - { offsetInCU: 0x8B1C0, offset: 0x8B1C0, size: 0x8, addend: 0x0, symName: __ZNK5Eigen14CwiseNullaryOpINS_8internal18scalar_constant_opIdEENS_6MatrixIdLin1ELi1ELi0ELin1ELi1EEEE4rowsEv, symObjAddr: 0x14E84, symBinAddr: 0x100015890, symSize: 0x24 }
  - { offsetInCU: 0x8B1E6, offset: 0x8B1E6, size: 0x8, addend: 0x0, symName: __ZNK5Eigen14CwiseNullaryOpINS_8internal18scalar_constant_opIdEENS_6MatrixIdLin1ELi1ELi0ELin1ELi1EEEE4colsEv, symObjAddr: 0x14EA8, symBinAddr: 0x1000158B4, symSize: 0x20 }
  - { offsetInCU: 0x8B20C, offset: 0x8B20C, size: 0x8, addend: 0x0, symName: __ZN5Eigen8internal10AssignmentINS_6MatrixIdLin1ELi1ELi0ELin1ELi1EEENS_14CwiseNullaryOpINS0_18scalar_constant_opIdEES3_EENS0_9assign_opIddEENS0_11Dense2DenseEvE3runERS3_RKS7_RKS9_, symObjAddr: 0x14F04, symBinAddr: 0x100015910, symSize: 0x40 }
  - { offsetInCU: 0x8B24E, offset: 0x8B24E, size: 0x8, addend: 0x0, symName: __ZNK5Eigen14CwiseNullaryOpINS_8internal18scalar_constant_opIdEENS_6MatrixIdLin1ELi1ELi0ELin1ELi1EEEE7functorEv, symObjAddr: 0x150BC, symBinAddr: 0x100015AC8, symSize: 0x18 }
  - { offsetInCU: 0x8B274, offset: 0x8B274, size: 0x8, addend: 0x0, symName: __ZN5Eigen6MatrixIdLin1ELi1ELi0ELin1ELi1EEC2INS_5BlockINS0_IdLin1ELin1ELi0ELin1ELin1EEELi1ELin1ELb0EEEEERKNS_9EigenBaseIT_EE, symObjAddr: 0x150D4, symBinAddr: 0x100015AE0, symSize: 0x40 }
  - { offsetInCU: 0x8B2B6, offset: 0x8B2B6, size: 0x8, addend: 0x0, symName: __ZN5Eigen15PlainObjectBaseINS_6MatrixIdLin1ELi1ELi0ELin1ELi1EEEEC2INS_5BlockINS1_IdLin1ELin1ELi0ELin1ELin1EEELi1ELin1ELb0EEEEERKNS_9DenseBaseIT_EE, symObjAddr: 0x15114, symBinAddr: 0x100015B20, symSize: 0x80 }
  - { offsetInCU: 0x8B2F8, offset: 0x8B2F8, size: 0x8, addend: 0x0, symName: __ZN5Eigen15PlainObjectBaseINS_6MatrixIdLin1ELi1ELi0ELin1ELi1EEEE10resizeLikeINS_5BlockINS1_IdLin1ELin1ELi0ELin1ELin1EEELi1ELin1ELb0EEEEEvRKNS_9EigenBaseIT_EE, symObjAddr: 0x15194, symBinAddr: 0x100015BA0, symSize: 0x170 }
  - { offsetInCU: 0x8B38C, offset: 0x8B38C, size: 0x8, addend: 0x0, symName: __ZN5Eigen15PlainObjectBaseINS_6MatrixIdLin1ELi1ELi0ELin1ELi1EEEE12_set_noaliasINS_5BlockINS1_IdLin1ELin1ELi0ELin1ELin1EEELi1ELin1ELb0EEEEERS2_RKNS_9DenseBaseIT_EE, symObjAddr: 0x15304, symBinAddr: 0x100015D10, symSize: 0x60 }
  - { offsetInCU: 0x8B3CA, offset: 0x8B3CA, size: 0x8, addend: 0x0, symName: __ZN5Eigen8internal10AssignmentINS_9TransposeINS_6MatrixIdLin1ELi1ELi0ELin1ELi1EEEEENS_5BlockINS3_IdLin1ELin1ELi0ELin1ELin1EEELi1ELin1ELb0EEENS0_9assign_opIddEENS0_11Dense2DenseEvE3runERS5_RKS8_RKSA_, symObjAddr: 0x153A8, symBinAddr: 0x100015DB4, symSize: 0x40 }
  - { offsetInCU: 0x8B40C, offset: 0x8B40C, size: 0x8, addend: 0x0, symName: __ZN5Eigen8internal9evaluatorINS_9TransposeINS_6MatrixIdLin1ELi1ELi0ELin1ELi1EEEEEEC1ERKS5_, symObjAddr: 0x155D4, symBinAddr: 0x100015FE0, symSize: 0x34 }
  - { offsetInCU: 0x8B444, offset: 0x8B444, size: 0x8, addend: 0x0, symName: __ZNK5Eigen9EigenBaseINS_9TransposeINS_6MatrixIdLin1ELi1ELi0ELin1ELi1EEEEEE18const_cast_derivedEv, symObjAddr: 0x15608, symBinAddr: 0x100016014, symSize: 0x14 }
  - { offsetInCU: 0x8B497, offset: 0x8B497, size: 0x8, addend: 0x0, symName: __ZN5Eigen8internal31generic_dense_assignment_kernelINS0_9evaluatorINS_9TransposeINS_6MatrixIdLin1ELi1ELi0ELin1ELi1EEEEEEENS2_INS_5BlockINS4_IdLin1ELin1ELi0ELin1ELin1EEELi1ELin1ELb0EEEEENS0_9assign_opIddEELi0EEC1ERS7_RKSB_RKSD_RS6_, symObjAddr: 0x1561C, symBinAddr: 0x100016028, symSize: 0x4C }
  - { offsetInCU: 0x8B502, offset: 0x8B502, size: 0x8, addend: 0x0, symName: __ZN5Eigen8internal21dense_assignment_loopINS0_31generic_dense_assignment_kernelINS0_9evaluatorINS_9TransposeINS_6MatrixIdLin1ELi1ELi0ELin1ELi1EEEEEEENS3_INS_5BlockINS5_IdLin1ELin1ELi0ELin1ELin1EEELi1ELin1ELb0EEEEENS0_9assign_opIddEELi0EEELi1ELi0EE3runERSF_, symObjAddr: 0x15668, symBinAddr: 0x100016074, symSize: 0x68 }
  - { offsetInCU: 0x8B552, offset: 0x8B552, size: 0x8, addend: 0x0, symName: __ZN5Eigen8internal9evaluatorINS_9TransposeINS_6MatrixIdLin1ELi1ELi0ELin1ELi1EEEEEED1Ev, symObjAddr: 0x156D0, symBinAddr: 0x1000160DC, symSize: 0x2C }
  - { offsetInCU: 0x8B57E, offset: 0x8B57E, size: 0x8, addend: 0x0, symName: __ZN5Eigen9TransposeINS_6MatrixIdLin1ELi1ELi0ELin1ELi1EEEE6resizeEll, symObjAddr: 0x156FC, symBinAddr: 0x100016108, symSize: 0x38 }
  - { offsetInCU: 0x8B5C0, offset: 0x8B5C0, size: 0x8, addend: 0x0, symName: __ZN5Eigen8internal31generic_dense_assignment_kernelINS0_9evaluatorINS_9TransposeINS_6MatrixIdLin1ELi1ELi0ELin1ELi1EEEEEEENS2_INS_5BlockINS4_IdLin1ELin1ELi0ELin1ELin1EEELi1ELin1ELb0EEEEENS0_9assign_opIddEELi0EEC2ERS7_RKSB_RKSD_RS6_, symObjAddr: 0x15734, symBinAddr: 0x100016140, symSize: 0x44 }
  - { offsetInCU: 0x8B626, offset: 0x8B626, size: 0x8, addend: 0x0, symName: __ZNK5Eigen8internal31generic_dense_assignment_kernelINS0_9evaluatorINS_9TransposeINS_6MatrixIdLin1ELi1ELi0ELin1ELi1EEEEEEENS2_INS_5BlockINS4_IdLin1ELin1ELi0ELin1ELin1EEELi1ELin1ELb0EEEEENS0_9assign_opIddEELi0EE4sizeEv, symObjAddr: 0x15778, symBinAddr: 0x100016184, symSize: 0x28 }
  - { offsetInCU: 0x8B64C, offset: 0x8B64C, size: 0x8, addend: 0x0, symName: __ZN5Eigen8internal31generic_dense_assignment_kernelINS0_9evaluatorINS_9TransposeINS_6MatrixIdLin1ELi1ELi0ELin1ELi1EEEEEEENS2_INS_5BlockINS4_IdLin1ELin1ELi0ELin1ELin1EEELi1ELin1ELb0EEEEENS0_9assign_opIddEELi0EE11assignCoeffEl, symObjAddr: 0x157A0, symBinAddr: 0x1000161AC, symSize: 0x60 }
  - { offsetInCU: 0x8B681, offset: 0x8B681, size: 0x8, addend: 0x0, symName: __ZNK5Eigen9EigenBaseINS_9TransposeINS_6MatrixIdLin1ELi1ELi0ELin1ELi1EEEEEE4sizeEv, symObjAddr: 0x15800, symBinAddr: 0x10001620C, symSize: 0x44 }
  - { offsetInCU: 0x8B6A7, offset: 0x8B6A7, size: 0x8, addend: 0x0, symName: __ZNK5Eigen9EigenBaseINS_9TransposeINS_6MatrixIdLin1ELi1ELi0ELin1ELi1EEEEEE4rowsEv, symObjAddr: 0x15844, symBinAddr: 0x100016250, symSize: 0x28 }
  - { offsetInCU: 0x8B6CD, offset: 0x8B6CD, size: 0x8, addend: 0x0, symName: __ZNK5Eigen9EigenBaseINS_9TransposeINS_6MatrixIdLin1ELi1ELi0ELin1ELi1EEEEEE4colsEv, symObjAddr: 0x1586C, symBinAddr: 0x100016278, symSize: 0x28 }
  - { offsetInCU: 0x8B6F3, offset: 0x8B6F3, size: 0x8, addend: 0x0, symName: __ZN5Eigen8internal15unary_evaluatorINS_9TransposeINS_6MatrixIdLin1ELi1ELi0ELin1ELi1EEEEENS0_10IndexBasedEdE8coeffRefEl, symObjAddr: 0x15894, symBinAddr: 0x1000162A0, symSize: 0x2C }
  - { offsetInCU: 0x8B728, offset: 0x8B728, size: 0x8, addend: 0x0, symName: __ZN5Eigen15DenseCoeffsBaseINS_6MatrixIdLin1ELi1ELi0ELin1ELi1EEELi1EE8coeffRefEl, symObjAddr: 0x158C0, symBinAddr: 0x1000162CC, symSize: 0x58 }
  - { offsetInCU: 0x8B75D, offset: 0x8B75D, size: 0x8, addend: 0x0, symName: __ZN5Eigen12DenseStorageIdLin1ELin1ELi1ELi0EE4dataEv, symObjAddr: 0x15918, symBinAddr: 0x100016324, symSize: 0x18 }
  - { offsetInCU: 0x8B783, offset: 0x8B783, size: 0x8, addend: 0x0, symName: __ZNSt3__16vectorIN5Eigen6MatrixIdLin1ELin1ELi0ELin1ELin1EEENS_9allocatorIS3_EEEC2B7v160006Ev, symObjAddr: 0x15930, symBinAddr: 0x10001633C, symSize: 0x58 }
  - { offsetInCU: 0x8B7AD, offset: 0x8B7AD, size: 0x8, addend: 0x0, symName: __ZNSt3__117__compressed_pairIPN5Eigen6MatrixIdLin1ELin1ELi0ELin1ELin1EEENS_9allocatorIS3_EEEC1B7v160006IDnNS_18__default_init_tagEEEOT_OT0_, symObjAddr: 0x15988, symBinAddr: 0x100016394, symSize: 0x3C }
  - { offsetInCU: 0x8B805, offset: 0x8B805, size: 0x8, addend: 0x0, symName: __ZNSt3__117__compressed_pairIPN5Eigen6MatrixIdLin1ELin1ELi0ELin1ELin1EEENS_9allocatorIS3_EEEC2B7v160006IDnNS_18__default_init_tagEEEOT_OT0_, symObjAddr: 0x159D4, symBinAddr: 0x1000163E0, symSize: 0x40 }
  - { offsetInCU: 0x8B85D, offset: 0x8B85D, size: 0x8, addend: 0x0, symName: __ZNSt3__122__compressed_pair_elemIPN5Eigen6MatrixIdLin1ELin1ELi0ELin1ELin1EEELi0ELb0EEC2B7v160006IDnvEEOT_, symObjAddr: 0x15A14, symBinAddr: 0x100016420, symSize: 0x1C }
  - { offsetInCU: 0x8B89F, offset: 0x8B89F, size: 0x8, addend: 0x0, symName: __ZNSt3__122__compressed_pair_elemINS_9allocatorIN5Eigen6MatrixIdLin1ELin1ELi0ELin1ELin1EEEEELi1ELb1EEC2B7v160006ENS_18__default_init_tagE, symObjAddr: 0x15A30, symBinAddr: 0x10001643C, symSize: 0x2C }
  - { offsetInCU: 0x8B8D4, offset: 0x8B8D4, size: 0x8, addend: 0x0, symName: __ZNSt3__19allocatorIN5Eigen6MatrixIdLin1ELin1ELi0ELin1ELin1EEEEC2B7v160006Ev, symObjAddr: 0x15A5C, symBinAddr: 0x100016468, symSize: 0x2C }
  - { offsetInCU: 0x8B8FE, offset: 0x8B8FE, size: 0x8, addend: 0x0, symName: __ZNSt3__116__non_trivial_ifILb1ENS_9allocatorIN5Eigen6MatrixIdLin1ELin1ELi0ELin1ELin1EEEEEEC2B7v160006Ev, symObjAddr: 0x15A88, symBinAddr: 0x100016494, symSize: 0x14 }
  - { offsetInCU: 0x8B928, offset: 0x8B928, size: 0x8, addend: 0x0, symName: __ZNSt3__16vectorIN5Eigen6MatrixIdLin1ELin1ELi0ELin1ELin1EEENS_9allocatorIS3_EEED2B7v160006Ev, symObjAddr: 0x15A9C, symBinAddr: 0x1000164A8, symSize: 0x44 }
  - { offsetInCU: 0x8B952, offset: 0x8B952, size: 0x8, addend: 0x0, symName: __ZNSt3__16vectorIN5Eigen6MatrixIdLin1ELin1ELi0ELin1ELin1EEENS_9allocatorIS3_EEE16__destroy_vectorC1ERS6_, symObjAddr: 0x15AE0, symBinAddr: 0x1000164EC, symSize: 0x34 }
  - { offsetInCU: 0x8B98B, offset: 0x8B98B, size: 0x8, addend: 0x0, symName: __ZNSt3__16vectorIN5Eigen6MatrixIdLin1ELin1ELi0ELin1ELin1EEENS_9allocatorIS3_EEE16__destroy_vectorclB7v160006Ev, symObjAddr: 0x15B14, symBinAddr: 0x100016520, symSize: 0x9C }
  - { offsetInCU: 0x8B9B1, offset: 0x8B9B1, size: 0x8, addend: 0x0, symName: __ZNSt3__16vectorIN5Eigen6MatrixIdLin1ELin1ELi0ELin1ELin1EEENS_9allocatorIS3_EEE16__destroy_vectorC2ERS6_, symObjAddr: 0x15BB0, symBinAddr: 0x1000165BC, symSize: 0x20 }
  - { offsetInCU: 0x8B9EA, offset: 0x8B9EA, size: 0x8, addend: 0x0, symName: __ZNKSt3__16vectorIN5Eigen6MatrixIdLin1ELin1ELi0ELin1ELin1EEENS_9allocatorIS3_EEE17__annotate_deleteB7v160006Ev, symObjAddr: 0x15BD0, symBinAddr: 0x1000165DC, symSize: 0xD4 }
  - { offsetInCU: 0x8BA10, offset: 0x8BA10, size: 0x8, addend: 0x0, symName: __ZNSt3__16vectorIN5Eigen6MatrixIdLin1ELin1ELi0ELin1ELin1EEENS_9allocatorIS3_EEE7__clearB7v160006Ev, symObjAddr: 0x15CB4, symBinAddr: 0x1000166C0, symSize: 0x28 }
  - { offsetInCU: 0x8BA36, offset: 0x8BA36, size: 0x8, addend: 0x0, symName: __ZNSt3__116allocator_traitsINS_9allocatorIN5Eigen6MatrixIdLin1ELin1ELi0ELin1ELin1EEEEEE10deallocateB7v160006ERS5_PS4_m, symObjAddr: 0x15CDC, symBinAddr: 0x1000166E8, symSize: 0x34 }
  - { offsetInCU: 0x8BA78, offset: 0x8BA78, size: 0x8, addend: 0x0, symName: __ZNSt3__16vectorIN5Eigen6MatrixIdLin1ELin1ELi0ELin1ELin1EEENS_9allocatorIS3_EEE7__allocB7v160006Ev, symObjAddr: 0x15D10, symBinAddr: 0x10001671C, symSize: 0x28 }
  - { offsetInCU: 0x8BA9E, offset: 0x8BA9E, size: 0x8, addend: 0x0, symName: __ZNKSt3__16vectorIN5Eigen6MatrixIdLin1ELin1ELi0ELin1ELin1EEENS_9allocatorIS3_EEE8capacityB7v160006Ev, symObjAddr: 0x15D38, symBinAddr: 0x100016744, symSize: 0x40 }
  - { offsetInCU: 0x8BAC4, offset: 0x8BAC4, size: 0x8, addend: 0x0, symName: __ZNKSt3__16vectorIN5Eigen6MatrixIdLin1ELin1ELi0ELin1ELin1EEENS_9allocatorIS3_EEE31__annotate_contiguous_containerB7v160006EPKvS8_S8_S8_, symObjAddr: 0x15D78, symBinAddr: 0x100016784, symSize: 0x20 }
  - { offsetInCU: 0x8BB16, offset: 0x8BB16, size: 0x8, addend: 0x0, symName: __ZNKSt3__16vectorIN5Eigen6MatrixIdLin1ELin1ELi0ELin1ELin1EEENS_9allocatorIS3_EEE4dataB7v160006Ev, symObjAddr: 0x15D98, symBinAddr: 0x1000167A4, symSize: 0x28 }
  - { offsetInCU: 0x8BB3C, offset: 0x8BB3C, size: 0x8, addend: 0x0, symName: __ZNKSt3__16vectorIN5Eigen6MatrixIdLin1ELin1ELi0ELin1ELin1EEENS_9allocatorIS3_EEE4sizeB7v160006Ev, symObjAddr: 0x15DC0, symBinAddr: 0x1000167CC, symSize: 0x28 }
  - { offsetInCU: 0x8BB62, offset: 0x8BB62, size: 0x8, addend: 0x0, symName: __ZNSt3__16vectorIN5Eigen6MatrixIdLin1ELin1ELi0ELin1ELin1EEENS_9allocatorIS3_EEE22__base_destruct_at_endB7v160006EPS3_, symObjAddr: 0x15DFC, symBinAddr: 0x100016808, symSize: 0x8C }
  - { offsetInCU: 0x8BBA6, offset: 0x8BBA6, size: 0x8, addend: 0x0, symName: __ZNSt3__116allocator_traitsINS_9allocatorIN5Eigen6MatrixIdLin1ELin1ELi0ELin1ELin1EEEEEE7destroyB7v160006IS4_vEEvRS5_PT_, symObjAddr: 0x15E88, symBinAddr: 0x100016894, symSize: 0x2C }
  - { offsetInCU: 0x8BBE3, offset: 0x8BBE3, size: 0x8, addend: 0x0, symName: __ZNSt3__19allocatorIN5Eigen6MatrixIdLin1ELin1ELi0ELin1ELin1EEEE7destroyB7v160006EPS3_, symObjAddr: 0x15EB4, symBinAddr: 0x1000168C0, symSize: 0x28 }
  - { offsetInCU: 0x8BC17, offset: 0x8BC17, size: 0x8, addend: 0x0, symName: __ZNSt3__19allocatorIN5Eigen6MatrixIdLin1ELin1ELi0ELin1ELin1EEEE10deallocateB7v160006EPS3_m, symObjAddr: 0x15EDC, symBinAddr: 0x1000168E8, symSize: 0x44 }
  - { offsetInCU: 0x8BC59, offset: 0x8BC59, size: 0x8, addend: 0x0, symName: __ZNSt3__117__compressed_pairIPN5Eigen6MatrixIdLin1ELin1ELi0ELin1ELin1EEENS_9allocatorIS3_EEE6secondB7v160006Ev, symObjAddr: 0x15F20, symBinAddr: 0x10001692C, symSize: 0x24 }
  - { offsetInCU: 0x8BC7F, offset: 0x8BC7F, size: 0x8, addend: 0x0, symName: __ZNSt3__122__compressed_pair_elemINS_9allocatorIN5Eigen6MatrixIdLin1ELin1ELi0ELin1ELin1EEEEELi1ELb1EE5__getB7v160006Ev, symObjAddr: 0x15F44, symBinAddr: 0x100016950, symSize: 0x14 }
  - { offsetInCU: 0x8BCA5, offset: 0x8BCA5, size: 0x8, addend: 0x0, symName: __ZNKSt3__16vectorIN5Eigen6MatrixIdLin1ELin1ELi0ELin1ELin1EEENS_9allocatorIS3_EEE9__end_capB7v160006Ev, symObjAddr: 0x15F58, symBinAddr: 0x100016964, symSize: 0x28 }
  - { offsetInCU: 0x8BCCB, offset: 0x8BCCB, size: 0x8, addend: 0x0, symName: __ZNKSt3__117__compressed_pairIPN5Eigen6MatrixIdLin1ELin1ELi0ELin1ELin1EEENS_9allocatorIS3_EEE5firstB7v160006Ev, symObjAddr: 0x15F80, symBinAddr: 0x10001698C, symSize: 0x24 }
  - { offsetInCU: 0x8BCF1, offset: 0x8BCF1, size: 0x8, addend: 0x0, symName: __ZNKSt3__122__compressed_pair_elemIPN5Eigen6MatrixIdLin1ELin1ELi0ELin1ELin1EEELi0ELb0EE5__getB7v160006Ev, symObjAddr: 0x15FA4, symBinAddr: 0x1000169B0, symSize: 0x14 }
  - { offsetInCU: 0x8BD17, offset: 0x8BD17, size: 0x8, addend: 0x0, symName: __ZN5Eigen6MatrixIdLin1ELin1ELi0ELin1ELin1EEC2IiiEERKT_RKT0_, symObjAddr: 0x15FB8, symBinAddr: 0x1000169C4, symSize: 0x7C }
  - { offsetInCU: 0x8BD71, offset: 0x8BD71, size: 0x8, addend: 0x0, symName: __ZN5Eigen15PlainObjectBaseINS_6MatrixIdLin1ELin1ELi0ELin1ELin1EEEEC2Ev, symObjAddr: 0x16034, symBinAddr: 0x100016A40, symSize: 0x34 }
  - { offsetInCU: 0x8BDA0, offset: 0x8BDA0, size: 0x8, addend: 0x0, symName: __ZN5Eigen15PlainObjectBaseINS_6MatrixIdLin1ELin1ELi0ELin1ELin1EEEE6_init2IiiEEvllPNS_8internal9enable_ifILb1ET_E4typeE, symObjAddr: 0x16068, symBinAddr: 0x100016A74, symSize: 0x44 }
  - { offsetInCU: 0x8BE1F, offset: 0x8BE1F, size: 0x8, addend: 0x0, symName: __ZNSt3__16vectorIN5Eigen6MatrixIdLin1ELin1ELi0ELin1ELin1EEENS_9allocatorIS3_EEE9__end_capB7v160006Ev, symObjAddr: 0x160AC, symBinAddr: 0x100016AB8, symSize: 0x28 }
  - { offsetInCU: 0x8BE45, offset: 0x8BE45, size: 0x8, addend: 0x0, symName: __ZNSt3__16vectorIN5Eigen6MatrixIdLin1ELin1ELi0ELin1ELin1EEENS_9allocatorIS3_EEE22__construct_one_at_endB7v160006IJRKS3_EEEvDpOT_, symObjAddr: 0x160D4, symBinAddr: 0x100016AE0, symSize: 0x90 }
  - { offsetInCU: 0x8BE94, offset: 0x8BE94, size: 0x8, addend: 0x0, symName: __ZNSt3__16vectorIN5Eigen6MatrixIdLin1ELin1ELi0ELin1ELin1EEENS_9allocatorIS3_EEE21__push_back_slow_pathIRKS3_EEvOT_, symObjAddr: 0x16164, symBinAddr: 0x100016B70, symSize: 0xD8 }
  - { offsetInCU: 0x8BEF2, offset: 0x8BEF2, size: 0x8, addend: 0x0, symName: __ZNSt3__117__compressed_pairIPN5Eigen6MatrixIdLin1ELin1ELi0ELin1ELin1EEENS_9allocatorIS3_EEE5firstB7v160006Ev, symObjAddr: 0x1623C, symBinAddr: 0x100016C48, symSize: 0x24 }
  - { offsetInCU: 0x8BF18, offset: 0x8BF18, size: 0x8, addend: 0x0, symName: __ZNSt3__122__compressed_pair_elemIPN5Eigen6MatrixIdLin1ELin1ELi0ELin1ELin1EEELi0ELb0EE5__getB7v160006Ev, symObjAddr: 0x16260, symBinAddr: 0x100016C6C, symSize: 0x14 }
  - { offsetInCU: 0x8BF57, offset: 0x8BF57, size: 0x8, addend: 0x0, symName: __ZNSt3__16vectorIN5Eigen6MatrixIdLin1ELin1ELi0ELin1ELin1EEENS_9allocatorIS3_EEE21_ConstructTransactionC1B7v160006ERS6_m, symObjAddr: 0x16274, symBinAddr: 0x100016C80, symSize: 0x3C }
  - { offsetInCU: 0x8BF9F, offset: 0x8BF9F, size: 0x8, addend: 0x0, symName: __ZNSt3__116allocator_traitsINS_9allocatorIN5Eigen6MatrixIdLin1ELin1ELi0ELin1ELin1EEEEEE9constructB7v160006IS4_JRKS4_EvEEvRS5_PT_DpOT0_, symObjAddr: 0x162B0, symBinAddr: 0x100016CBC, symSize: 0x34 }
  - { offsetInCU: 0x8BFF6, offset: 0x8BFF6, size: 0x8, addend: 0x0, symName: __ZNSt3__16vectorIN5Eigen6MatrixIdLin1ELin1ELi0ELin1ELin1EEENS_9allocatorIS3_EEE21_ConstructTransactionD1B7v160006Ev, symObjAddr: 0x162E4, symBinAddr: 0x100016CF0, symSize: 0x2C }
  - { offsetInCU: 0x8C020, offset: 0x8C020, size: 0x8, addend: 0x0, symName: __ZNSt3__16vectorIN5Eigen6MatrixIdLin1ELin1ELi0ELin1ELin1EEENS_9allocatorIS3_EEE21_ConstructTransactionC2B7v160006ERS6_m, symObjAddr: 0x16310, symBinAddr: 0x100016D1C, symSize: 0x4C }
  - { offsetInCU: 0x8C068, offset: 0x8C068, size: 0x8, addend: 0x0, symName: __ZNSt3__19allocatorIN5Eigen6MatrixIdLin1ELin1ELi0ELin1ELin1EEEE9constructB7v160006IS3_JRKS3_EEEvPT_DpOT0_, symObjAddr: 0x1635C, symBinAddr: 0x100016D68, symSize: 0x30 }
  - { offsetInCU: 0x8C0BE, offset: 0x8C0BE, size: 0x8, addend: 0x0, symName: __ZN5Eigen6MatrixIdLin1ELin1ELi0ELin1ELin1EEC1ERKS1_, symObjAddr: 0x1638C, symBinAddr: 0x100016D98, symSize: 0x34 }
  - { offsetInCU: 0x8C0F7, offset: 0x8C0F7, size: 0x8, addend: 0x0, symName: __ZN5Eigen6MatrixIdLin1ELin1ELi0ELin1ELin1EEC2ERKS1_, symObjAddr: 0x163C0, symBinAddr: 0x100016DCC, symSize: 0x34 }
  - { offsetInCU: 0x8C130, offset: 0x8C130, size: 0x8, addend: 0x0, symName: __ZN5Eigen15PlainObjectBaseINS_6MatrixIdLin1ELin1ELi0ELin1ELin1EEEEC2ERKS3_, symObjAddr: 0x163F4, symBinAddr: 0x100016E00, symSize: 0x3C }
  - { offsetInCU: 0x8C169, offset: 0x8C169, size: 0x8, addend: 0x0, symName: __ZN5Eigen12DenseStorageIdLin1ELin1ELin1ELi0EEC1ERKS1_, symObjAddr: 0x16430, symBinAddr: 0x100016E3C, symSize: 0x34 }
  - { offsetInCU: 0x8C1A2, offset: 0x8C1A2, size: 0x8, addend: 0x0, symName: __ZN5Eigen12DenseStorageIdLin1ELin1ELin1ELi0EEC2ERKS1_, symObjAddr: 0x16464, symBinAddr: 0x100016E70, symSize: 0x94 }
  - { offsetInCU: 0x8C1DB, offset: 0x8C1DB, size: 0x8, addend: 0x0, symName: __ZNSt3__16vectorIN5Eigen6MatrixIdLin1ELin1ELi0ELin1ELin1EEENS_9allocatorIS3_EEE21_ConstructTransactionD2B7v160006Ev, symObjAddr: 0x164F8, symBinAddr: 0x100016F04, symSize: 0x20 }
  - { offsetInCU: 0x8C205, offset: 0x8C205, size: 0x8, addend: 0x0, symName: __ZNKSt3__16vectorIN5Eigen6MatrixIdLin1ELin1ELi0ELin1ELin1EEENS_9allocatorIS3_EEE11__recommendB7v160006Em, symObjAddr: 0x16518, symBinAddr: 0x100016F24, symSize: 0xB4 }
  - { offsetInCU: 0x8C25A, offset: 0x8C25A, size: 0x8, addend: 0x0, symName: __ZNSt3__114__split_bufferIN5Eigen6MatrixIdLin1ELin1ELi0ELin1ELin1EEERNS_9allocatorIS3_EEEC1EmmS6_, symObjAddr: 0x165CC, symBinAddr: 0x100016FD8, symSize: 0x44 }
  - { offsetInCU: 0x8C2B0, offset: 0x8C2B0, size: 0x8, addend: 0x0, symName: __ZNSt3__114__split_bufferIN5Eigen6MatrixIdLin1ELin1ELi0ELin1ELin1EEERNS_9allocatorIS3_EEED1Ev, symObjAddr: 0x16728, symBinAddr: 0x100017134, symSize: 0x2C }
  - { offsetInCU: 0x8C2DC, offset: 0x8C2DC, size: 0x8, addend: 0x0, symName: __ZNKSt3__16vectorIN5Eigen6MatrixIdLin1ELin1ELi0ELin1ELin1EEENS_9allocatorIS3_EEE8max_sizeEv, symObjAddr: 0x16754, symBinAddr: 0x100017160, symSize: 0x60 }
  - { offsetInCU: 0x8C304, offset: 0x8C304, size: 0x8, addend: 0x0, symName: __ZNKSt3__16vectorIN5Eigen6MatrixIdLin1ELin1ELi0ELin1ELin1EEENS_9allocatorIS3_EEE20__throw_length_errorB7v160006Ev, symObjAddr: 0x167B4, symBinAddr: 0x1000171C0, symSize: 0x1C }
  - { offsetInCU: 0x8C334, offset: 0x8C334, size: 0x8, addend: 0x0, symName: __ZNSt3__116allocator_traitsINS_9allocatorIN5Eigen6MatrixIdLin1ELin1ELi0ELin1ELin1EEEEEE8max_sizeB7v160006IS5_vEEmRKS5_, symObjAddr: 0x167FC, symBinAddr: 0x100017208, symSize: 0x24 }
  - { offsetInCU: 0x8C362, offset: 0x8C362, size: 0x8, addend: 0x0, symName: __ZNKSt3__16vectorIN5Eigen6MatrixIdLin1ELin1ELi0ELin1ELin1EEENS_9allocatorIS3_EEE7__allocB7v160006Ev, symObjAddr: 0x16820, symBinAddr: 0x10001722C, symSize: 0x28 }
  - { offsetInCU: 0x8C388, offset: 0x8C388, size: 0x8, addend: 0x0, symName: __ZNKSt3__19allocatorIN5Eigen6MatrixIdLin1ELin1ELi0ELin1ELin1EEEE8max_sizeB7v160006Ev, symObjAddr: 0x16848, symBinAddr: 0x100017254, symSize: 0x18 }
  - { offsetInCU: 0x8C3AE, offset: 0x8C3AE, size: 0x8, addend: 0x0, symName: __ZNKSt3__117__compressed_pairIPN5Eigen6MatrixIdLin1ELin1ELi0ELin1ELin1EEENS_9allocatorIS3_EEE6secondB7v160006Ev, symObjAddr: 0x16860, symBinAddr: 0x10001726C, symSize: 0x24 }
  - { offsetInCU: 0x8C3D4, offset: 0x8C3D4, size: 0x8, addend: 0x0, symName: __ZNKSt3__122__compressed_pair_elemINS_9allocatorIN5Eigen6MatrixIdLin1ELin1ELi0ELin1ELin1EEEEELi1ELb1EE5__getB7v160006Ev, symObjAddr: 0x16884, symBinAddr: 0x100017290, symSize: 0x14 }
  - { offsetInCU: 0x8C3FA, offset: 0x8C3FA, size: 0x8, addend: 0x0, symName: __ZNSt3__114__split_bufferIN5Eigen6MatrixIdLin1ELin1ELi0ELin1ELin1EEERNS_9allocatorIS3_EEEC2EmmS6_, symObjAddr: 0x168EC, symBinAddr: 0x1000172F8, symSize: 0xE0 }
  - { offsetInCU: 0x8C46D, offset: 0x8C46D, size: 0x8, addend: 0x0, symName: __ZNSt3__117__compressed_pairIPN5Eigen6MatrixIdLin1ELin1ELi0ELin1ELin1EEERNS_9allocatorIS3_EEEC1B7v160006IDnS7_EEOT_OT0_, symObjAddr: 0x169CC, symBinAddr: 0x1000173D8, symSize: 0x3C }
  - { offsetInCU: 0x8C4C5, offset: 0x8C4C5, size: 0x8, addend: 0x0, symName: __ZNSt3__114__split_bufferIN5Eigen6MatrixIdLin1ELin1ELi0ELin1ELin1EEERNS_9allocatorIS3_EEE7__allocB7v160006Ev, symObjAddr: 0x16A48, symBinAddr: 0x100017454, symSize: 0x28 }
  - { offsetInCU: 0x8C4EB, offset: 0x8C4EB, size: 0x8, addend: 0x0, symName: __ZNSt3__114__split_bufferIN5Eigen6MatrixIdLin1ELin1ELi0ELin1ELin1EEERNS_9allocatorIS3_EEE9__end_capB7v160006Ev, symObjAddr: 0x16A70, symBinAddr: 0x10001747C, symSize: 0x28 }
  - { offsetInCU: 0x8C511, offset: 0x8C511, size: 0x8, addend: 0x0, symName: __ZNSt3__117__compressed_pairIPN5Eigen6MatrixIdLin1ELin1ELi0ELin1ELin1EEERNS_9allocatorIS3_EEEC2B7v160006IDnS7_EEOT_OT0_, symObjAddr: 0x16A98, symBinAddr: 0x1000174A4, symSize: 0x48 }
  - { offsetInCU: 0x8C569, offset: 0x8C569, size: 0x8, addend: 0x0, symName: __ZNSt3__122__compressed_pair_elemIRNS_9allocatorIN5Eigen6MatrixIdLin1ELin1ELi0ELin1ELin1EEEEELi1ELb0EEC2B7v160006IS6_vEEOT_, symObjAddr: 0x16AE0, symBinAddr: 0x1000174EC, symSize: 0x20 }
  - { offsetInCU: 0x8C5AB, offset: 0x8C5AB, size: 0x8, addend: 0x0, symName: __ZNSt3__19allocatorIN5Eigen6MatrixIdLin1ELin1ELi0ELin1ELin1EEEE8allocateB7v160006Em, symObjAddr: 0x16B00, symBinAddr: 0x10001750C, symSize: 0x5C }
  - { offsetInCU: 0x8C5DF, offset: 0x8C5DF, size: 0x8, addend: 0x0, symName: __ZNSt3__117__compressed_pairIPN5Eigen6MatrixIdLin1ELin1ELi0ELin1ELin1EEERNS_9allocatorIS3_EEE6secondB7v160006Ev, symObjAddr: 0x16B5C, symBinAddr: 0x100017568, symSize: 0x28 }
  - { offsetInCU: 0x8C605, offset: 0x8C605, size: 0x8, addend: 0x0, symName: __ZNSt3__122__compressed_pair_elemIRNS_9allocatorIN5Eigen6MatrixIdLin1ELin1ELi0ELin1ELin1EEEEELi1ELb0EE5__getB7v160006Ev, symObjAddr: 0x16B84, symBinAddr: 0x100017590, symSize: 0x18 }
  - { offsetInCU: 0x8C62B, offset: 0x8C62B, size: 0x8, addend: 0x0, symName: __ZNSt3__117__compressed_pairIPN5Eigen6MatrixIdLin1ELin1ELi0ELin1ELin1EEERNS_9allocatorIS3_EEE5firstB7v160006Ev, symObjAddr: 0x16B9C, symBinAddr: 0x1000175A8, symSize: 0x24 }
  - { offsetInCU: 0x8C651, offset: 0x8C651, size: 0x8, addend: 0x0, symName: __ZNSt3__116reverse_iteratorIPN5Eigen6MatrixIdLin1ELin1ELi0ELin1ELin1EEEEC1B7v160006ES4_, symObjAddr: 0x16CEC, symBinAddr: 0x1000176F8, symSize: 0x34 }
  - { offsetInCU: 0x8C689, offset: 0x8C689, size: 0x8, addend: 0x0, symName: __ZNKSt3__116reverse_iteratorIPN5Eigen6MatrixIdLin1ELin1ELi0ELin1ELin1EEEE4baseB7v160006Ev, symObjAddr: 0x16D20, symBinAddr: 0x10001772C, symSize: 0x18 }
  - { offsetInCU: 0x8C6AF, offset: 0x8C6AF, size: 0x8, addend: 0x0, symName: __ZNKSt3__16vectorIN5Eigen6MatrixIdLin1ELin1ELi0ELin1ELin1EEENS_9allocatorIS3_EEE14__annotate_newB7v160006Em, symObjAddr: 0x16D74, symBinAddr: 0x100017780, symSize: 0xC8 }
  - { offsetInCU: 0x8C6E4, offset: 0x8C6E4, size: 0x8, addend: 0x0, symName: __ZNSt3__129_AllocatorDestroyRangeReverseINS_9allocatorIN5Eigen6MatrixIdLin1ELin1ELi0ELin1ELin1EEEEENS_16reverse_iteratorIPS4_EEEC1B7v160006ERS5_RS8_SB_, symObjAddr: 0x16E98, symBinAddr: 0x1000178A4, symSize: 0x44 }
  - { offsetInCU: 0x8C73B, offset: 0x8C73B, size: 0x8, addend: 0x0, symName: __ZNSt3__116allocator_traitsINS_9allocatorIN5Eigen6MatrixIdLin1ELin1ELi0ELin1ELin1EEEEEE9constructB7v160006IS4_JS4_EvEEvRS5_PT_DpOT0_, symObjAddr: 0x16F24, symBinAddr: 0x100017930, symSize: 0x34 }
  - { offsetInCU: 0x8C792, offset: 0x8C792, size: 0x8, addend: 0x0, symName: __ZNKSt3__116reverse_iteratorIPN5Eigen6MatrixIdLin1ELin1ELi0ELin1ELin1EEEEdeB7v160006Ev, symObjAddr: 0x16F7C, symBinAddr: 0x100017988, symSize: 0x28 }
  - { offsetInCU: 0x8C7C6, offset: 0x8C7C6, size: 0x8, addend: 0x0, symName: __ZNSt3__116reverse_iteratorIPN5Eigen6MatrixIdLin1ELin1ELi0ELin1ELin1EEEEppB7v160006Ev, symObjAddr: 0x16FA4, symBinAddr: 0x1000179B0, symSize: 0x20 }
  - { offsetInCU: 0x8C7EC, offset: 0x8C7EC, size: 0x8, addend: 0x0, symName: __ZNSt3__128__exception_guard_exceptionsINS_29_AllocatorDestroyRangeReverseINS_9allocatorIN5Eigen6MatrixIdLin1ELin1ELi0ELin1ELin1EEEEENS_16reverse_iteratorIPS5_EEEEE10__completeB7v160006Ev, symObjAddr: 0x16FC4, symBinAddr: 0x1000179D0, symSize: 0x1C }
  - { offsetInCU: 0x8C812, offset: 0x8C812, size: 0x8, addend: 0x0, symName: __ZNSt3__128__exception_guard_exceptionsINS_29_AllocatorDestroyRangeReverseINS_9allocatorIN5Eigen6MatrixIdLin1ELin1ELi0ELin1ELin1EEEEENS_16reverse_iteratorIPS5_EEEEED1B7v160006Ev, symObjAddr: 0x16FE0, symBinAddr: 0x1000179EC, symSize: 0x2C }
  - { offsetInCU: 0x8C83C, offset: 0x8C83C, size: 0x8, addend: 0x0, symName: __ZNSt3__128__exception_guard_exceptionsINS_29_AllocatorDestroyRangeReverseINS_9allocatorIN5Eigen6MatrixIdLin1ELin1ELi0ELin1ELin1EEEEENS_16reverse_iteratorIPS5_EEEEEC1B7v160006ESA_, symObjAddr: 0x1700C, symBinAddr: 0x100017A18, symSize: 0x34 }
  - { offsetInCU: 0x8C875, offset: 0x8C875, size: 0x8, addend: 0x0, symName: __ZNSt3__128__exception_guard_exceptionsINS_29_AllocatorDestroyRangeReverseINS_9allocatorIN5Eigen6MatrixIdLin1ELin1ELi0ELin1ELin1EEEEENS_16reverse_iteratorIPS5_EEEEEC2B7v160006ESA_, symObjAddr: 0x17040, symBinAddr: 0x100017A4C, symSize: 0x30 }
  - { offsetInCU: 0x8C8AE, offset: 0x8C8AE, size: 0x8, addend: 0x0, symName: __ZNSt3__129_AllocatorDestroyRangeReverseINS_9allocatorIN5Eigen6MatrixIdLin1ELin1ELi0ELin1ELin1EEEEENS_16reverse_iteratorIPS4_EEEC2B7v160006ERS5_RS8_SB_, symObjAddr: 0x17070, symBinAddr: 0x100017A7C, symSize: 0x38 }
  - { offsetInCU: 0x8C905, offset: 0x8C905, size: 0x8, addend: 0x0, symName: __ZNSt3__19allocatorIN5Eigen6MatrixIdLin1ELin1ELi0ELin1ELin1EEEE9constructB7v160006IS3_JS3_EEEvPT_DpOT0_, symObjAddr: 0x170A8, symBinAddr: 0x100017AB4, symSize: 0x30 }
  - { offsetInCU: 0x8C95B, offset: 0x8C95B, size: 0x8, addend: 0x0, symName: __ZN5Eigen6MatrixIdLin1ELin1ELi0ELin1ELin1EEC1EOS1_, symObjAddr: 0x170D8, symBinAddr: 0x100017AE4, symSize: 0x34 }
  - { offsetInCU: 0x8C994, offset: 0x8C994, size: 0x8, addend: 0x0, symName: __ZN5Eigen6MatrixIdLin1ELin1ELi0ELin1ELin1EEC2EOS1_, symObjAddr: 0x1710C, symBinAddr: 0x100017B18, symSize: 0x38 }
  - { offsetInCU: 0x8C9CD, offset: 0x8C9CD, size: 0x8, addend: 0x0, symName: __ZN5Eigen15PlainObjectBaseINS_6MatrixIdLin1ELin1ELi0ELin1ELin1EEEEC2EOS3_, symObjAddr: 0x17144, symBinAddr: 0x100017B50, symSize: 0x44 }
  - { offsetInCU: 0x8CA06, offset: 0x8CA06, size: 0x8, addend: 0x0, symName: __ZN5Eigen12DenseStorageIdLin1ELin1ELin1ELi0EEC1EOS1_, symObjAddr: 0x17188, symBinAddr: 0x100017B94, symSize: 0x34 }
  - { offsetInCU: 0x8CA3F, offset: 0x8CA3F, size: 0x8, addend: 0x0, symName: __ZN5Eigen12DenseStorageIdLin1ELin1ELin1ELi0EEC2EOS1_, symObjAddr: 0x171BC, symBinAddr: 0x100017BC8, symSize: 0x54 }
  - { offsetInCU: 0x8CA7D, offset: 0x8CA7D, size: 0x8, addend: 0x0, symName: __ZNSt3__119__to_address_helperINS_16reverse_iteratorIPN5Eigen6MatrixIdLin1ELin1ELi0ELin1ELin1EEEEEvE6__callB7v160006ERKS6_, symObjAddr: 0x17210, symBinAddr: 0x100017C1C, symSize: 0x38 }
  - { offsetInCU: 0x8CAA0, offset: 0x8CAA0, size: 0x8, addend: 0x0, symName: __ZNKSt3__116reverse_iteratorIPN5Eigen6MatrixIdLin1ELin1ELi0ELin1ELin1EEEEptB7v160006Ev, symObjAddr: 0x17248, symBinAddr: 0x100017C54, symSize: 0x24 }
  - { offsetInCU: 0x8CAC6, offset: 0x8CAC6, size: 0x8, addend: 0x0, symName: __ZNSt3__128__exception_guard_exceptionsINS_29_AllocatorDestroyRangeReverseINS_9allocatorIN5Eigen6MatrixIdLin1ELin1ELi0ELin1ELin1EEEEENS_16reverse_iteratorIPS5_EEEEED2B7v160006Ev, symObjAddr: 0x1726C, symBinAddr: 0x100017C78, symSize: 0x50 }
  - { offsetInCU: 0x8CAF0, offset: 0x8CAF0, size: 0x8, addend: 0x0, symName: __ZNKSt3__129_AllocatorDestroyRangeReverseINS_9allocatorIN5Eigen6MatrixIdLin1ELin1ELi0ELin1ELin1EEEEENS_16reverse_iteratorIPS4_EEEclB7v160006Ev, symObjAddr: 0x172BC, symBinAddr: 0x100017CC8, symSize: 0xB4 }
  - { offsetInCU: 0x8CB17, offset: 0x8CB17, size: 0x8, addend: 0x0, symName: __ZNSt3__116reverse_iteratorINS0_IPN5Eigen6MatrixIdLin1ELin1ELi0ELin1ELin1EEEEEEC1B7v160006ES5_, symObjAddr: 0x173E0, symBinAddr: 0x100017DEC, symSize: 0x3C }
  - { offsetInCU: 0x8CB4F, offset: 0x8CB4F, size: 0x8, addend: 0x0, symName: __ZNSt3__116reverse_iteratorINS0_IPN5Eigen6MatrixIdLin1ELin1ELi0ELin1ELin1EEEEEEppB7v160006Ev, symObjAddr: 0x174A0, symBinAddr: 0x100017EAC, symSize: 0x30 }
  - { offsetInCU: 0x8CB75, offset: 0x8CB75, size: 0x8, addend: 0x0, symName: __ZNKSt3__116reverse_iteratorINS0_IPN5Eigen6MatrixIdLin1ELin1ELi0ELin1ELin1EEEEEE4baseB7v160006Ev, symObjAddr: 0x174D0, symBinAddr: 0x100017EDC, symSize: 0x24 }
  - { offsetInCU: 0x8CBA0, offset: 0x8CBA0, size: 0x8, addend: 0x0, symName: __ZNSt3__119__to_address_helperINS_16reverse_iteratorINS1_IPN5Eigen6MatrixIdLin1ELin1ELi0ELin1ELin1EEEEEEEvE6__callB7v160006ERKS7_, symObjAddr: 0x174F4, symBinAddr: 0x100017F00, symSize: 0x38 }
  - { offsetInCU: 0x8CBC3, offset: 0x8CBC3, size: 0x8, addend: 0x0, symName: __ZNKSt3__116reverse_iteratorINS0_IPN5Eigen6MatrixIdLin1ELin1ELi0ELin1ELin1EEEEEEptB7v160006Ev, symObjAddr: 0x1752C, symBinAddr: 0x100017F38, symSize: 0x24 }
  - { offsetInCU: 0x8CBE9, offset: 0x8CBE9, size: 0x8, addend: 0x0, symName: __ZNKSt3__116reverse_iteratorINS0_IPN5Eigen6MatrixIdLin1ELin1ELi0ELin1ELin1EEEEEEdeB7v160006Ev, symObjAddr: 0x17550, symBinAddr: 0x100017F5C, symSize: 0x34 }
  - { offsetInCU: 0x8CC1D, offset: 0x8CC1D, size: 0x8, addend: 0x0, symName: __ZNSt3__116reverse_iteratorIPN5Eigen6MatrixIdLin1ELin1ELi0ELin1ELin1EEEEmmB7v160006Ev, symObjAddr: 0x17584, symBinAddr: 0x100017F90, symSize: 0x20 }
  - { offsetInCU: 0x8CC43, offset: 0x8CC43, size: 0x8, addend: 0x0, symName: __ZNSt3__116reverse_iteratorINS0_IPN5Eigen6MatrixIdLin1ELin1ELi0ELin1ELin1EEEEEEC2B7v160006ES5_, symObjAddr: 0x175A4, symBinAddr: 0x100017FB0, symSize: 0x2C }
  - { offsetInCU: 0x8CC7B, offset: 0x8CC7B, size: 0x8, addend: 0x0, symName: __ZNSt3__116reverse_iteratorIPN5Eigen6MatrixIdLin1ELin1ELi0ELin1ELin1EEEEC2B7v160006ES4_, symObjAddr: 0x175D0, symBinAddr: 0x100017FDC, symSize: 0x28 }
  - { offsetInCU: 0x8CCB3, offset: 0x8CCB3, size: 0x8, addend: 0x0, symName: __ZNSt3__114__split_bufferIN5Eigen6MatrixIdLin1ELin1ELi0ELin1ELin1EEERNS_9allocatorIS3_EEED2Ev, symObjAddr: 0x175F8, symBinAddr: 0x100018004, symSize: 0x8C }
  - { offsetInCU: 0x8CCDF, offset: 0x8CCDF, size: 0x8, addend: 0x0, symName: __ZNSt3__114__split_bufferIN5Eigen6MatrixIdLin1ELin1ELi0ELin1ELin1EEERNS_9allocatorIS3_EEE5clearB7v160006Ev, symObjAddr: 0x17684, symBinAddr: 0x100018090, symSize: 0x28 }
  - { offsetInCU: 0x8CD05, offset: 0x8CD05, size: 0x8, addend: 0x0, symName: __ZNKSt3__114__split_bufferIN5Eigen6MatrixIdLin1ELin1ELi0ELin1ELin1EEERNS_9allocatorIS3_EEE8capacityB7v160006Ev, symObjAddr: 0x176AC, symBinAddr: 0x1000180B8, symSize: 0x40 }
  - { offsetInCU: 0x8CD2B, offset: 0x8CD2B, size: 0x8, addend: 0x0, symName: __ZNSt3__114__split_bufferIN5Eigen6MatrixIdLin1ELin1ELi0ELin1ELin1EEERNS_9allocatorIS3_EEE17__destruct_at_endB7v160006EPS3_, symObjAddr: 0x176EC, symBinAddr: 0x1000180F8, symSize: 0x2C }
  - { offsetInCU: 0x8CD5F, offset: 0x8CD5F, size: 0x8, addend: 0x0, symName: __ZNSt3__114__split_bufferIN5Eigen6MatrixIdLin1ELin1ELi0ELin1ELin1EEERNS_9allocatorIS3_EEE17__destruct_at_endB7v160006EPS3_NS_17integral_constantIbLb0EEE, symObjAddr: 0x17718, symBinAddr: 0x100018124, symSize: 0x80 }
  - { offsetInCU: 0x8CDA0, offset: 0x8CDA0, size: 0x8, addend: 0x0, symName: __ZNKSt3__114__split_bufferIN5Eigen6MatrixIdLin1ELin1ELi0ELin1ELin1EEERNS_9allocatorIS3_EEE9__end_capB7v160006Ev, symObjAddr: 0x17798, symBinAddr: 0x1000181A4, symSize: 0x28 }
  - { offsetInCU: 0x8CDC6, offset: 0x8CDC6, size: 0x8, addend: 0x0, symName: __ZNKSt3__117__compressed_pairIPN5Eigen6MatrixIdLin1ELin1ELi0ELin1ELin1EEERNS_9allocatorIS3_EEE5firstB7v160006Ev, symObjAddr: 0x177C0, symBinAddr: 0x1000181CC, symSize: 0x24 }
  - { offsetInCU: 0x8CDEC, offset: 0x8CDEC, size: 0x8, addend: 0x0, symName: __ZN5Eigen12DenseStorageIdLin1ELin1ELin1ELi0EE4dataEv, symObjAddr: 0x177E4, symBinAddr: 0x1000181F0, symSize: 0x18 }
  - { offsetInCU: 0x8CE12, offset: 0x8CE12, size: 0x8, addend: 0x0, symName: __ZN5Eigen12ArrayWrapperINS_6MatrixIdLin1ELin1ELi0ELin1ELin1EEEEC1ERS2_, symObjAddr: 0x177FC, symBinAddr: 0x100018208, symSize: 0x34 }
  - { offsetInCU: 0x8CE4A, offset: 0x8CE4A, size: 0x8, addend: 0x0, symName: __ZN5Eigen12ArrayWrapperINS_6MatrixIdLin1ELin1ELi0ELin1ELin1EEEEC2ERS2_, symObjAddr: 0x17830, symBinAddr: 0x10001823C, symSize: 0x38 }
  - { offsetInCU: 0x8CE82, offset: 0x8CE82, size: 0x8, addend: 0x0, symName: __ZN5Eigen9ArrayBaseINS_12ArrayWrapperINS_6MatrixIdLin1ELin1ELi0ELin1ELin1EEEEEEC2Ev, symObjAddr: 0x17868, symBinAddr: 0x100018274, symSize: 0x2C }
  - { offsetInCU: 0x8CEAC, offset: 0x8CEAC, size: 0x8, addend: 0x0, symName: __ZN5Eigen9DenseBaseINS_12ArrayWrapperINS_6MatrixIdLin1ELin1ELi0ELin1ELin1EEEEEEC2Ev, symObjAddr: 0x17894, symBinAddr: 0x1000182A0, symSize: 0x14 }
  - { offsetInCU: 0x8CED6, offset: 0x8CED6, size: 0x8, addend: 0x0, symName: __ZN5Eigen6MatrixIdLin1ELin1ELi0ELin1ELin1EEC2INS_12ArrayWrapperIS1_EEEERKNS_9EigenBaseIT_EE, symObjAddr: 0x178A8, symBinAddr: 0x1000182B4, symSize: 0x40 }
  - { offsetInCU: 0x8CF18, offset: 0x8CF18, size: 0x8, addend: 0x0, symName: __ZNK5Eigen9EigenBaseINS_12ArrayWrapperINS_6MatrixIdLin1ELin1ELi0ELin1ELin1EEEEEE7derivedEv, symObjAddr: 0x178E8, symBinAddr: 0x1000182F4, symSize: 0x14 }
  - { offsetInCU: 0x8CF3E, offset: 0x8CF3E, size: 0x8, addend: 0x0, symName: __ZN5Eigen15PlainObjectBaseINS_6MatrixIdLin1ELin1ELi0ELin1ELin1EEEEC2INS_12ArrayWrapperIS2_EEEERKNS_9DenseBaseIT_EE, symObjAddr: 0x178FC, symBinAddr: 0x100018308, symSize: 0x80 }
  - { offsetInCU: 0x8CF80, offset: 0x8CF80, size: 0x8, addend: 0x0, symName: __ZN5Eigen15PlainObjectBaseINS_6MatrixIdLin1ELin1ELi0ELin1ELin1EEEE10resizeLikeINS_12ArrayWrapperIS2_EEEEvRKNS_9EigenBaseIT_EE, symObjAddr: 0x1797C, symBinAddr: 0x100018388, symSize: 0x11C }
  - { offsetInCU: 0x8D014, offset: 0x8D014, size: 0x8, addend: 0x0, symName: __ZN5Eigen15PlainObjectBaseINS_6MatrixIdLin1ELin1ELi0ELin1ELin1EEEE12_set_noaliasINS_12ArrayWrapperIS2_EEEERS2_RKNS_9DenseBaseIT_EE, symObjAddr: 0x17A98, symBinAddr: 0x1000184A4, symSize: 0x60 }
  - { offsetInCU: 0x8D052, offset: 0x8D052, size: 0x8, addend: 0x0, symName: __ZNK5Eigen12ArrayWrapperINS_6MatrixIdLin1ELin1ELi0ELin1ELin1EEEE4rowsEv, symObjAddr: 0x17AF8, symBinAddr: 0x100018504, symSize: 0x28 }
  - { offsetInCU: 0x8D078, offset: 0x8D078, size: 0x8, addend: 0x0, symName: __ZNK5Eigen12ArrayWrapperINS_6MatrixIdLin1ELin1ELi0ELin1ELin1EEEE4colsEv, symObjAddr: 0x17B20, symBinAddr: 0x10001852C, symSize: 0x28 }
  - { offsetInCU: 0x8D09E, offset: 0x8D09E, size: 0x8, addend: 0x0, symName: __ZN5Eigen8internal10AssignmentINS_6MatrixIdLin1ELin1ELi0ELin1ELin1EEENS_12ArrayWrapperIS3_EENS0_9assign_opIddEENS0_11Dense2DenseEvE3runERS3_RKS5_RKS7_, symObjAddr: 0x17B84, symBinAddr: 0x100018590, symSize: 0x40 }
  - { offsetInCU: 0x8D0E0, offset: 0x8D0E0, size: 0x8, addend: 0x0, symName: __ZN5Eigen8internal27checkTransposeAliasing_implINS_6MatrixIdLin1ELin1ELi0ELin1ELin1EEENS_12ArrayWrapperIS3_EELb0EE3runERKS3_RKS5_, symObjAddr: 0x17CFC, symBinAddr: 0x100018708, symSize: 0x14 }
  - { offsetInCU: 0x8D10B, offset: 0x8D10B, size: 0x8, addend: 0x0, symName: __ZN5Eigen8internal9evaluatorINS_12ArrayWrapperINS_6MatrixIdLin1ELin1ELi0ELin1ELin1EEEEEEC1ERKS5_, symObjAddr: 0x17D10, symBinAddr: 0x10001871C, symSize: 0x34 }
  - { offsetInCU: 0x8D143, offset: 0x8D143, size: 0x8, addend: 0x0, symName: __ZN5Eigen8internal31generic_dense_assignment_kernelINS0_9evaluatorINS_6MatrixIdLin1ELin1ELi0ELin1ELin1EEEEENS2_INS_12ArrayWrapperIS4_EEEENS0_9assign_opIddEELi0EEC1ERS5_RKS8_RKSA_RS4_, symObjAddr: 0x17E3C, symBinAddr: 0x100018848, symSize: 0x4C }
  - { offsetInCU: 0x8D1A9, offset: 0x8D1A9, size: 0x8, addend: 0x0, symName: __ZN5Eigen8internal9evaluatorINS_12ArrayWrapperINS_6MatrixIdLin1ELin1ELi0ELin1ELin1EEEEEED1Ev, symObjAddr: 0x17F30, symBinAddr: 0x10001893C, symSize: 0x2C }
  - { offsetInCU: 0x8D1D5, offset: 0x8D1D5, size: 0x8, addend: 0x0, symName: __ZN5Eigen8internal9evaluatorINS_12ArrayWrapperINS_6MatrixIdLin1ELin1ELi0ELin1ELin1EEEEEEC2ERKS5_, symObjAddr: 0x17F5C, symBinAddr: 0x100018968, symSize: 0x34 }
  - { offsetInCU: 0x8D20D, offset: 0x8D20D, size: 0x8, addend: 0x0, symName: __ZN5Eigen8internal15unary_evaluatorINS_12ArrayWrapperINS_6MatrixIdLin1ELin1ELi0ELin1ELin1EEEEENS0_10IndexBasedEdEC2ERKS5_, symObjAddr: 0x17F90, symBinAddr: 0x10001899C, symSize: 0x40 }
  - { offsetInCU: 0x8D246, offset: 0x8D246, size: 0x8, addend: 0x0, symName: __ZNK5Eigen12ArrayWrapperINS_6MatrixIdLin1ELin1ELi0ELin1ELin1EEEE16nestedExpressionEv, symObjAddr: 0x17FD0, symBinAddr: 0x1000189DC, symSize: 0x18 }
  - { offsetInCU: 0x8D26C, offset: 0x8D26C, size: 0x8, addend: 0x0, symName: __ZN5Eigen8internal22evaluator_wrapper_baseINS_12ArrayWrapperINS_6MatrixIdLin1ELin1ELi0ELin1ELin1EEEEEEC2ERKS4_, symObjAddr: 0x17FE8, symBinAddr: 0x1000189F4, symSize: 0x64 }
  - { offsetInCU: 0x8D2A5, offset: 0x8D2A5, size: 0x8, addend: 0x0, symName: __ZN5Eigen8internal14evaluator_baseINS_12ArrayWrapperINS_6MatrixIdLin1ELin1ELi0ELin1ELin1EEEEEEC2Ev, symObjAddr: 0x1804C, symBinAddr: 0x100018A58, symSize: 0x14 }
  - { offsetInCU: 0x8D2CF, offset: 0x8D2CF, size: 0x8, addend: 0x0, symName: __ZN5Eigen8internal14evaluator_baseINS_12ArrayWrapperINS_6MatrixIdLin1ELin1ELi0ELin1ELin1EEEEEED2Ev, symObjAddr: 0x18060, symBinAddr: 0x100018A6C, symSize: 0x14 }
  - { offsetInCU: 0x8D2F9, offset: 0x8D2F9, size: 0x8, addend: 0x0, symName: __ZN5Eigen8internal31generic_dense_assignment_kernelINS0_9evaluatorINS_6MatrixIdLin1ELin1ELi0ELin1ELin1EEEEENS2_INS_12ArrayWrapperIS4_EEEENS0_9assign_opIddEELi0EEC2ERS5_RKS8_RKSA_RS4_, symObjAddr: 0x18074, symBinAddr: 0x100018A80, symSize: 0x44 }
  - { offsetInCU: 0x8D35F, offset: 0x8D35F, size: 0x8, addend: 0x0, symName: __ZNK5Eigen8internal31generic_dense_assignment_kernelINS0_9evaluatorINS_6MatrixIdLin1ELin1ELi0ELin1ELin1EEEEENS2_INS_12ArrayWrapperIS4_EEEENS0_9assign_opIddEELi0EE4sizeEv, symObjAddr: 0x180B8, symBinAddr: 0x100018AC4, symSize: 0x28 }
  - { offsetInCU: 0x8D385, offset: 0x8D385, size: 0x8, addend: 0x0, symName: __ZN5Eigen8internal31unaligned_dense_assignment_loopILb1EE3runINS0_31generic_dense_assignment_kernelINS0_9evaluatorINS_6MatrixIdLin1ELin1ELi0ELin1ELin1EEEEENS5_INS_12ArrayWrapperIS7_EEEENS0_9assign_opIddEELi0EEEEEvRT_ll, symObjAddr: 0x180E0, symBinAddr: 0x100018AEC, symSize: 0x18 }
  - { offsetInCU: 0x8D3C4, offset: 0x8D3C4, size: 0x8, addend: 0x0, symName: __ZN5Eigen8internal31generic_dense_assignment_kernelINS0_9evaluatorINS_6MatrixIdLin1ELin1ELi0ELin1ELin1EEEEENS2_INS_12ArrayWrapperIS4_EEEENS0_9assign_opIddEELi0EE12assignPacketILi16ELi16E19__simd128_float64_tEEvl, symObjAddr: 0x180F8, symBinAddr: 0x100018B04, symSize: 0x64 }
  - { offsetInCU: 0x8D416, offset: 0x8D416, size: 0x8, addend: 0x0, symName: __ZN5Eigen8internal31unaligned_dense_assignment_loopILb0EE3runINS0_31generic_dense_assignment_kernelINS0_9evaluatorINS_6MatrixIdLin1ELin1ELi0ELin1ELin1EEEEENS5_INS_12ArrayWrapperIS7_EEEENS0_9assign_opIddEELi0EEEEEvRT_ll, symObjAddr: 0x1815C, symBinAddr: 0x100018B68, symSize: 0x68 }
  - { offsetInCU: 0x8D47E, offset: 0x8D47E, size: 0x8, addend: 0x0, symName: __ZNK5Eigen8internal9assign_opIddE12assignPacketILi16E19__simd128_float64_tEEvPdRKT0_, symObjAddr: 0x181C4, symBinAddr: 0x100018BD0, symSize: 0x40 }
  - { offsetInCU: 0x8D4F9, offset: 0x8D4F9, size: 0x8, addend: 0x0, symName: __ZNK5Eigen8internal22evaluator_wrapper_baseINS_12ArrayWrapperINS_6MatrixIdLin1ELin1ELi0ELin1ELin1EEEEEE6packetILi16E19__simd128_float64_tEET0_l, symObjAddr: 0x18204, symBinAddr: 0x100018C10, symSize: 0x2C }
  - { offsetInCU: 0x8D541, offset: 0x8D541, size: 0x8, addend: 0x0, symName: __ZNK5Eigen8internal9evaluatorINS_15PlainObjectBaseINS_6MatrixIdLin1ELin1ELi0ELin1ELin1EEEEEE6packetILi16E19__simd128_float64_tEET0_l, symObjAddr: 0x1825C, symBinAddr: 0x100018C68, symSize: 0x3C }
  - { offsetInCU: 0x8D5A6, offset: 0x8D5A6, size: 0x8, addend: 0x0, symName: __ZN5Eigen8internal31generic_dense_assignment_kernelINS0_9evaluatorINS_6MatrixIdLin1ELin1ELi0ELin1ELin1EEEEENS2_INS_12ArrayWrapperIS4_EEEENS0_9assign_opIddEELi0EE11assignCoeffEl, symObjAddr: 0x18298, symBinAddr: 0x100018CA4, symSize: 0x60 }
  - { offsetInCU: 0x8D5DB, offset: 0x8D5DB, size: 0x8, addend: 0x0, symName: __ZNK5Eigen8internal22evaluator_wrapper_baseINS_12ArrayWrapperINS_6MatrixIdLin1ELin1ELi0ELin1ELin1EEEEEE5coeffEl, symObjAddr: 0x182F8, symBinAddr: 0x100018D04, symSize: 0x2C }
  - { offsetInCU: 0x8D610, offset: 0x8D610, size: 0x8, addend: 0x0, symName: __ZNK5Eigen8internal9evaluatorINS_15PlainObjectBaseINS_6MatrixIdLin1ELin1ELi0ELin1ELin1EEEEEE5coeffEl, symObjAddr: 0x18324, symBinAddr: 0x100018D30, symSize: 0x24 }
  - { offsetInCU: 0x8D644, offset: 0x8D644, size: 0x8, addend: 0x0, symName: __ZN5Eigen8internal9evaluatorINS_12ArrayWrapperINS_6MatrixIdLin1ELin1ELi0ELin1ELin1EEEEEED2Ev, symObjAddr: 0x18348, symBinAddr: 0x100018D54, symSize: 0x2C }
  - { offsetInCU: 0x8D670, offset: 0x8D670, size: 0x8, addend: 0x0, symName: __ZN5Eigen8internal15unary_evaluatorINS_12ArrayWrapperINS_6MatrixIdLin1ELin1ELi0ELin1ELin1EEEEENS0_10IndexBasedEdED2Ev, symObjAddr: 0x18374, symBinAddr: 0x100018D80, symSize: 0x2C }
  - { offsetInCU: 0x8D69D, offset: 0x8D69D, size: 0x8, addend: 0x0, symName: __ZN5Eigen8internal22evaluator_wrapper_baseINS_12ArrayWrapperINS_6MatrixIdLin1ELin1ELi0ELin1ELin1EEEEEED2Ev, symObjAddr: 0x183A0, symBinAddr: 0x100018DAC, symSize: 0x34 }
  - { offsetInCU: 0x8D6CA, offset: 0x8D6CA, size: 0x8, addend: 0x0, symName: __ZNK5Eigen10MatrixBaseINS_6MatrixIdLin1ELin1ELi0ELin1ELin1EEEE8cwiseMinINS_14CwiseNullaryOpINS_8internal18scalar_constant_opIdEES2_EEEEKNS_13CwiseBinaryOpINS6_13scalar_min_opIddLi0EEEKS2_KT_EERKNS0_ISE_EE, symObjAddr: 0x183D4, symBinAddr: 0x100018DE0, symSize: 0x60 }
  - { offsetInCU: 0x8D707, offset: 0x8D707, size: 0x8, addend: 0x0, symName: __ZN5Eigen13CwiseBinaryOpINS_8internal13scalar_min_opIddLi0EEEKNS_6MatrixIdLin1ELin1ELi0ELin1ELin1EEEKNS_14CwiseNullaryOpINS1_18scalar_constant_opIdEES5_EEEC1ERS6_RSB_RKS3_, symObjAddr: 0x18434, symBinAddr: 0x100018E40, symSize: 0x44 }
  - { offsetInCU: 0x8D75B, offset: 0x8D75B, size: 0x8, addend: 0x0, symName: __ZN5Eigen13CwiseBinaryOpINS_8internal13scalar_min_opIddLi0EEEKNS_6MatrixIdLin1ELin1ELi0ELin1ELin1EEEKNS_14CwiseNullaryOpINS1_18scalar_constant_opIdEES5_EEEC2ERS6_RSB_RKS3_, symObjAddr: 0x18478, symBinAddr: 0x100018E84, symSize: 0xF8 }
  - { offsetInCU: 0x8D7B4, offset: 0x8D7B4, size: 0x8, addend: 0x0, symName: __ZN5Eigen17CwiseBinaryOpImplINS_8internal13scalar_min_opIddLi0EEEKNS_6MatrixIdLin1ELin1ELi0ELin1ELin1EEEKNS_14CwiseNullaryOpINS1_18scalar_constant_opIdEES5_EENS_5DenseEEC2Ev, symObjAddr: 0x18570, symBinAddr: 0x100018F7C, symSize: 0x2C }
  - { offsetInCU: 0x8D7E0, offset: 0x8D7E0, size: 0x8, addend: 0x0, symName: __ZN5Eigen14CwiseNullaryOpINS_8internal18scalar_constant_opIdEENS_6MatrixIdLin1ELin1ELi0ELin1ELin1EEEEC1ERKS6_, symObjAddr: 0x1859C, symBinAddr: 0x100018FA8, symSize: 0x34 }
  - { offsetInCU: 0x8D815, offset: 0x8D815, size: 0x8, addend: 0x0, symName: __ZN5Eigen8internal13scalar_min_opIddLi0EEC1ERKS2_, symObjAddr: 0x185D0, symBinAddr: 0x100018FDC, symSize: 0x34 }
  - { offsetInCU: 0x8D84A, offset: 0x8D84A, size: 0x8, addend: 0x0, symName: __ZN5Eigen10MatrixBaseINS_13CwiseBinaryOpINS_8internal13scalar_min_opIddLi0EEEKNS_6MatrixIdLin1ELin1ELi0ELin1ELin1EEEKNS_14CwiseNullaryOpINS2_18scalar_constant_opIdEES6_EEEEEC2Ev, symObjAddr: 0x18604, symBinAddr: 0x100019010, symSize: 0x2C }
  - { offsetInCU: 0x8D874, offset: 0x8D874, size: 0x8, addend: 0x0, symName: __ZN5Eigen9DenseBaseINS_13CwiseBinaryOpINS_8internal13scalar_min_opIddLi0EEEKNS_6MatrixIdLin1ELin1ELi0ELin1ELin1EEEKNS_14CwiseNullaryOpINS2_18scalar_constant_opIdEES6_EEEEEC2Ev, symObjAddr: 0x18630, symBinAddr: 0x10001903C, symSize: 0x14 }
  - { offsetInCU: 0x8D89E, offset: 0x8D89E, size: 0x8, addend: 0x0, symName: __ZN5Eigen14CwiseNullaryOpINS_8internal18scalar_constant_opIdEENS_6MatrixIdLin1ELin1ELi0ELin1ELin1EEEEC2ERKS6_, symObjAddr: 0x18644, symBinAddr: 0x100019050, symSize: 0x48 }
  - { offsetInCU: 0x8D8D3, offset: 0x8D8D3, size: 0x8, addend: 0x0, symName: __ZN5Eigen8internal13scalar_min_opIddLi0EEC2ERKS2_, symObjAddr: 0x1868C, symBinAddr: 0x100019098, symSize: 0x18 }
  - { offsetInCU: 0x8D908, offset: 0x8D908, size: 0x8, addend: 0x0, symName: __ZN5Eigen15PlainObjectBaseINS_6MatrixIdLin1ELin1ELi0ELin1ELin1EEEE4_setINS_13CwiseBinaryOpINS_8internal13scalar_min_opIddLi0EEEKS2_KNS_14CwiseNullaryOpINS6_18scalar_constant_opIdEES2_EEEEEERS2_RKNS_9DenseBaseIT_EE, symObjAddr: 0x186A4, symBinAddr: 0x1000190B0, symSize: 0x4C }
  - { offsetInCU: 0x8D946, offset: 0x8D946, size: 0x8, addend: 0x0, symName: __ZNK5Eigen9EigenBaseINS_13CwiseBinaryOpINS_8internal13scalar_min_opIddLi0EEEKNS_6MatrixIdLin1ELin1ELi0ELin1ELin1EEEKNS_14CwiseNullaryOpINS2_18scalar_constant_opIdEES6_EEEEE7derivedEv, symObjAddr: 0x18740, symBinAddr: 0x10001914C, symSize: 0x14 }
  - { offsetInCU: 0x8D96C, offset: 0x8D96C, size: 0x8, addend: 0x0, symName: __ZN5Eigen8internal10AssignmentINS_6MatrixIdLin1ELin1ELi0ELin1ELin1EEENS_13CwiseBinaryOpINS0_13scalar_min_opIddLi0EEEKS3_KNS_14CwiseNullaryOpINS0_18scalar_constant_opIdEES3_EEEENS0_9assign_opIddEENS0_11Dense2DenseEvE3runERS3_RKSD_RKSF_, symObjAddr: 0x187C8, symBinAddr: 0x1000191D4, symSize: 0x40 }
  - { offsetInCU: 0x8D9AE, offset: 0x8D9AE, size: 0x8, addend: 0x0, symName: __ZN5Eigen8internal27checkTransposeAliasing_implINS_6MatrixIdLin1ELin1ELi0ELin1ELin1EEENS_13CwiseBinaryOpINS0_13scalar_min_opIddLi0EEEKS3_KNS_14CwiseNullaryOpINS0_18scalar_constant_opIdEES3_EEEELb0EE3runERS7_RKSD_, symObjAddr: 0x18940, symBinAddr: 0x10001934C, symSize: 0x14 }
  - { offsetInCU: 0x8D9D9, offset: 0x8D9D9, size: 0x8, addend: 0x0, symName: __ZN5Eigen8internal9evaluatorINS_13CwiseBinaryOpINS0_13scalar_min_opIddLi0EEEKNS_6MatrixIdLin1ELin1ELi0ELin1ELin1EEEKNS_14CwiseNullaryOpINS0_18scalar_constant_opIdEES6_EEEEEC1ERKSD_, symObjAddr: 0x18954, symBinAddr: 0x100019360, symSize: 0x34 }
  - { offsetInCU: 0x8DA12, offset: 0x8DA12, size: 0x8, addend: 0x0, symName: __ZN5Eigen8internal31generic_dense_assignment_kernelINS0_9evaluatorINS_6MatrixIdLin1ELin1ELi0ELin1ELin1EEEEENS2_INS_13CwiseBinaryOpINS0_13scalar_min_opIddLi0EEEKS4_KNS_14CwiseNullaryOpINS0_18scalar_constant_opIdEES4_EEEEEENS0_9assign_opIddEELi0EEC1ERS5_RKSG_RKSI_RS4_, symObjAddr: 0x18A80, symBinAddr: 0x10001948C, symSize: 0x4C }
  - { offsetInCU: 0x8DA78, offset: 0x8DA78, size: 0x8, addend: 0x0, symName: __ZN5Eigen8internal9evaluatorINS_13CwiseBinaryOpINS0_13scalar_min_opIddLi0EEEKNS_6MatrixIdLin1ELin1ELi0ELin1ELin1EEEKNS_14CwiseNullaryOpINS0_18scalar_constant_opIdEES6_EEEEED1Ev, symObjAddr: 0x18B74, symBinAddr: 0x100019580, symSize: 0x2C }
  - { offsetInCU: 0x8DAA5, offset: 0x8DAA5, size: 0x8, addend: 0x0, symName: __ZN5Eigen8internal9evaluatorINS_13CwiseBinaryOpINS0_13scalar_min_opIddLi0EEEKNS_6MatrixIdLin1ELin1ELi0ELin1ELin1EEEKNS_14CwiseNullaryOpINS0_18scalar_constant_opIdEES6_EEEEEC2ERKSD_, symObjAddr: 0x18BA0, symBinAddr: 0x1000195AC, symSize: 0x34 }
  - { offsetInCU: 0x8DADE, offset: 0x8DADE, size: 0x8, addend: 0x0, symName: __ZN5Eigen8internal16binary_evaluatorINS_13CwiseBinaryOpINS0_13scalar_min_opIddLi0EEEKNS_6MatrixIdLin1ELin1ELi0ELin1ELin1EEEKNS_14CwiseNullaryOpINS0_18scalar_constant_opIdEES6_EEEENS0_10IndexBasedESE_ddEC2ERKSD_, symObjAddr: 0x18BD4, symBinAddr: 0x1000195E0, symSize: 0x64 }
  - { offsetInCU: 0x8DB17, offset: 0x8DB17, size: 0x8, addend: 0x0, symName: __ZN5Eigen8internal14evaluator_baseINS_13CwiseBinaryOpINS0_13scalar_min_opIddLi0EEEKNS_6MatrixIdLin1ELin1ELi0ELin1ELin1EEEKNS_14CwiseNullaryOpINS0_18scalar_constant_opIdEES6_EEEEEC2Ev, symObjAddr: 0x18C38, symBinAddr: 0x100019644, symSize: 0x14 }
  - { offsetInCU: 0x8DB41, offset: 0x8DB41, size: 0x8, addend: 0x0, symName: __ZN5Eigen8internal16binary_evaluatorINS_13CwiseBinaryOpINS0_13scalar_min_opIddLi0EEEKNS_6MatrixIdLin1ELin1ELi0ELin1ELin1EEEKNS_14CwiseNullaryOpINS0_18scalar_constant_opIdEES6_EEEENS0_10IndexBasedESE_ddE4DataC1ERKSD_, symObjAddr: 0x18C4C, symBinAddr: 0x100019658, symSize: 0x34 }
  - { offsetInCU: 0x8DB7A, offset: 0x8DB7A, size: 0x8, addend: 0x0, symName: __ZN5Eigen8internal14evaluator_baseINS_13CwiseBinaryOpINS0_13scalar_min_opIddLi0EEEKNS_6MatrixIdLin1ELin1ELi0ELin1ELin1EEEKNS_14CwiseNullaryOpINS0_18scalar_constant_opIdEES6_EEEEED2Ev, symObjAddr: 0x18C80, symBinAddr: 0x10001968C, symSize: 0x14 }
  - { offsetInCU: 0x8DBA4, offset: 0x8DBA4, size: 0x8, addend: 0x0, symName: __ZN5Eigen8internal16binary_evaluatorINS_13CwiseBinaryOpINS0_13scalar_min_opIddLi0EEEKNS_6MatrixIdLin1ELin1ELi0ELin1ELin1EEEKNS_14CwiseNullaryOpINS0_18scalar_constant_opIdEES6_EEEENS0_10IndexBasedESE_ddE4DataC2ERKSD_, symObjAddr: 0x18C94, symBinAddr: 0x1000196A0, symSize: 0xA8 }
  - { offsetInCU: 0x8DBDD, offset: 0x8DBDD, size: 0x8, addend: 0x0, symName: __ZNK5Eigen13CwiseBinaryOpINS_8internal13scalar_min_opIddLi0EEEKNS_6MatrixIdLin1ELin1ELi0ELin1ELin1EEEKNS_14CwiseNullaryOpINS1_18scalar_constant_opIdEES5_EEE7functorEv, symObjAddr: 0x18D3C, symBinAddr: 0x100019748, symSize: 0x18 }
  - { offsetInCU: 0x8DC03, offset: 0x8DC03, size: 0x8, addend: 0x0, symName: __ZNK5Eigen13CwiseBinaryOpINS_8internal13scalar_min_opIddLi0EEEKNS_6MatrixIdLin1ELin1ELi0ELin1ELin1EEEKNS_14CwiseNullaryOpINS1_18scalar_constant_opIdEES5_EEE3lhsEv, symObjAddr: 0x18D54, symBinAddr: 0x100019760, symSize: 0x18 }
  - { offsetInCU: 0x8DC29, offset: 0x8DC29, size: 0x8, addend: 0x0, symName: __ZN5Eigen8internal9evaluatorIKNS_6MatrixIdLin1ELin1ELi0ELin1ELin1EEEEC1ERS4_, symObjAddr: 0x18D6C, symBinAddr: 0x100019778, symSize: 0x34 }
  - { offsetInCU: 0x8DC61, offset: 0x8DC61, size: 0x8, addend: 0x0, symName: __ZNK5Eigen13CwiseBinaryOpINS_8internal13scalar_min_opIddLi0EEEKNS_6MatrixIdLin1ELin1ELi0ELin1ELin1EEEKNS_14CwiseNullaryOpINS1_18scalar_constant_opIdEES5_EEE3rhsEv, symObjAddr: 0x18DA0, symBinAddr: 0x1000197AC, symSize: 0x18 }
  - { offsetInCU: 0x8DC87, offset: 0x8DC87, size: 0x8, addend: 0x0, symName: __ZN5Eigen8internal9evaluatorIKNS_14CwiseNullaryOpINS0_18scalar_constant_opIdEENS_6MatrixIdLin1ELin1ELi0ELin1ELin1EEEEEEC1ERS8_, symObjAddr: 0x18DB8, symBinAddr: 0x1000197C4, symSize: 0x34 }
  - { offsetInCU: 0x8DCBF, offset: 0x8DCBF, size: 0x8, addend: 0x0, symName: __ZN5Eigen8internal9evaluatorIKNS_6MatrixIdLin1ELin1ELi0ELin1ELin1EEEED1Ev, symObjAddr: 0x18DEC, symBinAddr: 0x1000197F8, symSize: 0x2C }
  - { offsetInCU: 0x8DCEB, offset: 0x8DCEB, size: 0x8, addend: 0x0, symName: __ZN5Eigen8internal9evaluatorIKNS_6MatrixIdLin1ELin1ELi0ELin1ELin1EEEEC2ERS4_, symObjAddr: 0x18E18, symBinAddr: 0x100019824, symSize: 0x34 }
  - { offsetInCU: 0x8DD23, offset: 0x8DD23, size: 0x8, addend: 0x0, symName: __ZN5Eigen8internal9evaluatorIKNS_14CwiseNullaryOpINS0_18scalar_constant_opIdEENS_6MatrixIdLin1ELin1ELi0ELin1ELin1EEEEEEC2ERS8_, symObjAddr: 0x18E4C, symBinAddr: 0x100019858, symSize: 0x34 }
  - { offsetInCU: 0x8DD5B, offset: 0x8DD5B, size: 0x8, addend: 0x0, symName: __ZN5Eigen8internal9evaluatorINS_14CwiseNullaryOpINS0_18scalar_constant_opIdEENS_6MatrixIdLin1ELin1ELi0ELin1ELin1EEEEEEC2ERKS7_, symObjAddr: 0x18E80, symBinAddr: 0x10001988C, symSize: 0x6C }
  - { offsetInCU: 0x8DD94, offset: 0x8DD94, size: 0x8, addend: 0x0, symName: __ZN5Eigen8internal14evaluator_baseINS_14CwiseNullaryOpINS0_18scalar_constant_opIdEENS_6MatrixIdLin1ELin1ELi0ELin1ELin1EEEEEEC2Ev, symObjAddr: 0x18EEC, symBinAddr: 0x1000198F8, symSize: 0x14 }
  - { offsetInCU: 0x8DDBE, offset: 0x8DDBE, size: 0x8, addend: 0x0, symName: __ZN5Eigen8internal14evaluator_baseINS_14CwiseNullaryOpINS0_18scalar_constant_opIdEENS_6MatrixIdLin1ELin1ELi0ELin1ELin1EEEEEED2Ev, symObjAddr: 0x18F00, symBinAddr: 0x10001990C, symSize: 0x14 }
  - { offsetInCU: 0x8DDE8, offset: 0x8DDE8, size: 0x8, addend: 0x0, symName: __ZN5Eigen8internal9evaluatorIKNS_6MatrixIdLin1ELin1ELi0ELin1ELin1EEEED2Ev, symObjAddr: 0x18F14, symBinAddr: 0x100019920, symSize: 0x2C }
  - { offsetInCU: 0x8DE14, offset: 0x8DE14, size: 0x8, addend: 0x0, symName: __ZNK5Eigen13CwiseBinaryOpINS_8internal13scalar_min_opIddLi0EEEKNS_6MatrixIdLin1ELin1ELi0ELin1ELin1EEEKNS_14CwiseNullaryOpINS1_18scalar_constant_opIdEES5_EEE4rowsEv, symObjAddr: 0x18F40, symBinAddr: 0x10001994C, symSize: 0x28 }
  - { offsetInCU: 0x8DE3A, offset: 0x8DE3A, size: 0x8, addend: 0x0, symName: __ZNK5Eigen13CwiseBinaryOpINS_8internal13scalar_min_opIddLi0EEEKNS_6MatrixIdLin1ELin1ELi0ELin1ELin1EEEKNS_14CwiseNullaryOpINS1_18scalar_constant_opIdEES5_EEE4colsEv, symObjAddr: 0x18F68, symBinAddr: 0x100019974, symSize: 0x28 }
  - { offsetInCU: 0x8DE60, offset: 0x8DE60, size: 0x8, addend: 0x0, symName: __ZN5Eigen8internal31generic_dense_assignment_kernelINS0_9evaluatorINS_6MatrixIdLin1ELin1ELi0ELin1ELin1EEEEENS2_INS_13CwiseBinaryOpINS0_13scalar_min_opIddLi0EEEKS4_KNS_14CwiseNullaryOpINS0_18scalar_constant_opIdEES4_EEEEEENS0_9assign_opIddEELi0EEC2ERS5_RKSG_RKSI_RS4_, symObjAddr: 0x18F90, symBinAddr: 0x10001999C, symSize: 0x44 }
  - { offsetInCU: 0x8DEC6, offset: 0x8DEC6, size: 0x8, addend: 0x0, symName: __ZNK5Eigen8internal31generic_dense_assignment_kernelINS0_9evaluatorINS_6MatrixIdLin1ELin1ELi0ELin1ELin1EEEEENS2_INS_13CwiseBinaryOpINS0_13scalar_min_opIddLi0EEEKS4_KNS_14CwiseNullaryOpINS0_18scalar_constant_opIdEES4_EEEEEENS0_9assign_opIddEELi0EE4sizeEv, symObjAddr: 0x18FD4, symBinAddr: 0x1000199E0, symSize: 0x28 }
  - { offsetInCU: 0x8DEEC, offset: 0x8DEEC, size: 0x8, addend: 0x0, symName: __ZN5Eigen8internal31unaligned_dense_assignment_loopILb1EE3runINS0_31generic_dense_assignment_kernelINS0_9evaluatorINS_6MatrixIdLin1ELin1ELi0ELin1ELin1EEEEENS5_INS_13CwiseBinaryOpINS0_13scalar_min_opIddLi0EEEKS7_KNS_14CwiseNullaryOpINS0_18scalar_constant_opIdEES7_EEEEEENS0_9assign_opIddEELi0EEEEEvRT_ll, symObjAddr: 0x18FFC, symBinAddr: 0x100019A08, symSize: 0x18 }
  - { offsetInCU: 0x8DF2B, offset: 0x8DF2B, size: 0x8, addend: 0x0, symName: __ZN5Eigen8internal31generic_dense_assignment_kernelINS0_9evaluatorINS_6MatrixIdLin1ELin1ELi0ELin1ELin1EEEEENS2_INS_13CwiseBinaryOpINS0_13scalar_min_opIddLi0EEEKS4_KNS_14CwiseNullaryOpINS0_18scalar_constant_opIdEES4_EEEEEENS0_9assign_opIddEELi0EE12assignPacketILi16ELi16E19__simd128_float64_tEEvl, symObjAddr: 0x19014, symBinAddr: 0x100019A20, symSize: 0x64 }
  - { offsetInCU: 0x8DF7D, offset: 0x8DF7D, size: 0x8, addend: 0x0, symName: __ZN5Eigen8internal31unaligned_dense_assignment_loopILb0EE3runINS0_31generic_dense_assignment_kernelINS0_9evaluatorINS_6MatrixIdLin1ELin1ELi0ELin1ELin1EEEEENS5_INS_13CwiseBinaryOpINS0_13scalar_min_opIddLi0EEEKS7_KNS_14CwiseNullaryOpINS0_18scalar_constant_opIdEES7_EEEEEENS0_9assign_opIddEELi0EEEEEvRT_ll, symObjAddr: 0x19078, symBinAddr: 0x100019A84, symSize: 0x68 }
  - { offsetInCU: 0x8DFE5, offset: 0x8DFE5, size: 0x8, addend: 0x0, symName: __ZNK5Eigen8internal16binary_evaluatorINS_13CwiseBinaryOpINS0_13scalar_min_opIddLi0EEEKNS_6MatrixIdLin1ELin1ELi0ELin1ELin1EEEKNS_14CwiseNullaryOpINS0_18scalar_constant_opIdEES6_EEEENS0_10IndexBasedESE_ddE6packetILi16E19__simd128_float64_tEET0_l, symObjAddr: 0x190E0, symBinAddr: 0x100019AEC, symSize: 0x70 }
  - { offsetInCU: 0x8E02D, offset: 0x8E02D, size: 0x8, addend: 0x0, symName: __ZNK5Eigen8internal16binary_evaluatorINS_13CwiseBinaryOpINS0_13scalar_min_opIddLi0EEEKNS_6MatrixIdLin1ELin1ELi0ELin1ELin1EEEKNS_14CwiseNullaryOpINS0_18scalar_constant_opIdEES6_EEEENS0_10IndexBasedESE_ddE4Data4funcEv, symObjAddr: 0x19150, symBinAddr: 0x100019B5C, symSize: 0x14 }
  - { offsetInCU: 0x8E05D, offset: 0x8E05D, size: 0x8, addend: 0x0, symName: __ZNK5Eigen8internal9evaluatorINS_14CwiseNullaryOpINS0_18scalar_constant_opIdEENS_6MatrixIdLin1ELin1ELi0ELin1ELin1EEEEEE6packetILi16E19__simd128_float64_tlEET0_T1_, symObjAddr: 0x19164, symBinAddr: 0x100019B70, symSize: 0x38 }
  - { offsetInCU: 0x8E0AE, offset: 0x8E0AE, size: 0x8, addend: 0x0, symName: __ZNK5Eigen8internal15nullary_wrapperIdNS0_18scalar_constant_opIdEELb1ELb0ELb0EE8packetOpI19__simd128_float64_tlEET_RKS3_T0_SA_, symObjAddr: 0x1919C, symBinAddr: 0x100019BA8, symSize: 0x30 }
  - { offsetInCU: 0x8E10B, offset: 0x8E10B, size: 0x8, addend: 0x0, symName: __ZNK5Eigen8internal18scalar_constant_opIdE8packetOpI19__simd128_float64_tEEKT_v, symObjAddr: 0x191CC, symBinAddr: 0x100019BD8, symSize: 0x24 }
  - { offsetInCU: 0x8E13A, offset: 0x8E13A, size: 0x8, addend: 0x0, symName: __ZN5Eigen8internal31generic_dense_assignment_kernelINS0_9evaluatorINS_6MatrixIdLin1ELin1ELi0ELin1ELin1EEEEENS2_INS_13CwiseBinaryOpINS0_13scalar_min_opIddLi0EEEKS4_KNS_14CwiseNullaryOpINS0_18scalar_constant_opIdEES4_EEEEEENS0_9assign_opIddEELi0EE11assignCoeffEl, symObjAddr: 0x19234, symBinAddr: 0x100019C40, symSize: 0x64 }
  - { offsetInCU: 0x8E16F, offset: 0x8E16F, size: 0x8, addend: 0x0, symName: __ZNK5Eigen8internal16binary_evaluatorINS_13CwiseBinaryOpINS0_13scalar_min_opIddLi0EEEKNS_6MatrixIdLin1ELin1ELi0ELin1ELin1EEEKNS_14CwiseNullaryOpINS0_18scalar_constant_opIdEES6_EEEENS0_10IndexBasedESE_ddE5coeffEl, symObjAddr: 0x19298, symBinAddr: 0x100019CA4, symSize: 0x68 }
  - { offsetInCU: 0x8E1A4, offset: 0x8E1A4, size: 0x8, addend: 0x0, symName: __ZNK5Eigen8internal9evaluatorINS_14CwiseNullaryOpINS0_18scalar_constant_opIdEENS_6MatrixIdLin1ELin1ELi0ELin1ELin1EEEEEE5coeffIlEEdT_, symObjAddr: 0x19300, symBinAddr: 0x100019D0C, symSize: 0x38 }
  - { offsetInCU: 0x8E1E2, offset: 0x8E1E2, size: 0x8, addend: 0x0, symName: __ZN5Eigen8internal9evaluatorINS_13CwiseBinaryOpINS0_13scalar_min_opIddLi0EEEKNS_6MatrixIdLin1ELin1ELi0ELin1ELin1EEEKNS_14CwiseNullaryOpINS0_18scalar_constant_opIdEES6_EEEEED2Ev, symObjAddr: 0x19338, symBinAddr: 0x100019D44, symSize: 0x2C }
  - { offsetInCU: 0x8E20F, offset: 0x8E20F, size: 0x8, addend: 0x0, symName: __ZN5Eigen8internal16binary_evaluatorINS_13CwiseBinaryOpINS0_13scalar_min_opIddLi0EEEKNS_6MatrixIdLin1ELin1ELi0ELin1ELin1EEEKNS_14CwiseNullaryOpINS0_18scalar_constant_opIdEES6_EEEENS0_10IndexBasedESE_ddED2Ev, symObjAddr: 0x19364, symBinAddr: 0x100019D70, symSize: 0x34 }
  - { offsetInCU: 0x8E23B, offset: 0x8E23B, size: 0x8, addend: 0x0, symName: __ZN5Eigen8internal16binary_evaluatorINS_13CwiseBinaryOpINS0_13scalar_min_opIddLi0EEEKNS_6MatrixIdLin1ELin1ELi0ELin1ELin1EEEKNS_14CwiseNullaryOpINS0_18scalar_constant_opIdEES6_EEEENS0_10IndexBasedESE_ddE4DataD1Ev, symObjAddr: 0x19398, symBinAddr: 0x100019DA4, symSize: 0x2C }
  - { offsetInCU: 0x8E268, offset: 0x8E268, size: 0x8, addend: 0x0, symName: __ZN5Eigen8internal16binary_evaluatorINS_13CwiseBinaryOpINS0_13scalar_min_opIddLi0EEEKNS_6MatrixIdLin1ELin1ELi0ELin1ELin1EEEKNS_14CwiseNullaryOpINS0_18scalar_constant_opIdEES6_EEEENS0_10IndexBasedESE_ddE4DataD2Ev, symObjAddr: 0x193C4, symBinAddr: 0x100019DD0, symSize: 0x3C }
  - { offsetInCU: 0x8E295, offset: 0x8E295, size: 0x8, addend: 0x0, symName: __ZN5Eigen8internal9evaluatorIKNS_14CwiseNullaryOpINS0_18scalar_constant_opIdEENS_6MatrixIdLin1ELin1ELi0ELin1ELin1EEEEEED1Ev, symObjAddr: 0x19400, symBinAddr: 0x100019E0C, symSize: 0x2C }
  - { offsetInCU: 0x8E2C1, offset: 0x8E2C1, size: 0x8, addend: 0x0, symName: __ZN5Eigen8internal9evaluatorIKNS_14CwiseNullaryOpINS0_18scalar_constant_opIdEENS_6MatrixIdLin1ELin1ELi0ELin1ELin1EEEEEED2Ev, symObjAddr: 0x1942C, symBinAddr: 0x100019E38, symSize: 0x2C }
  - { offsetInCU: 0x8E2ED, offset: 0x8E2ED, size: 0x8, addend: 0x0, symName: __ZN5Eigen8internal9evaluatorINS_14CwiseNullaryOpINS0_18scalar_constant_opIdEENS_6MatrixIdLin1ELin1ELi0ELin1ELin1EEEEEED2Ev, symObjAddr: 0x19458, symBinAddr: 0x100019E64, symSize: 0x2C }
  - { offsetInCU: 0x8E319, offset: 0x8E319, size: 0x8, addend: 0x0, symName: __ZNK5Eigen10MatrixBaseINS_6MatrixIdLin1ELin1ELi0ELin1ELin1EEEE8cwiseMaxINS_14CwiseNullaryOpINS_8internal18scalar_constant_opIdEES2_EEEEKNS_13CwiseBinaryOpINS6_13scalar_max_opIddLi0EEEKS2_KT_EERKNS0_ISE_EE, symObjAddr: 0x19484, symBinAddr: 0x100019E90, symSize: 0x60 }
  - { offsetInCU: 0x8E356, offset: 0x8E356, size: 0x8, addend: 0x0, symName: __ZN5Eigen8internal13scalar_max_opIddLi0EEC1Ev, symObjAddr: 0x194E4, symBinAddr: 0x100019EF0, symSize: 0x2C }
  - { offsetInCU: 0x8E380, offset: 0x8E380, size: 0x8, addend: 0x0, symName: __ZN5Eigen13CwiseBinaryOpINS_8internal13scalar_max_opIddLi0EEEKNS_6MatrixIdLin1ELin1ELi0ELin1ELin1EEEKNS_14CwiseNullaryOpINS1_18scalar_constant_opIdEES5_EEEC1ERS6_RSB_RKS3_, symObjAddr: 0x19510, symBinAddr: 0x100019F1C, symSize: 0x44 }
  - { offsetInCU: 0x8E3D4, offset: 0x8E3D4, size: 0x8, addend: 0x0, symName: __ZN5Eigen8internal13scalar_max_opIddLi0EEC2Ev, symObjAddr: 0x19554, symBinAddr: 0x100019F60, symSize: 0x14 }
  - { offsetInCU: 0x8E3FE, offset: 0x8E3FE, size: 0x8, addend: 0x0, symName: __ZN5Eigen13CwiseBinaryOpINS_8internal13scalar_max_opIddLi0EEEKNS_6MatrixIdLin1ELin1ELi0ELin1ELin1EEEKNS_14CwiseNullaryOpINS1_18scalar_constant_opIdEES5_EEEC2ERS6_RSB_RKS3_, symObjAddr: 0x19568, symBinAddr: 0x100019F74, symSize: 0xF8 }
  - { offsetInCU: 0x8E457, offset: 0x8E457, size: 0x8, addend: 0x0, symName: __ZN5Eigen17CwiseBinaryOpImplINS_8internal13scalar_max_opIddLi0EEEKNS_6MatrixIdLin1ELin1ELi0ELin1ELin1EEEKNS_14CwiseNullaryOpINS1_18scalar_constant_opIdEES5_EENS_5DenseEEC2Ev, symObjAddr: 0x19660, symBinAddr: 0x10001A06C, symSize: 0x2C }
  - { offsetInCU: 0x8E483, offset: 0x8E483, size: 0x8, addend: 0x0, symName: __ZN5Eigen8internal13scalar_max_opIddLi0EEC1ERKS2_, symObjAddr: 0x1968C, symBinAddr: 0x10001A098, symSize: 0x34 }
  - { offsetInCU: 0x8E4B8, offset: 0x8E4B8, size: 0x8, addend: 0x0, symName: __ZN5Eigen10MatrixBaseINS_13CwiseBinaryOpINS_8internal13scalar_max_opIddLi0EEEKNS_6MatrixIdLin1ELin1ELi0ELin1ELin1EEEKNS_14CwiseNullaryOpINS2_18scalar_constant_opIdEES6_EEEEEC2Ev, symObjAddr: 0x196C0, symBinAddr: 0x10001A0CC, symSize: 0x2C }
  - { offsetInCU: 0x8E4E2, offset: 0x8E4E2, size: 0x8, addend: 0x0, symName: __ZN5Eigen9DenseBaseINS_13CwiseBinaryOpINS_8internal13scalar_max_opIddLi0EEEKNS_6MatrixIdLin1ELin1ELi0ELin1ELin1EEEKNS_14CwiseNullaryOpINS2_18scalar_constant_opIdEES6_EEEEEC2Ev, symObjAddr: 0x196EC, symBinAddr: 0x10001A0F8, symSize: 0x14 }
  - { offsetInCU: 0x8E50C, offset: 0x8E50C, size: 0x8, addend: 0x0, symName: __ZN5Eigen8internal13scalar_max_opIddLi0EEC2ERKS2_, symObjAddr: 0x19700, symBinAddr: 0x10001A10C, symSize: 0x18 }
  - { offsetInCU: 0x8E541, offset: 0x8E541, size: 0x8, addend: 0x0, symName: __ZN5Eigen15PlainObjectBaseINS_6MatrixIdLin1ELin1ELi0ELin1ELin1EEEE4_setINS_13CwiseBinaryOpINS_8internal13scalar_max_opIddLi0EEEKS2_KNS_14CwiseNullaryOpINS6_18scalar_constant_opIdEES2_EEEEEERS2_RKNS_9DenseBaseIT_EE, symObjAddr: 0x19718, symBinAddr: 0x10001A124, symSize: 0x4C }
  - { offsetInCU: 0x8E57F, offset: 0x8E57F, size: 0x8, addend: 0x0, symName: __ZNK5Eigen9EigenBaseINS_13CwiseBinaryOpINS_8internal13scalar_max_opIddLi0EEEKNS_6MatrixIdLin1ELin1ELi0ELin1ELin1EEEKNS_14CwiseNullaryOpINS2_18scalar_constant_opIdEES6_EEEEE7derivedEv, symObjAddr: 0x197B4, symBinAddr: 0x10001A1C0, symSize: 0x14 }
  - { offsetInCU: 0x8E5A5, offset: 0x8E5A5, size: 0x8, addend: 0x0, symName: __ZN5Eigen8internal10AssignmentINS_6MatrixIdLin1ELin1ELi0ELin1ELin1EEENS_13CwiseBinaryOpINS0_13scalar_max_opIddLi0EEEKS3_KNS_14CwiseNullaryOpINS0_18scalar_constant_opIdEES3_EEEENS0_9assign_opIddEENS0_11Dense2DenseEvE3runERS3_RKSD_RKSF_, symObjAddr: 0x1983C, symBinAddr: 0x10001A248, symSize: 0x40 }
  - { offsetInCU: 0x8E5E7, offset: 0x8E5E7, size: 0x8, addend: 0x0, symName: __ZN5Eigen8internal27checkTransposeAliasing_implINS_6MatrixIdLin1ELin1ELi0ELin1ELin1EEENS_13CwiseBinaryOpINS0_13scalar_max_opIddLi0EEEKS3_KNS_14CwiseNullaryOpINS0_18scalar_constant_opIdEES3_EEEELb0EE3runERS7_RKSD_, symObjAddr: 0x199B4, symBinAddr: 0x10001A3C0, symSize: 0x14 }
  - { offsetInCU: 0x8E612, offset: 0x8E612, size: 0x8, addend: 0x0, symName: __ZN5Eigen8internal9evaluatorINS_13CwiseBinaryOpINS0_13scalar_max_opIddLi0EEEKNS_6MatrixIdLin1ELin1ELi0ELin1ELin1EEEKNS_14CwiseNullaryOpINS0_18scalar_constant_opIdEES6_EEEEEC1ERKSD_, symObjAddr: 0x199C8, symBinAddr: 0x10001A3D4, symSize: 0x34 }
  - { offsetInCU: 0x8E64B, offset: 0x8E64B, size: 0x8, addend: 0x0, symName: __ZN5Eigen8internal31generic_dense_assignment_kernelINS0_9evaluatorINS_6MatrixIdLin1ELin1ELi0ELin1ELin1EEEEENS2_INS_13CwiseBinaryOpINS0_13scalar_max_opIddLi0EEEKS4_KNS_14CwiseNullaryOpINS0_18scalar_constant_opIdEES4_EEEEEENS0_9assign_opIddEELi0EEC1ERS5_RKSG_RKSI_RS4_, symObjAddr: 0x19AF4, symBinAddr: 0x10001A500, symSize: 0x4C }
  - { offsetInCU: 0x8E6B1, offset: 0x8E6B1, size: 0x8, addend: 0x0, symName: __ZN5Eigen8internal9evaluatorINS_13CwiseBinaryOpINS0_13scalar_max_opIddLi0EEEKNS_6MatrixIdLin1ELin1ELi0ELin1ELin1EEEKNS_14CwiseNullaryOpINS0_18scalar_constant_opIdEES6_EEEEED1Ev, symObjAddr: 0x19BE8, symBinAddr: 0x10001A5F4, symSize: 0x2C }
  - { offsetInCU: 0x8E6DE, offset: 0x8E6DE, size: 0x8, addend: 0x0, symName: __ZN5Eigen8internal9evaluatorINS_13CwiseBinaryOpINS0_13scalar_max_opIddLi0EEEKNS_6MatrixIdLin1ELin1ELi0ELin1ELin1EEEKNS_14CwiseNullaryOpINS0_18scalar_constant_opIdEES6_EEEEEC2ERKSD_, symObjAddr: 0x19C14, symBinAddr: 0x10001A620, symSize: 0x34 }
  - { offsetInCU: 0x8E717, offset: 0x8E717, size: 0x8, addend: 0x0, symName: __ZN5Eigen8internal16binary_evaluatorINS_13CwiseBinaryOpINS0_13scalar_max_opIddLi0EEEKNS_6MatrixIdLin1ELin1ELi0ELin1ELin1EEEKNS_14CwiseNullaryOpINS0_18scalar_constant_opIdEES6_EEEENS0_10IndexBasedESE_ddEC2ERKSD_, symObjAddr: 0x19C48, symBinAddr: 0x10001A654, symSize: 0x64 }
  - { offsetInCU: 0x8E750, offset: 0x8E750, size: 0x8, addend: 0x0, symName: __ZN5Eigen8internal14evaluator_baseINS_13CwiseBinaryOpINS0_13scalar_max_opIddLi0EEEKNS_6MatrixIdLin1ELin1ELi0ELin1ELin1EEEKNS_14CwiseNullaryOpINS0_18scalar_constant_opIdEES6_EEEEEC2Ev, symObjAddr: 0x19CAC, symBinAddr: 0x10001A6B8, symSize: 0x14 }
  - { offsetInCU: 0x8E77A, offset: 0x8E77A, size: 0x8, addend: 0x0, symName: __ZN5Eigen8internal16binary_evaluatorINS_13CwiseBinaryOpINS0_13scalar_max_opIddLi0EEEKNS_6MatrixIdLin1ELin1ELi0ELin1ELin1EEEKNS_14CwiseNullaryOpINS0_18scalar_constant_opIdEES6_EEEENS0_10IndexBasedESE_ddE4DataC1ERKSD_, symObjAddr: 0x19CC0, symBinAddr: 0x10001A6CC, symSize: 0x34 }
  - { offsetInCU: 0x8E7B3, offset: 0x8E7B3, size: 0x8, addend: 0x0, symName: __ZN5Eigen8internal14evaluator_baseINS_13CwiseBinaryOpINS0_13scalar_max_opIddLi0EEEKNS_6MatrixIdLin1ELin1ELi0ELin1ELin1EEEKNS_14CwiseNullaryOpINS0_18scalar_constant_opIdEES6_EEEEED2Ev, symObjAddr: 0x19CF4, symBinAddr: 0x10001A700, symSize: 0x14 }
  - { offsetInCU: 0x8E7DD, offset: 0x8E7DD, size: 0x8, addend: 0x0, symName: __ZN5Eigen8internal16binary_evaluatorINS_13CwiseBinaryOpINS0_13scalar_max_opIddLi0EEEKNS_6MatrixIdLin1ELin1ELi0ELin1ELin1EEEKNS_14CwiseNullaryOpINS0_18scalar_constant_opIdEES6_EEEENS0_10IndexBasedESE_ddE4DataC2ERKSD_, symObjAddr: 0x19D08, symBinAddr: 0x10001A714, symSize: 0xA8 }
  - { offsetInCU: 0x8E816, offset: 0x8E816, size: 0x8, addend: 0x0, symName: __ZNK5Eigen13CwiseBinaryOpINS_8internal13scalar_max_opIddLi0EEEKNS_6MatrixIdLin1ELin1ELi0ELin1ELin1EEEKNS_14CwiseNullaryOpINS1_18scalar_constant_opIdEES5_EEE7functorEv, symObjAddr: 0x19DB0, symBinAddr: 0x10001A7BC, symSize: 0x18 }
  - { offsetInCU: 0x8E83C, offset: 0x8E83C, size: 0x8, addend: 0x0, symName: __ZNK5Eigen13CwiseBinaryOpINS_8internal13scalar_max_opIddLi0EEEKNS_6MatrixIdLin1ELin1ELi0ELin1ELin1EEEKNS_14CwiseNullaryOpINS1_18scalar_constant_opIdEES5_EEE3lhsEv, symObjAddr: 0x19DC8, symBinAddr: 0x10001A7D4, symSize: 0x18 }
  - { offsetInCU: 0x8E862, offset: 0x8E862, size: 0x8, addend: 0x0, symName: __ZNK5Eigen13CwiseBinaryOpINS_8internal13scalar_max_opIddLi0EEEKNS_6MatrixIdLin1ELin1ELi0ELin1ELin1EEEKNS_14CwiseNullaryOpINS1_18scalar_constant_opIdEES5_EEE3rhsEv, symObjAddr: 0x19DE0, symBinAddr: 0x10001A7EC, symSize: 0x18 }
  - { offsetInCU: 0x8E888, offset: 0x8E888, size: 0x8, addend: 0x0, symName: __ZNK5Eigen13CwiseBinaryOpINS_8internal13scalar_max_opIddLi0EEEKNS_6MatrixIdLin1ELin1ELi0ELin1ELin1EEEKNS_14CwiseNullaryOpINS1_18scalar_constant_opIdEES5_EEE4rowsEv, symObjAddr: 0x19DF8, symBinAddr: 0x10001A804, symSize: 0x28 }
  - { offsetInCU: 0x8E8AE, offset: 0x8E8AE, size: 0x8, addend: 0x0, symName: __ZNK5Eigen13CwiseBinaryOpINS_8internal13scalar_max_opIddLi0EEEKNS_6MatrixIdLin1ELin1ELi0ELin1ELin1EEEKNS_14CwiseNullaryOpINS1_18scalar_constant_opIdEES5_EEE4colsEv, symObjAddr: 0x19E20, symBinAddr: 0x10001A82C, symSize: 0x28 }
  - { offsetInCU: 0x8E8D4, offset: 0x8E8D4, size: 0x8, addend: 0x0, symName: __ZN5Eigen8internal31generic_dense_assignment_kernelINS0_9evaluatorINS_6MatrixIdLin1ELin1ELi0ELin1ELin1EEEEENS2_INS_13CwiseBinaryOpINS0_13scalar_max_opIddLi0EEEKS4_KNS_14CwiseNullaryOpINS0_18scalar_constant_opIdEES4_EEEEEENS0_9assign_opIddEELi0EEC2ERS5_RKSG_RKSI_RS4_, symObjAddr: 0x19E48, symBinAddr: 0x10001A854, symSize: 0x44 }
  - { offsetInCU: 0x8E93A, offset: 0x8E93A, size: 0x8, addend: 0x0, symName: __ZNK5Eigen8internal31generic_dense_assignment_kernelINS0_9evaluatorINS_6MatrixIdLin1ELin1ELi0ELin1ELin1EEEEENS2_INS_13CwiseBinaryOpINS0_13scalar_max_opIddLi0EEEKS4_KNS_14CwiseNullaryOpINS0_18scalar_constant_opIdEES4_EEEEEENS0_9assign_opIddEELi0EE4sizeEv, symObjAddr: 0x19E8C, symBinAddr: 0x10001A898, symSize: 0x28 }
  - { offsetInCU: 0x8E960, offset: 0x8E960, size: 0x8, addend: 0x0, symName: __ZN5Eigen8internal31unaligned_dense_assignment_loopILb1EE3runINS0_31generic_dense_assignment_kernelINS0_9evaluatorINS_6MatrixIdLin1ELin1ELi0ELin1ELin1EEEEENS5_INS_13CwiseBinaryOpINS0_13scalar_max_opIddLi0EEEKS7_KNS_14CwiseNullaryOpINS0_18scalar_constant_opIdEES7_EEEEEENS0_9assign_opIddEELi0EEEEEvRT_ll, symObjAddr: 0x19EB4, symBinAddr: 0x10001A8C0, symSize: 0x18 }
  - { offsetInCU: 0x8E99F, offset: 0x8E99F, size: 0x8, addend: 0x0, symName: __ZN5Eigen8internal31generic_dense_assignment_kernelINS0_9evaluatorINS_6MatrixIdLin1ELin1ELi0ELin1ELin1EEEEENS2_INS_13CwiseBinaryOpINS0_13scalar_max_opIddLi0EEEKS4_KNS_14CwiseNullaryOpINS0_18scalar_constant_opIdEES4_EEEEEENS0_9assign_opIddEELi0EE12assignPacketILi16ELi16E19__simd128_float64_tEEvl, symObjAddr: 0x19ECC, symBinAddr: 0x10001A8D8, symSize: 0x64 }
  - { offsetInCU: 0x8E9F1, offset: 0x8E9F1, size: 0x8, addend: 0x0, symName: __ZN5Eigen8internal31unaligned_dense_assignment_loopILb0EE3runINS0_31generic_dense_assignment_kernelINS0_9evaluatorINS_6MatrixIdLin1ELin1ELi0ELin1ELin1EEEEENS5_INS_13CwiseBinaryOpINS0_13scalar_max_opIddLi0EEEKS7_KNS_14CwiseNullaryOpINS0_18scalar_constant_opIdEES7_EEEEEENS0_9assign_opIddEELi0EEEEEvRT_ll, symObjAddr: 0x19F30, symBinAddr: 0x10001A93C, symSize: 0x68 }
  - { offsetInCU: 0x8EA59, offset: 0x8EA59, size: 0x8, addend: 0x0, symName: __ZNK5Eigen8internal16binary_evaluatorINS_13CwiseBinaryOpINS0_13scalar_max_opIddLi0EEEKNS_6MatrixIdLin1ELin1ELi0ELin1ELin1EEEKNS_14CwiseNullaryOpINS0_18scalar_constant_opIdEES6_EEEENS0_10IndexBasedESE_ddE6packetILi16E19__simd128_float64_tEET0_l, symObjAddr: 0x19F98, symBinAddr: 0x10001A9A4, symSize: 0x70 }
  - { offsetInCU: 0x8EAA1, offset: 0x8EAA1, size: 0x8, addend: 0x0, symName: __ZNK5Eigen8internal16binary_evaluatorINS_13CwiseBinaryOpINS0_13scalar_max_opIddLi0EEEKNS_6MatrixIdLin1ELin1ELi0ELin1ELin1EEEKNS_14CwiseNullaryOpINS0_18scalar_constant_opIdEES6_EEEENS0_10IndexBasedESE_ddE4Data4funcEv, symObjAddr: 0x1A008, symBinAddr: 0x10001AA14, symSize: 0x14 }
  - { offsetInCU: 0x8EAC7, offset: 0x8EAC7, size: 0x8, addend: 0x0, symName: __ZNK5Eigen8internal13scalar_max_opIddLi0EE8packetOpI19__simd128_float64_tEET_RKS5_S7_, symObjAddr: 0x1A01C, symBinAddr: 0x10001AA28, symSize: 0x30 }
  - { offsetInCU: 0x8EB12, offset: 0x8EB12, size: 0x8, addend: 0x0, symName: __ZN5Eigen8internal31generic_dense_assignment_kernelINS0_9evaluatorINS_6MatrixIdLin1ELin1ELi0ELin1ELin1EEEEENS2_INS_13CwiseBinaryOpINS0_13scalar_max_opIddLi0EEEKS4_KNS_14CwiseNullaryOpINS0_18scalar_constant_opIdEES4_EEEEEENS0_9assign_opIddEELi0EE11assignCoeffEl, symObjAddr: 0x1A0C0, symBinAddr: 0x10001AACC, symSize: 0x64 }
  - { offsetInCU: 0x8EB47, offset: 0x8EB47, size: 0x8, addend: 0x0, symName: __ZNK5Eigen8internal16binary_evaluatorINS_13CwiseBinaryOpINS0_13scalar_max_opIddLi0EEEKNS_6MatrixIdLin1ELin1ELi0ELin1ELin1EEEKNS_14CwiseNullaryOpINS0_18scalar_constant_opIdEES6_EEEENS0_10IndexBasedESE_ddE5coeffEl, symObjAddr: 0x1A124, symBinAddr: 0x10001AB30, symSize: 0x68 }
  - { offsetInCU: 0x8EB7C, offset: 0x8EB7C, size: 0x8, addend: 0x0, symName: __ZNK5Eigen8internal13scalar_max_opIddLi0EEclERKdS4_, symObjAddr: 0x1A18C, symBinAddr: 0x10001AB98, symSize: 0x30 }
  - { offsetInCU: 0x8EBBE, offset: 0x8EBBE, size: 0x8, addend: 0x0, symName: __ZN5Eigen8internal9evaluatorINS_13CwiseBinaryOpINS0_13scalar_max_opIddLi0EEEKNS_6MatrixIdLin1ELin1ELi0ELin1ELin1EEEKNS_14CwiseNullaryOpINS0_18scalar_constant_opIdEES6_EEEEED2Ev, symObjAddr: 0x1A230, symBinAddr: 0x10001AC3C, symSize: 0x2C }
  - { offsetInCU: 0x8EBEB, offset: 0x8EBEB, size: 0x8, addend: 0x0, symName: __ZN5Eigen8internal16binary_evaluatorINS_13CwiseBinaryOpINS0_13scalar_max_opIddLi0EEEKNS_6MatrixIdLin1ELin1ELi0ELin1ELin1EEEKNS_14CwiseNullaryOpINS0_18scalar_constant_opIdEES6_EEEENS0_10IndexBasedESE_ddED2Ev, symObjAddr: 0x1A25C, symBinAddr: 0x10001AC68, symSize: 0x34 }
  - { offsetInCU: 0x8EC17, offset: 0x8EC17, size: 0x8, addend: 0x0, symName: __ZN5Eigen8internal16binary_evaluatorINS_13CwiseBinaryOpINS0_13scalar_max_opIddLi0EEEKNS_6MatrixIdLin1ELin1ELi0ELin1ELin1EEEKNS_14CwiseNullaryOpINS0_18scalar_constant_opIdEES6_EEEENS0_10IndexBasedESE_ddE4DataD1Ev, symObjAddr: 0x1A290, symBinAddr: 0x10001AC9C, symSize: 0x2C }
  - { offsetInCU: 0x8EC44, offset: 0x8EC44, size: 0x8, addend: 0x0, symName: __ZN5Eigen8internal16binary_evaluatorINS_13CwiseBinaryOpINS0_13scalar_max_opIddLi0EEEKNS_6MatrixIdLin1ELin1ELi0ELin1ELin1EEEKNS_14CwiseNullaryOpINS0_18scalar_constant_opIdEES6_EEEENS0_10IndexBasedESE_ddE4DataD2Ev, symObjAddr: 0x1A2BC, symBinAddr: 0x10001ACC8, symSize: 0x3C }
  - { offsetInCU: 0x8EC71, offset: 0x8EC71, size: 0x8, addend: 0x0, symName: __ZNSt3__16vectorIiNS_9allocatorIiEEEC2B7v160006Ev, symObjAddr: 0x1A2F8, symBinAddr: 0x10001AD04, symSize: 0x54 }
  - { offsetInCU: 0x8EC9B, offset: 0x8EC9B, size: 0x8, addend: 0x0, symName: __ZNSt3__16vectorIiNS_9allocatorIiEEE22__construct_one_at_endB7v160006IJRKiEEEvDpOT_, symObjAddr: 0x1A34C, symBinAddr: 0x10001AD58, symSize: 0x90 }
  - { offsetInCU: 0x8ECEA, offset: 0x8ECEA, size: 0x8, addend: 0x0, symName: __ZNSt3__16vectorIiNS_9allocatorIiEEE21__push_back_slow_pathIRKiEEvOT_, symObjAddr: 0x1A3DC, symBinAddr: 0x10001ADE8, symSize: 0xD8 }
  - { offsetInCU: 0x8ED48, offset: 0x8ED48, size: 0x8, addend: 0x0, symName: __ZNKSt3__16vectorIiNS_9allocatorIiEEE11__recommendB7v160006Em, symObjAddr: 0x1A4B4, symBinAddr: 0x10001AEC0, symSize: 0xB4 }
  - { offsetInCU: 0x8ED9D, offset: 0x8ED9D, size: 0x8, addend: 0x0, symName: __ZNSt3__114__split_bufferIiRNS_9allocatorIiEEEC1EmmS3_, symObjAddr: 0x1A568, symBinAddr: 0x10001AF74, symSize: 0x44 }
  - { offsetInCU: 0x8EDF3, offset: 0x8EDF3, size: 0x8, addend: 0x0, symName: __ZNSt3__114__split_bufferIiRNS_9allocatorIiEEED1Ev, symObjAddr: 0x1A6C4, symBinAddr: 0x10001B0D0, symSize: 0x2C }
  - { offsetInCU: 0x8EE1F, offset: 0x8EE1F, size: 0x8, addend: 0x0, symName: __ZNSt3__114__split_bufferIiRNS_9allocatorIiEEEC2EmmS3_, symObjAddr: 0x1A6F0, symBinAddr: 0x10001B0FC, symSize: 0xD4 }
  - { offsetInCU: 0x8EE92, offset: 0x8EE92, size: 0x8, addend: 0x0, symName: __ZNSt3__117__compressed_pairIPiRNS_9allocatorIiEEEC1B7v160006IDnS4_EEOT_OT0_, symObjAddr: 0x1A7C4, symBinAddr: 0x10001B1D0, symSize: 0x3C }
  - { offsetInCU: 0x8EEEA, offset: 0x8EEEA, size: 0x8, addend: 0x0, symName: __ZNSt3__114__split_bufferIiRNS_9allocatorIiEEE7__allocB7v160006Ev, symObjAddr: 0x1A800, symBinAddr: 0x10001B20C, symSize: 0x28 }
  - { offsetInCU: 0x8EF10, offset: 0x8EF10, size: 0x8, addend: 0x0, symName: __ZNSt3__114__split_bufferIiRNS_9allocatorIiEEE9__end_capB7v160006Ev, symObjAddr: 0x1A828, symBinAddr: 0x10001B234, symSize: 0x28 }
  - { offsetInCU: 0x8EF36, offset: 0x8EF36, size: 0x8, addend: 0x0, symName: __ZNSt3__117__compressed_pairIPiRNS_9allocatorIiEEEC2B7v160006IDnS4_EEOT_OT0_, symObjAddr: 0x1A850, symBinAddr: 0x10001B25C, symSize: 0x48 }
  - { offsetInCU: 0x8EF8E, offset: 0x8EF8E, size: 0x8, addend: 0x0, symName: __ZNSt3__122__compressed_pair_elemIRNS_9allocatorIiEELi1ELb0EEC2B7v160006IS3_vEEOT_, symObjAddr: 0x1A898, symBinAddr: 0x10001B2A4, symSize: 0x20 }
  - { offsetInCU: 0x8EFD0, offset: 0x8EFD0, size: 0x8, addend: 0x0, symName: __ZNSt3__117__compressed_pairIPiRNS_9allocatorIiEEE6secondB7v160006Ev, symObjAddr: 0x1A8B8, symBinAddr: 0x10001B2C4, symSize: 0x28 }
  - { offsetInCU: 0x8EFF6, offset: 0x8EFF6, size: 0x8, addend: 0x0, symName: __ZNSt3__122__compressed_pair_elemIRNS_9allocatorIiEELi1ELb0EE5__getB7v160006Ev, symObjAddr: 0x1A8E0, symBinAddr: 0x10001B2EC, symSize: 0x18 }
  - { offsetInCU: 0x8F01C, offset: 0x8F01C, size: 0x8, addend: 0x0, symName: __ZNSt3__117__compressed_pairIPiRNS_9allocatorIiEEE5firstB7v160006Ev, symObjAddr: 0x1A8F8, symBinAddr: 0x10001B304, symSize: 0x24 }
  - { offsetInCU: 0x8F042, offset: 0x8F042, size: 0x8, addend: 0x0, symName: __ZNSt3__116reverse_iteratorIPiEC1B7v160006ES1_, symObjAddr: 0x1A994, symBinAddr: 0x10001B3A0, symSize: 0x34 }
  - { offsetInCU: 0x8F07A, offset: 0x8F07A, size: 0x8, addend: 0x0, symName: __ZNKSt3__116reverse_iteratorIPiE4baseB7v160006Ev, symObjAddr: 0x1A9C8, symBinAddr: 0x10001B3D4, symSize: 0x18 }
  - { offsetInCU: 0x8F0C4, offset: 0x8F0C4, size: 0x8, addend: 0x0, symName: __ZNKSt3__111__move_loopINS_17_ClassicAlgPolicyEEclB7v160006INS_16reverse_iteratorIPiEES6_S6_EENS_4pairIT_T1_EES8_T0_S9_, symObjAddr: 0x1AD1C, symBinAddr: 0x10001B728, symSize: 0xA0 }
  - { offsetInCU: 0x8F12F, offset: 0x8F12F, size: 0x8, addend: 0x0, symName: __ZNSt3__18_IterOpsINS_17_ClassicAlgPolicyEE11__iter_moveB7v160006IRNS_16reverse_iteratorIPiEEEENS_9enable_ifIXsr12is_referenceIDTdeclsr3stdE7declvalIRT_EEEEE5valueEDTclsr3stdE4movedeclsr3stdE7declvalISA_EEEEE4typeEOS9_, symObjAddr: 0x1AF50, symBinAddr: 0x10001B95C, symSize: 0x28 }
  - { offsetInCU: 0x8F15B, offset: 0x8F15B, size: 0x8, addend: 0x0, symName: __ZNKSt3__116reverse_iteratorIPiEdeB7v160006Ev, symObjAddr: 0x1AF78, symBinAddr: 0x10001B984, symSize: 0x28 }
  - { offsetInCU: 0x8F18F, offset: 0x8F18F, size: 0x8, addend: 0x0, symName: __ZNSt3__116reverse_iteratorIPiEppB7v160006Ev, symObjAddr: 0x1AFA0, symBinAddr: 0x10001B9AC, symSize: 0x20 }
  - { offsetInCU: 0x8F1B5, offset: 0x8F1B5, size: 0x8, addend: 0x0, symName: __ZNSt3__18_IterOpsINS_17_ClassicAlgPolicyEE25__validate_iter_referenceB7v160006IRNS_16reverse_iteratorIPiEEEEvv, symObjAddr: 0x1AFC0, symBinAddr: 0x10001B9CC, symSize: 0x4 }
  - { offsetInCU: 0x8F1D3, offset: 0x8F1D3, size: 0x8, addend: 0x0, symName: __ZNSt3__118__unwrap_iter_implINS_16reverse_iteratorIPiEELb0EE8__unwrapB7v160006ES3_, symObjAddr: 0x1AFC4, symBinAddr: 0x10001B9D0, symSize: 0x24 }
  - { offsetInCU: 0x8F1FC, offset: 0x8F1FC, size: 0x8, addend: 0x0, symName: __ZNSt3__14pairINS_16reverse_iteratorIPiEES3_EC1B7v160006IS3_S3_LPv0EEEOT_OT0_, symObjAddr: 0x1AFE8, symBinAddr: 0x10001B9F4, symSize: 0x3C }
  - { offsetInCU: 0x8F25A, offset: 0x8F25A, size: 0x8, addend: 0x0, symName: __ZNSt3__14pairINS_16reverse_iteratorIPiEES3_EC2B7v160006IS3_S3_LPv0EEEOT_OT0_, symObjAddr: 0x1B024, symBinAddr: 0x10001BA30, symSize: 0x34 }
  - { offsetInCU: 0x8F2B8, offset: 0x8F2B8, size: 0x8, addend: 0x0, symName: __ZNSt3__118__unwrap_iter_implINS_16reverse_iteratorIPiEELb0EE8__rewrapB7v160006ES3_S3_, symObjAddr: 0x1B058, symBinAddr: 0x10001BA64, symSize: 0x2C }
  - { offsetInCU: 0x8F2E6, offset: 0x8F2E6, size: 0x8, addend: 0x0, symName: __ZNSt3__116reverse_iteratorIPiEC2B7v160006ES1_, symObjAddr: 0x1B084, symBinAddr: 0x10001BA90, symSize: 0x28 }
  - { offsetInCU: 0x8F31E, offset: 0x8F31E, size: 0x8, addend: 0x0, symName: __ZNSt3__114__split_bufferIiRNS_9allocatorIiEEED2Ev, symObjAddr: 0x1B0AC, symBinAddr: 0x10001BAB8, symSize: 0x8C }
  - { offsetInCU: 0x8F34A, offset: 0x8F34A, size: 0x8, addend: 0x0, symName: __ZNSt3__114__split_bufferIiRNS_9allocatorIiEEE5clearB7v160006Ev, symObjAddr: 0x1B138, symBinAddr: 0x10001BB44, symSize: 0x28 }
  - { offsetInCU: 0x8F370, offset: 0x8F370, size: 0x8, addend: 0x0, symName: __ZNKSt3__114__split_bufferIiRNS_9allocatorIiEEE8capacityB7v160006Ev, symObjAddr: 0x1B160, symBinAddr: 0x10001BB6C, symSize: 0x40 }
  - { offsetInCU: 0x8F396, offset: 0x8F396, size: 0x8, addend: 0x0, symName: __ZNSt3__114__split_bufferIiRNS_9allocatorIiEEE17__destruct_at_endB7v160006EPi, symObjAddr: 0x1B1A0, symBinAddr: 0x10001BBAC, symSize: 0x2C }
  - { offsetInCU: 0x8F3CA, offset: 0x8F3CA, size: 0x8, addend: 0x0, symName: __ZNSt3__114__split_bufferIiRNS_9allocatorIiEEE17__destruct_at_endB7v160006EPiNS_17integral_constantIbLb0EEE, symObjAddr: 0x1B1CC, symBinAddr: 0x10001BBD8, symSize: 0x80 }
  - { offsetInCU: 0x8F40B, offset: 0x8F40B, size: 0x8, addend: 0x0, symName: __ZNKSt3__114__split_bufferIiRNS_9allocatorIiEEE9__end_capB7v160006Ev, symObjAddr: 0x1B24C, symBinAddr: 0x10001BC58, symSize: 0x28 }
  - { offsetInCU: 0x8F431, offset: 0x8F431, size: 0x8, addend: 0x0, symName: __ZNKSt3__117__compressed_pairIPiRNS_9allocatorIiEEE5firstB7v160006Ev, symObjAddr: 0x1B274, symBinAddr: 0x10001BC80, symSize: 0x24 }
  - { offsetInCU: 0x8F457, offset: 0x8F457, size: 0x8, addend: 0x0, symName: __ZNSt3__16vectorIiNS_9allocatorIiEEE19__copy_assign_allocB7v160006ERKS3_, symObjAddr: 0x1B298, symBinAddr: 0x10001BCA4, symSize: 0x2C }
  - { offsetInCU: 0x8F48C, offset: 0x8F48C, size: 0x8, addend: 0x0, symName: __ZNSt3__16vectorIiNS_9allocatorIiEEE6assignIPiLi0EEEvT_S6_, symObjAddr: 0x1B2C4, symBinAddr: 0x10001BCD0, symSize: 0x17C }
  - { offsetInCU: 0x8F52B, offset: 0x8F52B, size: 0x8, addend: 0x0, symName: __ZNSt3__16vectorIiNS_9allocatorIiEEE19__copy_assign_allocB7v160006ERKS3_NS_17integral_constantIbLb0EEE, symObjAddr: 0x1B440, symBinAddr: 0x10001BE4C, symSize: 0x14 }
  - { offsetInCU: 0x8F567, offset: 0x8F567, size: 0x8, addend: 0x0, symName: __ZNSt3__16vectorIiNS_9allocatorIiEEE18__construct_at_endIPiLi0EEEvT_S6_m, symObjAddr: 0x1B510, symBinAddr: 0x10001BF1C, symSize: 0x8C }
  - { offsetInCU: 0x8F5DA, offset: 0x8F5DA, size: 0x8, addend: 0x0, symName: __ZNSt3__16vectorIiNS_9allocatorIiEEE17__destruct_at_endB7v160006EPi, symObjAddr: 0x1B59C, symBinAddr: 0x10001BFA8, symSize: 0x60 }
  - { offsetInCU: 0x8F61E, offset: 0x8F61E, size: 0x8, addend: 0x0, symName: __ZNSt3__16vectorIiNS_9allocatorIiEEE13__vdeallocateEv, symObjAddr: 0x1B5FC, symBinAddr: 0x10001C008, symSize: 0x8C }
  - { offsetInCU: 0x8F66A, offset: 0x8F66A, size: 0x8, addend: 0x0, symName: __ZNKSt3__114__copy_trivialclB7v160006IiiLi0EEENS_4pairIPT_PT0_EES4_S4_S6_, symObjAddr: 0x1B888, symBinAddr: 0x10001C294, symSize: 0x48 }
  - { offsetInCU: 0x8F6D8, offset: 0x8F6D8, size: 0x8, addend: 0x0, symName: __ZNSt3__14pairIPiS1_EC1B7v160006IRS1_S1_LPv0EEEOT_OT0_, symObjAddr: 0x1BA2C, symBinAddr: 0x10001C438, symSize: 0x3C }
  - { offsetInCU: 0x8F736, offset: 0x8F736, size: 0x8, addend: 0x0, symName: __ZNSt3__14pairIPiS1_EC2B7v160006IRS1_S1_LPv0EEEOT_OT0_, symObjAddr: 0x1BA68, symBinAddr: 0x10001C474, symSize: 0x34 }
  - { offsetInCU: 0x8F794, offset: 0x8F794, size: 0x8, addend: 0x0, symName: __ZNSt3__14pairIPiS1_EC1B7v160006IS1_S1_LPv0EEEOT_OT0_, symObjAddr: 0x1BA9C, symBinAddr: 0x10001C4A8, symSize: 0x3C }
  - { offsetInCU: 0x8F7F2, offset: 0x8F7F2, size: 0x8, addend: 0x0, symName: __ZNSt3__14pairIPiS1_EC2B7v160006IS1_S1_LPv0EEEOT_OT0_, symObjAddr: 0x1BAD8, symBinAddr: 0x10001C4E4, symSize: 0x34 }
  - { offsetInCU: 0x8F850, offset: 0x8F850, size: 0x8, addend: 0x0, symName: __ZNSt3__118__unwrap_iter_implIPiLb1EE8__rewrapB7v160006ES1_S1_, symObjAddr: 0x1BB0C, symBinAddr: 0x10001C518, symSize: 0x50 }
  - { offsetInCU: 0x8F881, offset: 0x8F881, size: 0x8, addend: 0x0, symName: __ZNSt3__129_AllocatorDestroyRangeReverseINS_9allocatorIiEEPiEC1B7v160006ERS2_RS3_S6_, symObjAddr: 0x1BC9C, symBinAddr: 0x10001C6A8, symSize: 0x44 }
  - { offsetInCU: 0x8F8D8, offset: 0x8F8D8, size: 0x8, addend: 0x0, symName: __ZNSt3__116allocator_traitsINS_9allocatorIiEEE9constructB7v160006IiJRiEvEEvRS2_PT_DpOT0_, symObjAddr: 0x1BCE0, symBinAddr: 0x10001C6EC, symSize: 0x34 }
  - { offsetInCU: 0x8F92F, offset: 0x8F92F, size: 0x8, addend: 0x0, symName: __ZNSt3__128__exception_guard_exceptionsINS_29_AllocatorDestroyRangeReverseINS_9allocatorIiEEPiEEE10__completeB7v160006Ev, symObjAddr: 0x1BD14, symBinAddr: 0x10001C720, symSize: 0x1C }
  - { offsetInCU: 0x8F955, offset: 0x8F955, size: 0x8, addend: 0x0, symName: __ZNSt3__128__exception_guard_exceptionsINS_29_AllocatorDestroyRangeReverseINS_9allocatorIiEEPiEEED1B7v160006Ev, symObjAddr: 0x1BD30, symBinAddr: 0x10001C73C, symSize: 0x2C }
  - { offsetInCU: 0x8F97F, offset: 0x8F97F, size: 0x8, addend: 0x0, symName: __ZNSt3__128__exception_guard_exceptionsINS_29_AllocatorDestroyRangeReverseINS_9allocatorIiEEPiEEEC1B7v160006ES5_, symObjAddr: 0x1BD5C, symBinAddr: 0x10001C768, symSize: 0x34 }
  - { offsetInCU: 0x8F9B8, offset: 0x8F9B8, size: 0x8, addend: 0x0, symName: __ZNSt3__128__exception_guard_exceptionsINS_29_AllocatorDestroyRangeReverseINS_9allocatorIiEEPiEEEC2B7v160006ES5_, symObjAddr: 0x1BD90, symBinAddr: 0x10001C79C, symSize: 0x30 }
  - { offsetInCU: 0x8F9F1, offset: 0x8F9F1, size: 0x8, addend: 0x0, symName: __ZNSt3__129_AllocatorDestroyRangeReverseINS_9allocatorIiEEPiEC2B7v160006ERS2_RS3_S6_, symObjAddr: 0x1BDC0, symBinAddr: 0x10001C7CC, symSize: 0x38 }
  - { offsetInCU: 0x8FA48, offset: 0x8FA48, size: 0x8, addend: 0x0, symName: __ZNSt3__19allocatorIiE9constructB7v160006IiJRiEEEvPT_DpOT0_, symObjAddr: 0x1BDF8, symBinAddr: 0x10001C804, symSize: 0x28 }
  - { offsetInCU: 0x8FA9E, offset: 0x8FA9E, size: 0x8, addend: 0x0, symName: __ZNSt3__128__exception_guard_exceptionsINS_29_AllocatorDestroyRangeReverseINS_9allocatorIiEEPiEEED2B7v160006Ev, symObjAddr: 0x1BE20, symBinAddr: 0x10001C82C, symSize: 0x50 }
  - { offsetInCU: 0x8FAC8, offset: 0x8FAC8, size: 0x8, addend: 0x0, symName: __ZNKSt3__129_AllocatorDestroyRangeReverseINS_9allocatorIiEEPiEclB7v160006Ev, symObjAddr: 0x1BE70, symBinAddr: 0x10001C87C, symSize: 0x68 }
  - { offsetInCU: 0x8FAF3, offset: 0x8FAF3, size: 0x8, addend: 0x0, symName: __ZNSt3__119__to_address_helperINS_16reverse_iteratorIPiEEvE6__callB7v160006ERKS3_, symObjAddr: 0x1BF6C, symBinAddr: 0x10001C978, symSize: 0x38 }
  - { offsetInCU: 0x8FB16, offset: 0x8FB16, size: 0x8, addend: 0x0, symName: __ZNKSt3__116reverse_iteratorIPiEptB7v160006Ev, symObjAddr: 0x1BFA4, symBinAddr: 0x10001C9B0, symSize: 0x24 }
  - { offsetInCU: 0x8FB3C, offset: 0x8FB3C, size: 0x8, addend: 0x0, symName: __ZNSt3__16vectorIiNS_9allocatorIiEEE27__invalidate_iterators_pastB7v160006EPi, symObjAddr: 0x1BFC8, symBinAddr: 0x10001C9D4, symSize: 0x14 }
  - { offsetInCU: 0x8FB73, offset: 0x8FB73, size: 0x8, addend: 0x0, symName: __ZNKSt3__16vectorIiNS_9allocatorIiEEE17__annotate_shrinkB7v160006Em, symObjAddr: 0x1BFDC, symBinAddr: 0x10001C9E8, symSize: 0xB4 }
  - { offsetInCU: 0x8FBA8, offset: 0x8FBA8, size: 0x8, addend: 0x0, symName: __ZNSt3__16vectorIiNS_9allocatorIiEEE5clearB7v160006Ev, symObjAddr: 0x1C090, symBinAddr: 0x10001CA9C, symSize: 0x4C }
  - { offsetInCU: 0x8FBE2, offset: 0x8FBE2, size: 0x8, addend: 0x0, symName: __ZN5Eigen9ReplicateINS_13CwiseBinaryOpINS_8internal13scalar_sum_opIddEEKNS1_INS2_18scalar_quotient_opIddEEKNS_12ArrayWrapperIKNS_14CwiseNullaryOpINS2_16scalar_random_opIdEENS_6MatrixIdLin1ELin1ELi0ELin1ELin1EEEEEEEKNS8_INS2_18scalar_constant_opIdEEKNS_5ArrayIdLin1ELin1ELi0ELin1ELin1EEEEEEESN_EELin1ELin1EEC1ISQ_EERKT_ll, symObjAddr: 0x1C0DC, symBinAddr: 0x10001CAE8, symSize: 0x44 }
  - { offsetInCU: 0x8FC3F, offset: 0x8FC3F, size: 0x8, addend: 0x0, symName: __ZN5Eigen9ReplicateINS_13CwiseBinaryOpINS_8internal13scalar_sum_opIddEEKNS1_INS2_18scalar_quotient_opIddEEKNS_12ArrayWrapperIKNS_14CwiseNullaryOpINS2_16scalar_random_opIdEENS_6MatrixIdLin1ELin1ELi0ELin1ELin1EEEEEEEKNS8_INS2_18scalar_constant_opIdEEKNS_5ArrayIdLin1ELin1ELi0ELin1ELin1EEEEEEESN_EELin1ELin1EEC2ISQ_EERKT_ll, symObjAddr: 0x1C120, symBinAddr: 0x10001CB2C, symSize: 0x64 }
  - { offsetInCU: 0x8FC9C, offset: 0x8FC9C, size: 0x8, addend: 0x0, symName: __ZN5Eigen9ArrayBaseINS_9ReplicateINS_13CwiseBinaryOpINS_8internal13scalar_sum_opIddEEKNS2_INS3_18scalar_quotient_opIddEEKNS_12ArrayWrapperIKNS_14CwiseNullaryOpINS3_16scalar_random_opIdEENS_6MatrixIdLin1ELin1ELi0ELin1ELin1EEEEEEEKNS9_INS3_18scalar_constant_opIdEEKNS_5ArrayIdLin1ELin1ELi0ELin1ELin1EEEEEEESO_EELin1ELin1EEEEC2Ev, symObjAddr: 0x1C184, symBinAddr: 0x10001CB90, symSize: 0x2C }
  - { offsetInCU: 0x8FCC6, offset: 0x8FCC6, size: 0x8, addend: 0x0, symName: __ZN5Eigen9DenseBaseINS_9ReplicateINS_13CwiseBinaryOpINS_8internal13scalar_sum_opIddEEKNS2_INS3_18scalar_quotient_opIddEEKNS_12ArrayWrapperIKNS_14CwiseNullaryOpINS3_16scalar_random_opIdEENS_6MatrixIdLin1ELin1ELi0ELin1ELin1EEEEEEEKNS9_INS3_18scalar_constant_opIdEEKNS_5ArrayIdLin1ELin1ELi0ELin1ELin1EEEEEEESO_EELin1ELin1EEEEC2Ev, symObjAddr: 0x1C1B0, symBinAddr: 0x10001CBBC, symSize: 0x14 }
  - { offsetInCU: 0x8FCF0, offset: 0x8FCF0, size: 0x8, addend: 0x0, symName: __ZN5Eigen6MatrixIdLin1ELin1ELi0ELin1ELin1EEC2INS_9ReplicateINS_13CwiseBinaryOpINS_8internal13scalar_sum_opIddEEKNS4_INS5_18scalar_quotient_opIddEEKNS_12ArrayWrapperIKNS_14CwiseNullaryOpINS5_16scalar_random_opIdEES1_EEEEKNSB_INS5_18scalar_constant_opIdEEKNS_5ArrayIdLin1ELin1ELi0ELin1ELin1EEEEEEESO_EELin1ELin1EEEEERKNS_9EigenBaseIT_EE, symObjAddr: 0x1C1C4, symBinAddr: 0x10001CBD0, symSize: 0x40 }
  - { offsetInCU: 0x8FD32, offset: 0x8FD32, size: 0x8, addend: 0x0, symName: __ZNK5Eigen9EigenBaseINS_9ReplicateINS_13CwiseBinaryOpINS_8internal13scalar_sum_opIddEEKNS2_INS3_18scalar_quotient_opIddEEKNS_12ArrayWrapperIKNS_14CwiseNullaryOpINS3_16scalar_random_opIdEENS_6MatrixIdLin1ELin1ELi0ELin1ELin1EEEEEEEKNS9_INS3_18scalar_constant_opIdEEKNS_5ArrayIdLin1ELin1ELi0ELin1ELin1EEEEEEESO_EELin1ELin1EEEE7derivedEv, symObjAddr: 0x1C204, symBinAddr: 0x10001CC10, symSize: 0x14 }
  - { offsetInCU: 0x8FD58, offset: 0x8FD58, size: 0x8, addend: 0x0, symName: __ZN5Eigen15PlainObjectBaseINS_6MatrixIdLin1ELin1ELi0ELin1ELin1EEEEC2INS_9ReplicateINS_13CwiseBinaryOpINS_8internal13scalar_sum_opIddEEKNS6_INS7_18scalar_quotient_opIddEEKNS_12ArrayWrapperIKNS_14CwiseNullaryOpINS7_16scalar_random_opIdEES2_EEEEKNSD_INS7_18scalar_constant_opIdEEKNS_5ArrayIdLin1ELin1ELi0ELin1ELin1EEEEEEESQ_EELin1ELin1EEEEERKNS_9DenseBaseIT_EE, symObjAddr: 0x1C218, symBinAddr: 0x10001CC24, symSize: 0x80 }
  - { offsetInCU: 0x8FD9A, offset: 0x8FD9A, size: 0x8, addend: 0x0, symName: __ZN5Eigen15PlainObjectBaseINS_6MatrixIdLin1ELin1ELi0ELin1ELin1EEEE10resizeLikeINS_9ReplicateINS_13CwiseBinaryOpINS_8internal13scalar_sum_opIddEEKNS6_INS7_18scalar_quotient_opIddEEKNS_12ArrayWrapperIKNS_14CwiseNullaryOpINS7_16scalar_random_opIdEES2_EEEEKNSD_INS7_18scalar_constant_opIdEEKNS_5ArrayIdLin1ELin1ELi0ELin1ELin1EEEEEEESQ_EELin1ELin1EEEEEvRKNS_9EigenBaseIT_EE, symObjAddr: 0x1C298, symBinAddr: 0x10001CCA4, symSize: 0x11C }
  - { offsetInCU: 0x8FE2E, offset: 0x8FE2E, size: 0x8, addend: 0x0, symName: __ZN5Eigen15PlainObjectBaseINS_6MatrixIdLin1ELin1ELi0ELin1ELin1EEEE12_set_noaliasINS_9ReplicateINS_13CwiseBinaryOpINS_8internal13scalar_sum_opIddEEKNS6_INS7_18scalar_quotient_opIddEEKNS_12ArrayWrapperIKNS_14CwiseNullaryOpINS7_16scalar_random_opIdEES2_EEEEKNSD_INS7_18scalar_constant_opIdEEKNS_5ArrayIdLin1ELin1ELi0ELin1ELin1EEEEEEESQ_EELin1ELin1EEEEERS2_RKNS_9DenseBaseIT_EE, symObjAddr: 0x1C3B4, symBinAddr: 0x10001CDC0, symSize: 0x60 }
  - { offsetInCU: 0x8FE6C, offset: 0x8FE6C, size: 0x8, addend: 0x0, symName: __ZNK5Eigen9ReplicateINS_13CwiseBinaryOpINS_8internal13scalar_sum_opIddEEKNS1_INS2_18scalar_quotient_opIddEEKNS_12ArrayWrapperIKNS_14CwiseNullaryOpINS2_16scalar_random_opIdEENS_6MatrixIdLin1ELin1ELi0ELin1ELin1EEEEEEEKNS8_INS2_18scalar_constant_opIdEEKNS_5ArrayIdLin1ELin1ELi0ELin1ELin1EEEEEEESN_EELin1ELin1EE4rowsEv, symObjAddr: 0x1C414, symBinAddr: 0x10001CE20, symSize: 0x44 }
  - { offsetInCU: 0x8FE92, offset: 0x8FE92, size: 0x8, addend: 0x0, symName: __ZNK5Eigen9ReplicateINS_13CwiseBinaryOpINS_8internal13scalar_sum_opIddEEKNS1_INS2_18scalar_quotient_opIddEEKNS_12ArrayWrapperIKNS_14CwiseNullaryOpINS2_16scalar_random_opIdEENS_6MatrixIdLin1ELin1ELi0ELin1ELin1EEEEEEEKNS8_INS2_18scalar_constant_opIdEEKNS_5ArrayIdLin1ELin1ELi0ELin1ELin1EEEEEEESN_EELin1ELin1EE4colsEv, symObjAddr: 0x1C458, symBinAddr: 0x10001CE64, symSize: 0x44 }
  - { offsetInCU: 0x8FEB8, offset: 0x8FEB8, size: 0x8, addend: 0x0, symName: __ZN5Eigen8internal10AssignmentINS_6MatrixIdLin1ELin1ELi0ELin1ELin1EEENS_9ReplicateINS_13CwiseBinaryOpINS0_13scalar_sum_opIddEEKNS5_INS0_18scalar_quotient_opIddEEKNS_12ArrayWrapperIKNS_14CwiseNullaryOpINS0_16scalar_random_opIdEES3_EEEEKNSB_INS0_18scalar_constant_opIdEEKNS_5ArrayIdLin1ELin1ELi0ELin1ELin1EEEEEEESO_EELin1ELin1EEENS0_9assign_opIddEENS0_11Dense2DenseEvE3runERS3_RKSS_RKSU_, symObjAddr: 0x1C4D8, symBinAddr: 0x10001CEE4, symSize: 0x40 }
  - { offsetInCU: 0x8FEFA, offset: 0x8FEFA, size: 0x8, addend: 0x0, symName: __ZN5Eigen8internal27checkTransposeAliasing_implINS_6MatrixIdLin1ELin1ELi0ELin1ELin1EEENS_9ReplicateINS_13CwiseBinaryOpINS0_13scalar_sum_opIddEEKNS5_INS0_18scalar_quotient_opIddEEKNS_12ArrayWrapperIKNS_14CwiseNullaryOpINS0_16scalar_random_opIdEES3_EEEEKNSB_INS0_18scalar_constant_opIdEEKNS_5ArrayIdLin1ELin1ELi0ELin1ELin1EEEEEEESO_EELin1ELin1EEELb0EE3runERKS3_RKSS_, symObjAddr: 0x1C650, symBinAddr: 0x10001D05C, symSize: 0x14 }
  - { offsetInCU: 0x8FF66, offset: 0x8FF66, size: 0x8, addend: 0x0, symName: __ZN5Eigen8internal9evaluatorINS_9ReplicateINS_13CwiseBinaryOpINS0_13scalar_sum_opIddEEKNS3_INS0_18scalar_quotient_opIddEEKNS_12ArrayWrapperIKNS_14CwiseNullaryOpINS0_16scalar_random_opIdEENS_6MatrixIdLin1ELin1ELi0ELin1ELin1EEEEEEEKNS9_INS0_18scalar_constant_opIdEEKNS_5ArrayIdLin1ELin1ELi0ELin1ELin1EEEEEEESO_EELin1ELin1EEEEC1ERKSS_, symObjAddr: 0x1C664, symBinAddr: 0x10001D070, symSize: 0x34 }
  - { offsetInCU: 0x8FFCB, offset: 0x8FFCB, size: 0x8, addend: 0x0, symName: __ZN5Eigen8internal31generic_dense_assignment_kernelINS0_9evaluatorINS_6MatrixIdLin1ELin1ELi0ELin1ELin1EEEEENS2_INS_9ReplicateINS_13CwiseBinaryOpINS0_13scalar_sum_opIddEEKNS7_INS0_18scalar_quotient_opIddEEKNS_12ArrayWrapperIKNS_14CwiseNullaryOpINS0_16scalar_random_opIdEES4_EEEEKNSD_INS0_18scalar_constant_opIdEEKNS_5ArrayIdLin1ELin1ELi0ELin1ELin1EEEEEEESQ_EELin1ELin1EEEEENS0_9assign_opIddEELi0EEC1ERS5_RKSV_RKSX_RS4_, symObjAddr: 0x1C790, symBinAddr: 0x10001D19C, symSize: 0x4C }
  - { offsetInCU: 0x90036, offset: 0x90036, size: 0x8, addend: 0x0, symName: __ZN5Eigen8internal21dense_assignment_loopINS0_31generic_dense_assignment_kernelINS0_9evaluatorINS_6MatrixIdLin1ELin1ELi0ELin1ELin1EEEEENS3_INS_9ReplicateINS_13CwiseBinaryOpINS0_13scalar_sum_opIddEEKNS8_INS0_18scalar_quotient_opIddEEKNS_12ArrayWrapperIKNS_14CwiseNullaryOpINS0_16scalar_random_opIdEES5_EEEEKNSE_INS0_18scalar_constant_opIdEEKNS_5ArrayIdLin1ELin1ELi0ELin1ELin1EEEEEEESR_EELin1ELin1EEEEENS0_9assign_opIddEELi0EEELi0ELi0EE3runERSZ_, symObjAddr: 0x1C7DC, symBinAddr: 0x10001D1E8, symSize: 0xAC }
  - { offsetInCU: 0x90094, offset: 0x90094, size: 0x8, addend: 0x0, symName: __ZN5Eigen8internal9evaluatorINS_9ReplicateINS_13CwiseBinaryOpINS0_13scalar_sum_opIddEEKNS3_INS0_18scalar_quotient_opIddEEKNS_12ArrayWrapperIKNS_14CwiseNullaryOpINS0_16scalar_random_opIdEENS_6MatrixIdLin1ELin1ELi0ELin1ELin1EEEEEEEKNS9_INS0_18scalar_constant_opIdEEKNS_5ArrayIdLin1ELin1ELi0ELin1ELin1EEEEEEESO_EELin1ELin1EEEED1Ev, symObjAddr: 0x1C888, symBinAddr: 0x10001D294, symSize: 0x2C }
  - { offsetInCU: 0x900C0, offset: 0x900C0, size: 0x8, addend: 0x0, symName: __ZN5Eigen8internal9evaluatorINS_9ReplicateINS_13CwiseBinaryOpINS0_13scalar_sum_opIddEEKNS3_INS0_18scalar_quotient_opIddEEKNS_12ArrayWrapperIKNS_14CwiseNullaryOpINS0_16scalar_random_opIdEENS_6MatrixIdLin1ELin1ELi0ELin1ELin1EEEEEEEKNS9_INS0_18scalar_constant_opIdEEKNS_5ArrayIdLin1ELin1ELi0ELin1ELin1EEEEEEESO_EELin1ELin1EEEEC2ERKSS_, symObjAddr: 0x1C8B4, symBinAddr: 0x10001D2C0, symSize: 0x34 }
  - { offsetInCU: 0x900F8, offset: 0x900F8, size: 0x8, addend: 0x0, symName: __ZN5Eigen8internal15unary_evaluatorINS_9ReplicateINS_13CwiseBinaryOpINS0_13scalar_sum_opIddEEKNS3_INS0_18scalar_quotient_opIddEEKNS_12ArrayWrapperIKNS_14CwiseNullaryOpINS0_16scalar_random_opIdEENS_6MatrixIdLin1ELin1ELi0ELin1ELin1EEEEEEEKNS9_INS0_18scalar_constant_opIdEEKNS_5ArrayIdLin1ELin1ELi0ELin1ELin1EEEEEEESO_EELin1ELin1EEENS0_10IndexBasedEdEC2ERKSS_, symObjAddr: 0x1C8E8, symBinAddr: 0x10001D2F4, symSize: 0x124 }
  - { offsetInCU: 0x90131, offset: 0x90131, size: 0x8, addend: 0x0, symName: __ZN5Eigen8internal14evaluator_baseINS_9ReplicateINS_13CwiseBinaryOpINS0_13scalar_sum_opIddEEKNS3_INS0_18scalar_quotient_opIddEEKNS_12ArrayWrapperIKNS_14CwiseNullaryOpINS0_16scalar_random_opIdEENS_6MatrixIdLin1ELin1ELi0ELin1ELin1EEEEEEEKNS9_INS0_18scalar_constant_opIdEEKNS_5ArrayIdLin1ELin1ELi0ELin1ELin1EEEEEEESO_EELin1ELin1EEEEC2Ev, symObjAddr: 0x1CA0C, symBinAddr: 0x10001D418, symSize: 0x14 }
  - { offsetInCU: 0x9015B, offset: 0x9015B, size: 0x8, addend: 0x0, symName: __ZNK5Eigen9ReplicateINS_13CwiseBinaryOpINS_8internal13scalar_sum_opIddEEKNS1_INS2_18scalar_quotient_opIddEEKNS_12ArrayWrapperIKNS_14CwiseNullaryOpINS2_16scalar_random_opIdEENS_6MatrixIdLin1ELin1ELi0ELin1ELin1EEEEEEEKNS8_INS2_18scalar_constant_opIdEEKNS_5ArrayIdLin1ELin1ELi0ELin1ELin1EEEEEEESN_EELin1ELin1EE16nestedExpressionEv, symObjAddr: 0x1CA20, symBinAddr: 0x10001D42C, symSize: 0x14 }
  - { offsetInCU: 0x90181, offset: 0x90181, size: 0x8, addend: 0x0, symName: __ZN5Eigen5ArrayIdLin1ELin1ELi0ELin1ELin1EEC1INS_13CwiseBinaryOpINS_8internal13scalar_sum_opIddEEKNS3_INS4_18scalar_quotient_opIddEEKNS_12ArrayWrapperIKNS_14CwiseNullaryOpINS4_16scalar_random_opIdEENS_6MatrixIdLin1ELin1ELi0ELin1ELin1EEEEEEEKNSA_INS4_18scalar_constant_opIdEEKS1_EEEESN_EEEERKT_, symObjAddr: 0x1CA34, symBinAddr: 0x10001D440, symSize: 0x34 }
  - { offsetInCU: 0x901C2, offset: 0x901C2, size: 0x8, addend: 0x0, symName: __ZN5Eigen8internal9evaluatorINS_5ArrayIdLin1ELin1ELi0ELin1ELin1EEEEC1ERKS3_, symObjAddr: 0x1CA68, symBinAddr: 0x10001D474, symSize: 0x34 }
  - { offsetInCU: 0x901FB, offset: 0x901FB, size: 0x8, addend: 0x0, symName: __ZN5Eigen8internal9evaluatorINS_5ArrayIdLin1ELin1ELi0ELin1ELin1EEEED1Ev, symObjAddr: 0x1CA9C, symBinAddr: 0x10001D4A8, symSize: 0x2C }
  - { offsetInCU: 0x90228, offset: 0x90228, size: 0x8, addend: 0x0, symName: __ZN5Eigen5ArrayIdLin1ELin1ELi0ELin1ELin1EED1Ev, symObjAddr: 0x1CAC8, symBinAddr: 0x10001D4D4, symSize: 0x2C }
  - { offsetInCU: 0x90254, offset: 0x90254, size: 0x8, addend: 0x0, symName: __ZN5Eigen8internal14evaluator_baseINS_9ReplicateINS_13CwiseBinaryOpINS0_13scalar_sum_opIddEEKNS3_INS0_18scalar_quotient_opIddEEKNS_12ArrayWrapperIKNS_14CwiseNullaryOpINS0_16scalar_random_opIdEENS_6MatrixIdLin1ELin1ELi0ELin1ELin1EEEEEEEKNS9_INS0_18scalar_constant_opIdEEKNS_5ArrayIdLin1ELin1ELi0ELin1ELin1EEEEEEESO_EELin1ELin1EEEED2Ev, symObjAddr: 0x1CAF4, symBinAddr: 0x10001D500, symSize: 0x14 }
  - { offsetInCU: 0x9027E, offset: 0x9027E, size: 0x8, addend: 0x0, symName: __ZN5Eigen5ArrayIdLin1ELin1ELi0ELin1ELin1EEC2INS_13CwiseBinaryOpINS_8internal13scalar_sum_opIddEEKNS3_INS4_18scalar_quotient_opIddEEKNS_12ArrayWrapperIKNS_14CwiseNullaryOpINS4_16scalar_random_opIdEENS_6MatrixIdLin1ELin1ELi0ELin1ELin1EEEEEEEKNSA_INS4_18scalar_constant_opIdEEKS1_EEEESN_EEEERKT_, symObjAddr: 0x1CB08, symBinAddr: 0x10001D514, symSize: 0x6C }
  - { offsetInCU: 0x902BF, offset: 0x902BF, size: 0x8, addend: 0x0, symName: __ZN5Eigen15PlainObjectBaseINS_5ArrayIdLin1ELin1ELi0ELin1ELin1EEEEC2Ev, symObjAddr: 0x1CB74, symBinAddr: 0x10001D580, symSize: 0x34 }
  - { offsetInCU: 0x902E9, offset: 0x902E9, size: 0x8, addend: 0x0, symName: __ZN5Eigen15PlainObjectBaseINS_5ArrayIdLin1ELin1ELi0ELin1ELin1EEEE22_check_template_paramsEv, symObjAddr: 0x1CBA8, symBinAddr: 0x10001D5B4, symSize: 0x4 }
  - { offsetInCU: 0x902FD, offset: 0x902FD, size: 0x8, addend: 0x0, symName: __ZN5Eigen15PlainObjectBaseINS_5ArrayIdLin1ELin1ELi0ELin1ELin1EEEE6_init1INS_13CwiseBinaryOpINS_8internal13scalar_sum_opIddEEKNS5_INS6_18scalar_quotient_opIddEEKNS_12ArrayWrapperIKNS_14CwiseNullaryOpINS6_16scalar_random_opIdEENS_6MatrixIdLin1ELin1ELi0ELin1ELin1EEEEEEEKNSC_INS6_18scalar_constant_opIdEEKS2_EEEESP_EESS_EEvRKNS_9DenseBaseIT0_EE, symObjAddr: 0x1CBAC, symBinAddr: 0x10001D5B8, symSize: 0x2C }
  - { offsetInCU: 0x90344, offset: 0x90344, size: 0x8, addend: 0x0, symName: __ZN5Eigen15PlainObjectBaseINS_5ArrayIdLin1ELin1ELi0ELin1ELin1EEEED2Ev, symObjAddr: 0x1CBD8, symBinAddr: 0x10001D5E4, symSize: 0x2C }
  - { offsetInCU: 0x90370, offset: 0x90370, size: 0x8, addend: 0x0, symName: __ZN5Eigen9ArrayBaseINS_5ArrayIdLin1ELin1ELi0ELin1ELin1EEEEC2Ev, symObjAddr: 0x1CC04, symBinAddr: 0x10001D610, symSize: 0x2C }
  - { offsetInCU: 0x9039A, offset: 0x9039A, size: 0x8, addend: 0x0, symName: __ZN5Eigen9DenseBaseINS_5ArrayIdLin1ELin1ELi0ELin1ELin1EEEEC2Ev, symObjAddr: 0x1CC30, symBinAddr: 0x10001D63C, symSize: 0x14 }
  - { offsetInCU: 0x903C4, offset: 0x903C4, size: 0x8, addend: 0x0, symName: __ZN5Eigen15PlainObjectBaseINS_5ArrayIdLin1ELin1ELi0ELin1ELin1EEEE12_set_noaliasINS_13CwiseBinaryOpINS_8internal13scalar_sum_opIddEEKNS5_INS6_18scalar_quotient_opIddEEKNS_12ArrayWrapperIKNS_14CwiseNullaryOpINS6_16scalar_random_opIdEENS_6MatrixIdLin1ELin1ELi0ELin1ELin1EEEEEEEKNSC_INS6_18scalar_constant_opIdEEKS2_EEEESP_EEEERS2_RKNS_9DenseBaseIT_EE, symObjAddr: 0x1CC44, symBinAddr: 0x10001D650, symSize: 0x60 }
  - { offsetInCU: 0x90402, offset: 0x90402, size: 0x8, addend: 0x0, symName: __ZN5Eigen9EigenBaseINS_5ArrayIdLin1ELin1ELi0ELin1ELin1EEEE7derivedEv, symObjAddr: 0x1CCE0, symBinAddr: 0x10001D6EC, symSize: 0x14 }
  - { offsetInCU: 0x90428, offset: 0x90428, size: 0x8, addend: 0x0, symName: __ZN5Eigen8internal10AssignmentINS_5ArrayIdLin1ELin1ELi0ELin1ELin1EEENS_13CwiseBinaryOpINS0_13scalar_sum_opIddEEKNS4_INS0_18scalar_quotient_opIddEEKNS_12ArrayWrapperIKNS_14CwiseNullaryOpINS0_16scalar_random_opIdEENS_6MatrixIdLin1ELin1ELi0ELin1ELin1EEEEEEEKNSA_INS0_18scalar_constant_opIdEEKS3_EEEESN_EENS0_9assign_opIddEENS0_11Dense2DenseEvE3runERS3_RKSQ_RKSS_, symObjAddr: 0x1CCF4, symBinAddr: 0x10001D700, symSize: 0x40 }
  - { offsetInCU: 0x9046A, offset: 0x9046A, size: 0x8, addend: 0x0, symName: __ZNK5Eigen15PlainObjectBaseINS_5ArrayIdLin1ELin1ELi0ELin1ELin1EEEE4rowsEv, symObjAddr: 0x1CE74, symBinAddr: 0x10001D880, symSize: 0x24 }
  - { offsetInCU: 0x90490, offset: 0x90490, size: 0x8, addend: 0x0, symName: __ZNK5Eigen15PlainObjectBaseINS_5ArrayIdLin1ELin1ELi0ELin1ELin1EEEE4colsEv, symObjAddr: 0x1CE98, symBinAddr: 0x10001D8A4, symSize: 0x24 }
  - { offsetInCU: 0x904B6, offset: 0x904B6, size: 0x8, addend: 0x0, symName: __ZN5Eigen8internal27checkTransposeAliasing_implINS_5ArrayIdLin1ELin1ELi0ELin1ELin1EEENS_13CwiseBinaryOpINS0_13scalar_sum_opIddEEKNS4_INS0_18scalar_quotient_opIddEEKNS_12ArrayWrapperIKNS_14CwiseNullaryOpINS0_16scalar_random_opIdEENS_6MatrixIdLin1ELin1ELi0ELin1ELin1EEEEEEEKNSA_INS0_18scalar_constant_opIdEEKS3_EEEESN_EELb0EE3runERSL_RKSQ_, symObjAddr: 0x1CEBC, symBinAddr: 0x10001D8C8, symSize: 0x14 }
  - { offsetInCU: 0x904E1, offset: 0x904E1, size: 0x8, addend: 0x0, symName: __ZN5Eigen8internal9evaluatorINS_13CwiseBinaryOpINS0_13scalar_sum_opIddEEKNS2_INS0_18scalar_quotient_opIddEEKNS_12ArrayWrapperIKNS_14CwiseNullaryOpINS0_16scalar_random_opIdEENS_6MatrixIdLin1ELin1ELi0ELin1ELin1EEEEEEEKNS8_INS0_18scalar_constant_opIdEEKNS_5ArrayIdLin1ELin1ELi0ELin1ELin1EEEEEEESN_EEEC1ERKSQ_, symObjAddr: 0x1CED0, symBinAddr: 0x10001D8DC, symSize: 0x34 }
  - { offsetInCU: 0x9051A, offset: 0x9051A, size: 0x8, addend: 0x0, symName: __ZNK5Eigen9EigenBaseINS_5ArrayIdLin1ELin1ELi0ELin1ELin1EEEE18const_cast_derivedEv, symObjAddr: 0x1CFFC, symBinAddr: 0x10001DA08, symSize: 0x14 }
  - { offsetInCU: 0x9056D, offset: 0x9056D, size: 0x8, addend: 0x0, symName: __ZN5Eigen8internal31generic_dense_assignment_kernelINS0_9evaluatorINS_5ArrayIdLin1ELin1ELi0ELin1ELin1EEEEENS2_INS_13CwiseBinaryOpINS0_13scalar_sum_opIddEEKNS6_INS0_18scalar_quotient_opIddEEKNS_12ArrayWrapperIKNS_14CwiseNullaryOpINS0_16scalar_random_opIdEENS_6MatrixIdLin1ELin1ELi0ELin1ELin1EEEEEEEKNSC_INS0_18scalar_constant_opIdEEKS4_EEEESP_EEEENS0_9assign_opIddEELi0EEC1ERS5_RKST_RKSV_RS4_, symObjAddr: 0x1D010, symBinAddr: 0x10001DA1C, symSize: 0x4C }
  - { offsetInCU: 0x905D8, offset: 0x905D8, size: 0x8, addend: 0x0, symName: __ZN5Eigen8internal21dense_assignment_loopINS0_31generic_dense_assignment_kernelINS0_9evaluatorINS_5ArrayIdLin1ELin1ELi0ELin1ELin1EEEEENS3_INS_13CwiseBinaryOpINS0_13scalar_sum_opIddEEKNS7_INS0_18scalar_quotient_opIddEEKNS_12ArrayWrapperIKNS_14CwiseNullaryOpINS0_16scalar_random_opIdEENS_6MatrixIdLin1ELin1ELi0ELin1ELin1EEEEEEEKNSD_INS0_18scalar_constant_opIdEEKS5_EEEESQ_EEEENS0_9assign_opIddEELi0EEELi1ELi0EE3runERSX_, symObjAddr: 0x1D05C, symBinAddr: 0x10001DA68, symSize: 0x68 }
  - { offsetInCU: 0x90628, offset: 0x90628, size: 0x8, addend: 0x0, symName: __ZN5Eigen8internal9evaluatorINS_13CwiseBinaryOpINS0_13scalar_sum_opIddEEKNS2_INS0_18scalar_quotient_opIddEEKNS_12ArrayWrapperIKNS_14CwiseNullaryOpINS0_16scalar_random_opIdEENS_6MatrixIdLin1ELin1ELi0ELin1ELin1EEEEEEEKNS8_INS0_18scalar_constant_opIdEEKNS_5ArrayIdLin1ELin1ELi0ELin1ELin1EEEEEEESN_EEED1Ev, symObjAddr: 0x1D0C4, symBinAddr: 0x10001DAD0, symSize: 0x2C }
  - { offsetInCU: 0x90655, offset: 0x90655, size: 0x8, addend: 0x0, symName: __ZN5Eigen15PlainObjectBaseINS_5ArrayIdLin1ELin1ELi0ELin1ELin1EEEE6resizeEll, symObjAddr: 0x1D0F0, symBinAddr: 0x10001DAFC, symSize: 0x14C }
  - { offsetInCU: 0x906D1, offset: 0x906D1, size: 0x8, addend: 0x0, symName: __ZN5Eigen8internal31generic_dense_assignment_kernelINS0_9evaluatorINS_5ArrayIdLin1ELin1ELi0ELin1ELin1EEEEENS2_INS_13CwiseBinaryOpINS0_13scalar_sum_opIddEEKNS6_INS0_18scalar_quotient_opIddEEKNS_12ArrayWrapperIKNS_14CwiseNullaryOpINS0_16scalar_random_opIdEENS_6MatrixIdLin1ELin1ELi0ELin1ELin1EEEEEEEKNSC_INS0_18scalar_constant_opIdEEKS4_EEEESP_EEEENS0_9assign_opIddEELi0EEC2ERS5_RKST_RKSV_RS4_, symObjAddr: 0x1D23C, symBinAddr: 0x10001DC48, symSize: 0x44 }
  - { offsetInCU: 0x90737, offset: 0x90737, size: 0x8, addend: 0x0, symName: __ZNK5Eigen8internal31generic_dense_assignment_kernelINS0_9evaluatorINS_5ArrayIdLin1ELin1ELi0ELin1ELin1EEEEENS2_INS_13CwiseBinaryOpINS0_13scalar_sum_opIddEEKNS6_INS0_18scalar_quotient_opIddEEKNS_12ArrayWrapperIKNS_14CwiseNullaryOpINS0_16scalar_random_opIdEENS_6MatrixIdLin1ELin1ELi0ELin1ELin1EEEEEEEKNSC_INS0_18scalar_constant_opIdEEKS4_EEEESP_EEEENS0_9assign_opIddEELi0EE4sizeEv, symObjAddr: 0x1D280, symBinAddr: 0x10001DC8C, symSize: 0x28 }
  - { offsetInCU: 0x9075D, offset: 0x9075D, size: 0x8, addend: 0x0, symName: __ZN5Eigen8internal31generic_dense_assignment_kernelINS0_9evaluatorINS_5ArrayIdLin1ELin1ELi0ELin1ELin1EEEEENS2_INS_13CwiseBinaryOpINS0_13scalar_sum_opIddEEKNS6_INS0_18scalar_quotient_opIddEEKNS_12ArrayWrapperIKNS_14CwiseNullaryOpINS0_16scalar_random_opIdEENS_6MatrixIdLin1ELin1ELi0ELin1ELin1EEEEEEEKNSC_INS0_18scalar_constant_opIdEEKS4_EEEESP_EEEENS0_9assign_opIddEELi0EE11assignCoeffEl, symObjAddr: 0x1D2A8, symBinAddr: 0x10001DCB4, symSize: 0x64 }
  - { offsetInCU: 0x90792, offset: 0x90792, size: 0x8, addend: 0x0, symName: __ZNK5Eigen9EigenBaseINS_5ArrayIdLin1ELin1ELi0ELin1ELin1EEEE4sizeEv, symObjAddr: 0x1D30C, symBinAddr: 0x10001DD18, symSize: 0x44 }
  - { offsetInCU: 0x907B8, offset: 0x907B8, size: 0x8, addend: 0x0, symName: __ZNK5Eigen9EigenBaseINS_5ArrayIdLin1ELin1ELi0ELin1ELin1EEEE4rowsEv, symObjAddr: 0x1D350, symBinAddr: 0x10001DD5C, symSize: 0x38 }
  - { offsetInCU: 0x907DE, offset: 0x907DE, size: 0x8, addend: 0x0, symName: __ZNK5Eigen9EigenBaseINS_5ArrayIdLin1ELin1ELi0ELin1ELin1EEEE4colsEv, symObjAddr: 0x1D388, symBinAddr: 0x10001DD94, symSize: 0x28 }
  - { offsetInCU: 0x90804, offset: 0x90804, size: 0x8, addend: 0x0, symName: __ZNK5Eigen9EigenBaseINS_5ArrayIdLin1ELin1ELi0ELin1ELin1EEEE7derivedEv, symObjAddr: 0x1D3B0, symBinAddr: 0x10001DDBC, symSize: 0x14 }
  - { offsetInCU: 0x9082A, offset: 0x9082A, size: 0x8, addend: 0x0, symName: __ZN5Eigen8internal9evaluatorINS_15PlainObjectBaseINS_5ArrayIdLin1ELin1ELi0ELin1ELin1EEEEEE8coeffRefEl, symObjAddr: 0x1D3C4, symBinAddr: 0x10001DDD0, symSize: 0x24 }
  - { offsetInCU: 0x9085E, offset: 0x9085E, size: 0x8, addend: 0x0, symName: __ZN5Eigen8internal9evaluatorINS_5ArrayIdLin1ELin1ELi0ELin1ELin1EEEEC2ERKS3_, symObjAddr: 0x1D3E8, symBinAddr: 0x10001DDF4, symSize: 0x34 }
  - { offsetInCU: 0x90897, offset: 0x90897, size: 0x8, addend: 0x0, symName: __ZN5Eigen8internal9evaluatorINS_15PlainObjectBaseINS_5ArrayIdLin1ELin1ELi0ELin1ELin1EEEEEEC2ERKS5_, symObjAddr: 0x1D41C, symBinAddr: 0x10001DE28, symSize: 0x80 }
  - { offsetInCU: 0x908CF, offset: 0x908CF, size: 0x8, addend: 0x0, symName: __ZN5Eigen8internal14evaluator_baseINS_5ArrayIdLin1ELin1ELi0ELin1ELin1EEEEC2Ev, symObjAddr: 0x1D49C, symBinAddr: 0x10001DEA8, symSize: 0x14 }
